ARM GAS  C:\Users\ehgre\AppData\Local\Temp\ccCiQ1bO.s 			page 1


   1              		.cpu cortex-m4
   2              		.arch armv7e-m
   3              		.fpu fpv4-sp-d16
   4              		.eabi_attribute 27, 1
   5              		.eabi_attribute 28, 1
   6              		.eabi_attribute 20, 1
   7              		.eabi_attribute 21, 1
   8              		.eabi_attribute 23, 3
   9              		.eabi_attribute 24, 1
  10              		.eabi_attribute 25, 1
  11              		.eabi_attribute 26, 1
  12              		.eabi_attribute 30, 1
  13              		.eabi_attribute 34, 1
  14              		.eabi_attribute 18, 4
  15              		.file	"light_logic.c"
  16              		.text
  17              	.Ltext0:
  18              		.cfi_sections	.debug_frame
  19              		.file 1 "Core/Src/light_logic.c"
  20              		.section	.text.PL1_Green,"ax",%progbits
  21              		.align	1
  22              		.global	PL1_Green
  23              		.syntax unified
  24              		.thumb
  25              		.thumb_func
  27              	PL1_Green:
  28              	.LVL0:
  29              	.LFB320:
   1:Core/Src/light_logic.c **** #include <stdio.h>
   2:Core/Src/light_logic.c **** #include <stdlib.h>
   3:Core/Src/light_logic.c **** #include <stdbool.h>
   4:Core/Src/light_logic.c **** 
   5:Core/Src/light_logic.c **** #include "main.h"
   6:Core/Src/light_logic.c **** #include "stm32l4xx_it.h"
   7:Core/Src/light_logic.c **** #include "stm32l4xx_hal_conf.h"
   8:Core/Src/light_logic.c **** #include "shift_register.h"
   9:Core/Src/light_logic.c **** #include "spi.h"
  10:Core/Src/light_logic.c **** #include "light_logic.h"
  11:Core/Src/light_logic.c **** 
  12:Core/Src/light_logic.c **** uint32_t PL1_Green(uint32_t bits, bool activated){
  30              		.loc 1 12 50 view -0
  31              		.cfi_startproc
  32              		@ args = 0, pretend = 0, frame = 0
  33              		@ frame_needed = 0, uses_anonymous_args = 0
  34              		.loc 1 12 50 is_stmt 0 view .LVU1
  35 0000 08B5     		push	{r3, lr}
  36              	.LCFI0:
  37              		.cfi_def_cfa_offset 8
  38              		.cfi_offset 3, -8
  39              		.cfi_offset 14, -4
  13:Core/Src/light_logic.c ****     if(activated){
  40              		.loc 1 13 5 is_stmt 1 view .LVU2
  41              		.loc 1 13 7 is_stmt 0 view .LVU3
  42 0002 29B1     		cbz	r1, .L2
  14:Core/Src/light_logic.c ****         bits = SR_bitadj(bits, LED1516, LED1516);
  43              		.loc 1 14 9 is_stmt 1 view .LVU4
  44              		.loc 1 14 16 is_stmt 0 view .LVU5
ARM GAS  C:\Users\ehgre\AppData\Local\Temp\ccCiQ1bO.s 			page 2


  45 0004 4FF48012 		mov	r2, #1048576
  46 0008 1146     		mov	r1, r2
  47              	.LVL1:
  48              		.loc 1 14 16 view .LVU6
  49 000a FFF7FEFF 		bl	SR_bitadj
  50              	.LVL2:
  51              	.L1:
  15:Core/Src/light_logic.c ****     }else{
  16:Core/Src/light_logic.c ****         bits = SR_bitadj(bits, 0, LED1516);
  17:Core/Src/light_logic.c ****     }
  18:Core/Src/light_logic.c ****     return bits;
  19:Core/Src/light_logic.c **** }
  52              		.loc 1 19 1 view .LVU7
  53 000e 08BD     		pop	{r3, pc}
  54              	.LVL3:
  55              	.L2:
  16:Core/Src/light_logic.c ****     }
  56              		.loc 1 16 9 is_stmt 1 view .LVU8
  16:Core/Src/light_logic.c ****     }
  57              		.loc 1 16 16 is_stmt 0 view .LVU9
  58 0010 4FF48012 		mov	r2, #1048576
  59 0014 0021     		movs	r1, #0
  60              	.LVL4:
  16:Core/Src/light_logic.c ****     }
  61              		.loc 1 16 16 view .LVU10
  62 0016 FFF7FEFF 		bl	SR_bitadj
  63              	.LVL5:
  18:Core/Src/light_logic.c **** }
  64              		.loc 1 18 5 is_stmt 1 view .LVU11
  18:Core/Src/light_logic.c **** }
  65              		.loc 1 18 12 is_stmt 0 view .LVU12
  66 001a F8E7     		b	.L1
  67              		.cfi_endproc
  68              	.LFE320:
  70              		.section	.text.PL1_Red,"ax",%progbits
  71              		.align	1
  72              		.global	PL1_Red
  73              		.syntax unified
  74              		.thumb
  75              		.thumb_func
  77              	PL1_Red:
  78              	.LVL6:
  79              	.LFB321:
  20:Core/Src/light_logic.c **** 
  21:Core/Src/light_logic.c **** uint32_t PL1_Red(uint32_t bits, bool activated){
  80              		.loc 1 21 48 is_stmt 1 view -0
  81              		.cfi_startproc
  82              		@ args = 0, pretend = 0, frame = 0
  83              		@ frame_needed = 0, uses_anonymous_args = 0
  84              		.loc 1 21 48 is_stmt 0 view .LVU14
  85 0000 08B5     		push	{r3, lr}
  86              	.LCFI1:
  87              		.cfi_def_cfa_offset 8
  88              		.cfi_offset 3, -8
  89              		.cfi_offset 14, -4
  22:Core/Src/light_logic.c ****     if(activated){
  90              		.loc 1 22 5 is_stmt 1 view .LVU15
ARM GAS  C:\Users\ehgre\AppData\Local\Temp\ccCiQ1bO.s 			page 3


  91              		.loc 1 22 7 is_stmt 0 view .LVU16
  92 0002 29B1     		cbz	r1, .L6
  23:Core/Src/light_logic.c ****         bits = SR_bitadj(bits, LED1314, LED1314);
  93              		.loc 1 23 9 is_stmt 1 view .LVU17
  94              		.loc 1 23 16 is_stmt 0 view .LVU18
  95 0004 4FF40022 		mov	r2, #524288
  96 0008 1146     		mov	r1, r2
  97              	.LVL7:
  98              		.loc 1 23 16 view .LVU19
  99 000a FFF7FEFF 		bl	SR_bitadj
 100              	.LVL8:
 101              	.L5:
  24:Core/Src/light_logic.c ****     }else{
  25:Core/Src/light_logic.c ****         bits = SR_bitadj(bits, 0, LED1314);
  26:Core/Src/light_logic.c ****     }
  27:Core/Src/light_logic.c ****     return bits;
  28:Core/Src/light_logic.c **** }
 102              		.loc 1 28 1 view .LVU20
 103 000e 08BD     		pop	{r3, pc}
 104              	.LVL9:
 105              	.L6:
  25:Core/Src/light_logic.c ****     }
 106              		.loc 1 25 9 is_stmt 1 view .LVU21
  25:Core/Src/light_logic.c ****     }
 107              		.loc 1 25 16 is_stmt 0 view .LVU22
 108 0010 4FF40022 		mov	r2, #524288
 109 0014 0021     		movs	r1, #0
 110              	.LVL10:
  25:Core/Src/light_logic.c ****     }
 111              		.loc 1 25 16 view .LVU23
 112 0016 FFF7FEFF 		bl	SR_bitadj
 113              	.LVL11:
  27:Core/Src/light_logic.c **** }
 114              		.loc 1 27 5 is_stmt 1 view .LVU24
  27:Core/Src/light_logic.c **** }
 115              		.loc 1 27 12 is_stmt 0 view .LVU25
 116 001a F8E7     		b	.L5
 117              		.cfi_endproc
 118              	.LFE321:
 120              		.section	.text.PL1_Blue,"ax",%progbits
 121              		.align	1
 122              		.global	PL1_Blue
 123              		.syntax unified
 124              		.thumb
 125              		.thumb_func
 127              	PL1_Blue:
 128              	.LVL12:
 129              	.LFB322:
  29:Core/Src/light_logic.c **** 
  30:Core/Src/light_logic.c **** uint32_t PL1_Blue(uint32_t bits, bool activated){
 130              		.loc 1 30 49 is_stmt 1 view -0
 131              		.cfi_startproc
 132              		@ args = 0, pretend = 0, frame = 0
 133              		@ frame_needed = 0, uses_anonymous_args = 0
 134              		.loc 1 30 49 is_stmt 0 view .LVU27
 135 0000 08B5     		push	{r3, lr}
 136              	.LCFI2:
ARM GAS  C:\Users\ehgre\AppData\Local\Temp\ccCiQ1bO.s 			page 4


 137              		.cfi_def_cfa_offset 8
 138              		.cfi_offset 3, -8
 139              		.cfi_offset 14, -4
  31:Core/Src/light_logic.c ****     if(activated){
 140              		.loc 1 31 5 is_stmt 1 view .LVU28
 141              		.loc 1 31 7 is_stmt 0 view .LVU29
 142 0002 29B1     		cbz	r1, .L10
  32:Core/Src/light_logic.c ****         bits = SR_bitadj(bits, LED1718, LED1718);
 143              		.loc 1 32 9 is_stmt 1 view .LVU30
 144              		.loc 1 32 16 is_stmt 0 view .LVU31
 145 0004 4FF40012 		mov	r2, #2097152
 146 0008 1146     		mov	r1, r2
 147              	.LVL13:
 148              		.loc 1 32 16 view .LVU32
 149 000a FFF7FEFF 		bl	SR_bitadj
 150              	.LVL14:
 151              	.L9:
  33:Core/Src/light_logic.c ****     }else{
  34:Core/Src/light_logic.c ****         bits = SR_bitadj(bits, 0, LED1718);
  35:Core/Src/light_logic.c ****     }
  36:Core/Src/light_logic.c ****     return bits;
  37:Core/Src/light_logic.c **** }
 152              		.loc 1 37 1 view .LVU33
 153 000e 08BD     		pop	{r3, pc}
 154              	.LVL15:
 155              	.L10:
  34:Core/Src/light_logic.c ****     }
 156              		.loc 1 34 9 is_stmt 1 view .LVU34
  34:Core/Src/light_logic.c ****     }
 157              		.loc 1 34 16 is_stmt 0 view .LVU35
 158 0010 4FF40012 		mov	r2, #2097152
 159 0014 0021     		movs	r1, #0
 160              	.LVL16:
  34:Core/Src/light_logic.c ****     }
 161              		.loc 1 34 16 view .LVU36
 162 0016 FFF7FEFF 		bl	SR_bitadj
 163              	.LVL17:
  36:Core/Src/light_logic.c **** }
 164              		.loc 1 36 5 is_stmt 1 view .LVU37
  36:Core/Src/light_logic.c **** }
 165              		.loc 1 36 12 is_stmt 0 view .LVU38
 166 001a F8E7     		b	.L9
 167              		.cfi_endproc
 168              	.LFE322:
 170              		.section	.text.PL1_Blue_Toggle,"ax",%progbits
 171              		.align	1
 172              		.global	PL1_Blue_Toggle
 173              		.syntax unified
 174              		.thumb
 175              		.thumb_func
 177              	PL1_Blue_Toggle:
 178              	.LVL18:
 179              	.LFB323:
  38:Core/Src/light_logic.c **** 
  39:Core/Src/light_logic.c **** uint32_t PL1_Blue_Toggle(uint32_t bits){
 180              		.loc 1 39 40 is_stmt 1 view -0
 181              		.cfi_startproc
ARM GAS  C:\Users\ehgre\AppData\Local\Temp\ccCiQ1bO.s 			page 5


 182              		@ args = 0, pretend = 0, frame = 0
 183              		@ frame_needed = 0, uses_anonymous_args = 0
 184              		.loc 1 39 40 is_stmt 0 view .LVU40
 185 0000 08B5     		push	{r3, lr}
 186              	.LCFI3:
 187              		.cfi_def_cfa_offset 8
 188              		.cfi_offset 3, -8
 189              		.cfi_offset 14, -4
  40:Core/Src/light_logic.c ****     if((bits&LED1718) == 0){
 190              		.loc 1 40 5 is_stmt 1 view .LVU41
 191              		.loc 1 40 7 is_stmt 0 view .LVU42
 192 0002 10F4001F 		tst	r0, #2097152
 193 0006 05D1     		bne	.L14
  41:Core/Src/light_logic.c ****         bits = SR_bitadj(bits, LED1718, LED1718);
 194              		.loc 1 41 9 is_stmt 1 view .LVU43
 195              		.loc 1 41 16 is_stmt 0 view .LVU44
 196 0008 4FF40012 		mov	r2, #2097152
 197 000c 1146     		mov	r1, r2
 198 000e FFF7FEFF 		bl	SR_bitadj
 199              	.LVL19:
 200              	.L13:
  42:Core/Src/light_logic.c ****     }else{
  43:Core/Src/light_logic.c ****         bits = SR_bitadj(bits, 0, LED1718);
  44:Core/Src/light_logic.c ****     }
  45:Core/Src/light_logic.c ****     return bits;
  46:Core/Src/light_logic.c **** }
 201              		.loc 1 46 1 view .LVU45
 202 0012 08BD     		pop	{r3, pc}
 203              	.L14:
  43:Core/Src/light_logic.c ****     }
 204              		.loc 1 43 9 is_stmt 1 view .LVU46
  43:Core/Src/light_logic.c ****     }
 205              		.loc 1 43 16 is_stmt 0 view .LVU47
 206 0014 4FF40012 		mov	r2, #2097152
 207 0018 0021     		movs	r1, #0
 208 001a FFF7FEFF 		bl	SR_bitadj
 209              	.LVL20:
  45:Core/Src/light_logic.c **** }
 210              		.loc 1 45 5 is_stmt 1 view .LVU48
  45:Core/Src/light_logic.c **** }
 211              		.loc 1 45 12 is_stmt 0 view .LVU49
 212 001e F8E7     		b	.L13
 213              		.cfi_endproc
 214              	.LFE323:
 216              		.section	.text.PL2_Green,"ax",%progbits
 217              		.align	1
 218              		.global	PL2_Green
 219              		.syntax unified
 220              		.thumb
 221              		.thumb_func
 223              	PL2_Green:
 224              	.LVL21:
 225              	.LFB324:
  47:Core/Src/light_logic.c **** 
  48:Core/Src/light_logic.c **** uint32_t PL2_Green(uint32_t bits, bool activated){ 
 226              		.loc 1 48 50 is_stmt 1 view -0
 227              		.cfi_startproc
ARM GAS  C:\Users\ehgre\AppData\Local\Temp\ccCiQ1bO.s 			page 6


 228              		@ args = 0, pretend = 0, frame = 0
 229              		@ frame_needed = 0, uses_anonymous_args = 0
 230              		.loc 1 48 50 is_stmt 0 view .LVU51
 231 0000 08B5     		push	{r3, lr}
 232              	.LCFI4:
 233              		.cfi_def_cfa_offset 8
 234              		.cfi_offset 3, -8
 235              		.cfi_offset 14, -4
  49:Core/Src/light_logic.c ****     if(activated){
 236              		.loc 1 49 5 is_stmt 1 view .LVU52
 237              		.loc 1 49 7 is_stmt 0 view .LVU53
 238 0002 29B1     		cbz	r1, .L18
  50:Core/Src/light_logic.c ****         bits = SR_bitadj(bits, LED2122, LED2122);
 239              		.loc 1 50 9 is_stmt 1 view .LVU54
 240              		.loc 1 50 16 is_stmt 0 view .LVU55
 241 0004 4FF48052 		mov	r2, #4096
 242 0008 1146     		mov	r1, r2
 243              	.LVL22:
 244              		.loc 1 50 16 view .LVU56
 245 000a FFF7FEFF 		bl	SR_bitadj
 246              	.LVL23:
 247              	.L17:
  51:Core/Src/light_logic.c ****     }else{
  52:Core/Src/light_logic.c ****         bits = SR_bitadj(bits, 0, LED2122);
  53:Core/Src/light_logic.c ****     }
  54:Core/Src/light_logic.c ****     return bits;
  55:Core/Src/light_logic.c **** }
 248              		.loc 1 55 1 view .LVU57
 249 000e 08BD     		pop	{r3, pc}
 250              	.LVL24:
 251              	.L18:
  52:Core/Src/light_logic.c ****     }
 252              		.loc 1 52 9 is_stmt 1 view .LVU58
  52:Core/Src/light_logic.c ****     }
 253              		.loc 1 52 16 is_stmt 0 view .LVU59
 254 0010 4FF48052 		mov	r2, #4096
 255 0014 0021     		movs	r1, #0
 256              	.LVL25:
  52:Core/Src/light_logic.c ****     }
 257              		.loc 1 52 16 view .LVU60
 258 0016 FFF7FEFF 		bl	SR_bitadj
 259              	.LVL26:
  54:Core/Src/light_logic.c **** }
 260              		.loc 1 54 5 is_stmt 1 view .LVU61
  54:Core/Src/light_logic.c **** }
 261              		.loc 1 54 12 is_stmt 0 view .LVU62
 262 001a F8E7     		b	.L17
 263              		.cfi_endproc
 264              	.LFE324:
 266              		.section	.text.PL2_Red,"ax",%progbits
 267              		.align	1
 268              		.global	PL2_Red
 269              		.syntax unified
 270              		.thumb
 271              		.thumb_func
 273              	PL2_Red:
 274              	.LVL27:
ARM GAS  C:\Users\ehgre\AppData\Local\Temp\ccCiQ1bO.s 			page 7


 275              	.LFB325:
  56:Core/Src/light_logic.c **** 
  57:Core/Src/light_logic.c **** uint32_t PL2_Red(uint32_t bits, bool activated){ 
 276              		.loc 1 57 48 is_stmt 1 view -0
 277              		.cfi_startproc
 278              		@ args = 0, pretend = 0, frame = 0
 279              		@ frame_needed = 0, uses_anonymous_args = 0
 280              		.loc 1 57 48 is_stmt 0 view .LVU64
 281 0000 08B5     		push	{r3, lr}
 282              	.LCFI5:
 283              		.cfi_def_cfa_offset 8
 284              		.cfi_offset 3, -8
 285              		.cfi_offset 14, -4
  58:Core/Src/light_logic.c ****     if(activated){
 286              		.loc 1 58 5 is_stmt 1 view .LVU65
 287              		.loc 1 58 7 is_stmt 0 view .LVU66
 288 0002 29B1     		cbz	r1, .L22
  59:Core/Src/light_logic.c ****         bits = SR_bitadj(bits, LED1920, LED1920);
 289              		.loc 1 59 9 is_stmt 1 view .LVU67
 290              		.loc 1 59 16 is_stmt 0 view .LVU68
 291 0004 4FF40062 		mov	r2, #2048
 292 0008 1146     		mov	r1, r2
 293              	.LVL28:
 294              		.loc 1 59 16 view .LVU69
 295 000a FFF7FEFF 		bl	SR_bitadj
 296              	.LVL29:
 297              	.L21:
  60:Core/Src/light_logic.c ****     }else{
  61:Core/Src/light_logic.c ****         bits = SR_bitadj(bits, 0, LED1920);
  62:Core/Src/light_logic.c ****     }
  63:Core/Src/light_logic.c ****     return bits;
  64:Core/Src/light_logic.c **** }
 298              		.loc 1 64 1 view .LVU70
 299 000e 08BD     		pop	{r3, pc}
 300              	.LVL30:
 301              	.L22:
  61:Core/Src/light_logic.c ****     }
 302              		.loc 1 61 9 is_stmt 1 view .LVU71
  61:Core/Src/light_logic.c ****     }
 303              		.loc 1 61 16 is_stmt 0 view .LVU72
 304 0010 4FF40062 		mov	r2, #2048
 305 0014 0021     		movs	r1, #0
 306              	.LVL31:
  61:Core/Src/light_logic.c ****     }
 307              		.loc 1 61 16 view .LVU73
 308 0016 FFF7FEFF 		bl	SR_bitadj
 309              	.LVL32:
  63:Core/Src/light_logic.c **** }
 310              		.loc 1 63 5 is_stmt 1 view .LVU74
  63:Core/Src/light_logic.c **** }
 311              		.loc 1 63 12 is_stmt 0 view .LVU75
 312 001a F8E7     		b	.L21
 313              		.cfi_endproc
 314              	.LFE325:
 316              		.section	.text.PL2_Blue,"ax",%progbits
 317              		.align	1
 318              		.global	PL2_Blue
ARM GAS  C:\Users\ehgre\AppData\Local\Temp\ccCiQ1bO.s 			page 8


 319              		.syntax unified
 320              		.thumb
 321              		.thumb_func
 323              	PL2_Blue:
 324              	.LVL33:
 325              	.LFB326:
  65:Core/Src/light_logic.c **** 
  66:Core/Src/light_logic.c **** uint32_t PL2_Blue(uint32_t bits, bool activated){
 326              		.loc 1 66 49 is_stmt 1 view -0
 327              		.cfi_startproc
 328              		@ args = 0, pretend = 0, frame = 0
 329              		@ frame_needed = 0, uses_anonymous_args = 0
 330              		.loc 1 66 49 is_stmt 0 view .LVU77
 331 0000 08B5     		push	{r3, lr}
 332              	.LCFI6:
 333              		.cfi_def_cfa_offset 8
 334              		.cfi_offset 3, -8
 335              		.cfi_offset 14, -4
  67:Core/Src/light_logic.c ****     if(activated){
 336              		.loc 1 67 5 is_stmt 1 view .LVU78
 337              		.loc 1 67 7 is_stmt 0 view .LVU79
 338 0002 29B1     		cbz	r1, .L26
  68:Core/Src/light_logic.c ****         bits = SR_bitadj(bits, LED2324, LED2324);
 339              		.loc 1 68 9 is_stmt 1 view .LVU80
 340              		.loc 1 68 16 is_stmt 0 view .LVU81
 341 0004 4FF40052 		mov	r2, #8192
 342 0008 1146     		mov	r1, r2
 343              	.LVL34:
 344              		.loc 1 68 16 view .LVU82
 345 000a FFF7FEFF 		bl	SR_bitadj
 346              	.LVL35:
 347              	.L25:
  69:Core/Src/light_logic.c ****     }else{
  70:Core/Src/light_logic.c ****         bits = SR_bitadj(bits, 0, LED2324);
  71:Core/Src/light_logic.c ****     }
  72:Core/Src/light_logic.c ****     return bits;
  73:Core/Src/light_logic.c **** }
 348              		.loc 1 73 1 view .LVU83
 349 000e 08BD     		pop	{r3, pc}
 350              	.LVL36:
 351              	.L26:
  70:Core/Src/light_logic.c ****     }
 352              		.loc 1 70 9 is_stmt 1 view .LVU84
  70:Core/Src/light_logic.c ****     }
 353              		.loc 1 70 16 is_stmt 0 view .LVU85
 354 0010 4FF40052 		mov	r2, #8192
 355 0014 0021     		movs	r1, #0
 356              	.LVL37:
  70:Core/Src/light_logic.c ****     }
 357              		.loc 1 70 16 view .LVU86
 358 0016 FFF7FEFF 		bl	SR_bitadj
 359              	.LVL38:
  72:Core/Src/light_logic.c **** }
 360              		.loc 1 72 5 is_stmt 1 view .LVU87
  72:Core/Src/light_logic.c **** }
 361              		.loc 1 72 12 is_stmt 0 view .LVU88
 362 001a F8E7     		b	.L25
ARM GAS  C:\Users\ehgre\AppData\Local\Temp\ccCiQ1bO.s 			page 9


 363              		.cfi_endproc
 364              	.LFE326:
 366              		.section	.text.PL2_Blue_Toggle,"ax",%progbits
 367              		.align	1
 368              		.global	PL2_Blue_Toggle
 369              		.syntax unified
 370              		.thumb
 371              		.thumb_func
 373              	PL2_Blue_Toggle:
 374              	.LVL39:
 375              	.LFB327:
  74:Core/Src/light_logic.c **** 
  75:Core/Src/light_logic.c **** uint32_t PL2_Blue_Toggle(uint32_t bits){
 376              		.loc 1 75 40 is_stmt 1 view -0
 377              		.cfi_startproc
 378              		@ args = 0, pretend = 0, frame = 0
 379              		@ frame_needed = 0, uses_anonymous_args = 0
 380              		.loc 1 75 40 is_stmt 0 view .LVU90
 381 0000 08B5     		push	{r3, lr}
 382              	.LCFI7:
 383              		.cfi_def_cfa_offset 8
 384              		.cfi_offset 3, -8
 385              		.cfi_offset 14, -4
  76:Core/Src/light_logic.c ****     if((bits&LED2324) == 0){
 386              		.loc 1 76 5 is_stmt 1 view .LVU91
 387              		.loc 1 76 7 is_stmt 0 view .LVU92
 388 0002 10F4005F 		tst	r0, #8192
 389 0006 05D1     		bne	.L30
  77:Core/Src/light_logic.c ****         bits = SR_bitadj(bits, LED2324, LED2324);
 390              		.loc 1 77 9 is_stmt 1 view .LVU93
 391              		.loc 1 77 16 is_stmt 0 view .LVU94
 392 0008 4FF40052 		mov	r2, #8192
 393 000c 1146     		mov	r1, r2
 394 000e FFF7FEFF 		bl	SR_bitadj
 395              	.LVL40:
 396              	.L29:
  78:Core/Src/light_logic.c ****     }else{
  79:Core/Src/light_logic.c ****         bits = SR_bitadj(bits, 0, LED2324);
  80:Core/Src/light_logic.c ****     }
  81:Core/Src/light_logic.c ****     return bits;
  82:Core/Src/light_logic.c **** }
 397              		.loc 1 82 1 view .LVU95
 398 0012 08BD     		pop	{r3, pc}
 399              	.L30:
  79:Core/Src/light_logic.c ****     }
 400              		.loc 1 79 9 is_stmt 1 view .LVU96
  79:Core/Src/light_logic.c ****     }
 401              		.loc 1 79 16 is_stmt 0 view .LVU97
 402 0014 4FF40052 		mov	r2, #8192
 403 0018 0021     		movs	r1, #0
 404 001a FFF7FEFF 		bl	SR_bitadj
 405              	.LVL41:
  81:Core/Src/light_logic.c **** }
 406              		.loc 1 81 5 is_stmt 1 view .LVU98
  81:Core/Src/light_logic.c **** }
 407              		.loc 1 81 12 is_stmt 0 view .LVU99
 408 001e F8E7     		b	.L29
ARM GAS  C:\Users\ehgre\AppData\Local\Temp\ccCiQ1bO.s 			page 10


 409              		.cfi_endproc
 410              	.LFE327:
 412              		.section	.text.TL1_Red,"ax",%progbits
 413              		.align	1
 414              		.global	TL1_Red
 415              		.syntax unified
 416              		.thumb
 417              		.thumb_func
 419              	TL1_Red:
 420              	.LVL42:
 421              	.LFB328:
  83:Core/Src/light_logic.c **** 
  84:Core/Src/light_logic.c **** uint32_t TL1_Red(uint32_t bits, bool activated){ 
 422              		.loc 1 84 48 is_stmt 1 view -0
 423              		.cfi_startproc
 424              		@ args = 0, pretend = 0, frame = 0
 425              		@ frame_needed = 0, uses_anonymous_args = 0
 426              		.loc 1 84 48 is_stmt 0 view .LVU101
 427 0000 08B5     		push	{r3, lr}
 428              	.LCFI8:
 429              		.cfi_def_cfa_offset 8
 430              		.cfi_offset 3, -8
 431              		.cfi_offset 14, -4
  85:Core/Src/light_logic.c ****     if(activated){
 432              		.loc 1 85 5 is_stmt 1 view .LVU102
 433              		.loc 1 85 7 is_stmt 0 view .LVU103
 434 0002 29B1     		cbz	r1, .L34
  86:Core/Src/light_logic.c ****         bits = SR_bitadj(bits, LED1, LED1);
 435              		.loc 1 86 9 is_stmt 1 view .LVU104
 436              		.loc 1 86 16 is_stmt 0 view .LVU105
 437 0004 4FF48032 		mov	r2, #65536
 438 0008 1146     		mov	r1, r2
 439              	.LVL43:
 440              		.loc 1 86 16 view .LVU106
 441 000a FFF7FEFF 		bl	SR_bitadj
 442              	.LVL44:
 443              	.L33:
  87:Core/Src/light_logic.c ****     }else{
  88:Core/Src/light_logic.c ****         bits = SR_bitadj(bits, 0, LED1);
  89:Core/Src/light_logic.c ****     }
  90:Core/Src/light_logic.c ****     return bits;
  91:Core/Src/light_logic.c **** }
 444              		.loc 1 91 1 view .LVU107
 445 000e 08BD     		pop	{r3, pc}
 446              	.LVL45:
 447              	.L34:
  88:Core/Src/light_logic.c ****     }
 448              		.loc 1 88 9 is_stmt 1 view .LVU108
  88:Core/Src/light_logic.c ****     }
 449              		.loc 1 88 16 is_stmt 0 view .LVU109
 450 0010 4FF48032 		mov	r2, #65536
 451 0014 0021     		movs	r1, #0
 452              	.LVL46:
  88:Core/Src/light_logic.c ****     }
 453              		.loc 1 88 16 view .LVU110
 454 0016 FFF7FEFF 		bl	SR_bitadj
 455              	.LVL47:
ARM GAS  C:\Users\ehgre\AppData\Local\Temp\ccCiQ1bO.s 			page 11


  90:Core/Src/light_logic.c **** }
 456              		.loc 1 90 5 is_stmt 1 view .LVU111
  90:Core/Src/light_logic.c **** }
 457              		.loc 1 90 12 is_stmt 0 view .LVU112
 458 001a F8E7     		b	.L33
 459              		.cfi_endproc
 460              	.LFE328:
 462              		.section	.text.TL1_Yellow,"ax",%progbits
 463              		.align	1
 464              		.global	TL1_Yellow
 465              		.syntax unified
 466              		.thumb
 467              		.thumb_func
 469              	TL1_Yellow:
 470              	.LVL48:
 471              	.LFB329:
  92:Core/Src/light_logic.c **** 
  93:Core/Src/light_logic.c **** uint32_t TL1_Yellow(uint32_t bits, bool activated){ 
 472              		.loc 1 93 51 is_stmt 1 view -0
 473              		.cfi_startproc
 474              		@ args = 0, pretend = 0, frame = 0
 475              		@ frame_needed = 0, uses_anonymous_args = 0
 476              		.loc 1 93 51 is_stmt 0 view .LVU114
 477 0000 08B5     		push	{r3, lr}
 478              	.LCFI9:
 479              		.cfi_def_cfa_offset 8
 480              		.cfi_offset 3, -8
 481              		.cfi_offset 14, -4
  94:Core/Src/light_logic.c ****     if(activated){
 482              		.loc 1 94 5 is_stmt 1 view .LVU115
 483              		.loc 1 94 7 is_stmt 0 view .LVU116
 484 0002 29B1     		cbz	r1, .L38
  95:Core/Src/light_logic.c ****         bits = SR_bitadj(bits, LED2, LED2);
 485              		.loc 1 95 9 is_stmt 1 view .LVU117
 486              		.loc 1 95 16 is_stmt 0 view .LVU118
 487 0004 4FF40032 		mov	r2, #131072
 488 0008 1146     		mov	r1, r2
 489              	.LVL49:
 490              		.loc 1 95 16 view .LVU119
 491 000a FFF7FEFF 		bl	SR_bitadj
 492              	.LVL50:
 493              	.L37:
  96:Core/Src/light_logic.c ****     }else{
  97:Core/Src/light_logic.c ****         bits = SR_bitadj(bits, 0, LED2);
  98:Core/Src/light_logic.c ****     }
  99:Core/Src/light_logic.c ****     return bits;
 100:Core/Src/light_logic.c **** }
 494              		.loc 1 100 1 view .LVU120
 495 000e 08BD     		pop	{r3, pc}
 496              	.LVL51:
 497              	.L38:
  97:Core/Src/light_logic.c ****     }
 498              		.loc 1 97 9 is_stmt 1 view .LVU121
  97:Core/Src/light_logic.c ****     }
 499              		.loc 1 97 16 is_stmt 0 view .LVU122
 500 0010 4FF40032 		mov	r2, #131072
 501 0014 0021     		movs	r1, #0
ARM GAS  C:\Users\ehgre\AppData\Local\Temp\ccCiQ1bO.s 			page 12


 502              	.LVL52:
  97:Core/Src/light_logic.c ****     }
 503              		.loc 1 97 16 view .LVU123
 504 0016 FFF7FEFF 		bl	SR_bitadj
 505              	.LVL53:
  99:Core/Src/light_logic.c **** }
 506              		.loc 1 99 5 is_stmt 1 view .LVU124
  99:Core/Src/light_logic.c **** }
 507              		.loc 1 99 12 is_stmt 0 view .LVU125
 508 001a F8E7     		b	.L37
 509              		.cfi_endproc
 510              	.LFE329:
 512              		.section	.text.TL1_Green,"ax",%progbits
 513              		.align	1
 514              		.global	TL1_Green
 515              		.syntax unified
 516              		.thumb
 517              		.thumb_func
 519              	TL1_Green:
 520              	.LVL54:
 521              	.LFB330:
 101:Core/Src/light_logic.c **** 
 102:Core/Src/light_logic.c **** uint32_t TL1_Green(uint32_t bits,bool activated){ 
 522              		.loc 1 102 49 is_stmt 1 view -0
 523              		.cfi_startproc
 524              		@ args = 0, pretend = 0, frame = 0
 525              		@ frame_needed = 0, uses_anonymous_args = 0
 526              		.loc 1 102 49 is_stmt 0 view .LVU127
 527 0000 08B5     		push	{r3, lr}
 528              	.LCFI10:
 529              		.cfi_def_cfa_offset 8
 530              		.cfi_offset 3, -8
 531              		.cfi_offset 14, -4
 103:Core/Src/light_logic.c ****     if(activated){
 532              		.loc 1 103 5 is_stmt 1 view .LVU128
 533              		.loc 1 103 7 is_stmt 0 view .LVU129
 534 0002 29B1     		cbz	r1, .L42
 104:Core/Src/light_logic.c ****         bits = SR_bitadj(bits, LED3, LED3);
 535              		.loc 1 104 9 is_stmt 1 view .LVU130
 536              		.loc 1 104 16 is_stmt 0 view .LVU131
 537 0004 4FF48022 		mov	r2, #262144
 538 0008 1146     		mov	r1, r2
 539              	.LVL55:
 540              		.loc 1 104 16 view .LVU132
 541 000a FFF7FEFF 		bl	SR_bitadj
 542              	.LVL56:
 543              	.L41:
 105:Core/Src/light_logic.c ****     }else{
 106:Core/Src/light_logic.c ****         bits = SR_bitadj(bits, 0, LED3);
 107:Core/Src/light_logic.c ****     }
 108:Core/Src/light_logic.c ****     return bits;
 109:Core/Src/light_logic.c **** }
 544              		.loc 1 109 1 view .LVU133
 545 000e 08BD     		pop	{r3, pc}
 546              	.LVL57:
 547              	.L42:
 106:Core/Src/light_logic.c ****     }
ARM GAS  C:\Users\ehgre\AppData\Local\Temp\ccCiQ1bO.s 			page 13


 548              		.loc 1 106 9 is_stmt 1 view .LVU134
 106:Core/Src/light_logic.c ****     }
 549              		.loc 1 106 16 is_stmt 0 view .LVU135
 550 0010 4FF48022 		mov	r2, #262144
 551 0014 0021     		movs	r1, #0
 552              	.LVL58:
 106:Core/Src/light_logic.c ****     }
 553              		.loc 1 106 16 view .LVU136
 554 0016 FFF7FEFF 		bl	SR_bitadj
 555              	.LVL59:
 108:Core/Src/light_logic.c **** }
 556              		.loc 1 108 5 is_stmt 1 view .LVU137
 108:Core/Src/light_logic.c **** }
 557              		.loc 1 108 12 is_stmt 0 view .LVU138
 558 001a F8E7     		b	.L41
 559              		.cfi_endproc
 560              	.LFE330:
 562              		.section	.text.TL4_Red,"ax",%progbits
 563              		.align	1
 564              		.global	TL4_Red
 565              		.syntax unified
 566              		.thumb
 567              		.thumb_func
 569              	TL4_Red:
 570              	.LVL60:
 571              	.LFB331:
 110:Core/Src/light_logic.c **** 
 111:Core/Src/light_logic.c **** uint32_t TL4_Red(uint32_t bits, bool activated){ 
 572              		.loc 1 111 48 is_stmt 1 view -0
 573              		.cfi_startproc
 574              		@ args = 0, pretend = 0, frame = 0
 575              		@ frame_needed = 0, uses_anonymous_args = 0
 576              		.loc 1 111 48 is_stmt 0 view .LVU140
 577 0000 08B5     		push	{r3, lr}
 578              	.LCFI11:
 579              		.cfi_def_cfa_offset 8
 580              		.cfi_offset 3, -8
 581              		.cfi_offset 14, -4
 112:Core/Src/light_logic.c ****     if(activated){
 582              		.loc 1 112 5 is_stmt 1 view .LVU141
 583              		.loc 1 112 7 is_stmt 0 view .LVU142
 584 0002 21B1     		cbz	r1, .L46
 113:Core/Src/light_logic.c ****         bits = SR_bitadj(bits, LED10, LED10);
 585              		.loc 1 113 9 is_stmt 1 view .LVU143
 586              		.loc 1 113 16 is_stmt 0 view .LVU144
 587 0004 0822     		movs	r2, #8
 588 0006 1146     		mov	r1, r2
 589              	.LVL61:
 590              		.loc 1 113 16 view .LVU145
 591 0008 FFF7FEFF 		bl	SR_bitadj
 592              	.LVL62:
 593              	.L45:
 114:Core/Src/light_logic.c ****     }else{
 115:Core/Src/light_logic.c ****         bits = SR_bitadj(bits, 0, LED10);
 116:Core/Src/light_logic.c ****     }
 117:Core/Src/light_logic.c ****     return bits;
 118:Core/Src/light_logic.c **** }
ARM GAS  C:\Users\ehgre\AppData\Local\Temp\ccCiQ1bO.s 			page 14


 594              		.loc 1 118 1 view .LVU146
 595 000c 08BD     		pop	{r3, pc}
 596              	.LVL63:
 597              	.L46:
 115:Core/Src/light_logic.c ****     }
 598              		.loc 1 115 9 is_stmt 1 view .LVU147
 115:Core/Src/light_logic.c ****     }
 599              		.loc 1 115 16 is_stmt 0 view .LVU148
 600 000e 0822     		movs	r2, #8
 601 0010 0021     		movs	r1, #0
 602              	.LVL64:
 115:Core/Src/light_logic.c ****     }
 603              		.loc 1 115 16 view .LVU149
 604 0012 FFF7FEFF 		bl	SR_bitadj
 605              	.LVL65:
 117:Core/Src/light_logic.c **** }
 606              		.loc 1 117 5 is_stmt 1 view .LVU150
 117:Core/Src/light_logic.c **** }
 607              		.loc 1 117 12 is_stmt 0 view .LVU151
 608 0016 F9E7     		b	.L45
 609              		.cfi_endproc
 610              	.LFE331:
 612              		.section	.text.TL4_Yellow,"ax",%progbits
 613              		.align	1
 614              		.global	TL4_Yellow
 615              		.syntax unified
 616              		.thumb
 617              		.thumb_func
 619              	TL4_Yellow:
 620              	.LVL66:
 621              	.LFB332:
 119:Core/Src/light_logic.c **** 
 120:Core/Src/light_logic.c **** uint32_t TL4_Yellow(uint32_t bits, bool activated){ 
 622              		.loc 1 120 51 is_stmt 1 view -0
 623              		.cfi_startproc
 624              		@ args = 0, pretend = 0, frame = 0
 625              		@ frame_needed = 0, uses_anonymous_args = 0
 626              		.loc 1 120 51 is_stmt 0 view .LVU153
 627 0000 08B5     		push	{r3, lr}
 628              	.LCFI12:
 629              		.cfi_def_cfa_offset 8
 630              		.cfi_offset 3, -8
 631              		.cfi_offset 14, -4
 121:Core/Src/light_logic.c ****     if(activated){
 632              		.loc 1 121 5 is_stmt 1 view .LVU154
 633              		.loc 1 121 7 is_stmt 0 view .LVU155
 634 0002 21B1     		cbz	r1, .L50
 122:Core/Src/light_logic.c ****         bits = SR_bitadj(bits, LED11, LED11);
 635              		.loc 1 122 9 is_stmt 1 view .LVU156
 636              		.loc 1 122 16 is_stmt 0 view .LVU157
 637 0004 1022     		movs	r2, #16
 638 0006 1146     		mov	r1, r2
 639              	.LVL67:
 640              		.loc 1 122 16 view .LVU158
 641 0008 FFF7FEFF 		bl	SR_bitadj
 642              	.LVL68:
 643              	.L49:
ARM GAS  C:\Users\ehgre\AppData\Local\Temp\ccCiQ1bO.s 			page 15


 123:Core/Src/light_logic.c ****     }else{
 124:Core/Src/light_logic.c ****         bits = SR_bitadj(bits, 0, LED11);
 125:Core/Src/light_logic.c ****     }
 126:Core/Src/light_logic.c ****     return bits;
 127:Core/Src/light_logic.c **** }
 644              		.loc 1 127 1 view .LVU159
 645 000c 08BD     		pop	{r3, pc}
 646              	.LVL69:
 647              	.L50:
 124:Core/Src/light_logic.c ****     }
 648              		.loc 1 124 9 is_stmt 1 view .LVU160
 124:Core/Src/light_logic.c ****     }
 649              		.loc 1 124 16 is_stmt 0 view .LVU161
 650 000e 1022     		movs	r2, #16
 651 0010 0021     		movs	r1, #0
 652              	.LVL70:
 124:Core/Src/light_logic.c ****     }
 653              		.loc 1 124 16 view .LVU162
 654 0012 FFF7FEFF 		bl	SR_bitadj
 655              	.LVL71:
 126:Core/Src/light_logic.c **** }
 656              		.loc 1 126 5 is_stmt 1 view .LVU163
 126:Core/Src/light_logic.c **** }
 657              		.loc 1 126 12 is_stmt 0 view .LVU164
 658 0016 F9E7     		b	.L49
 659              		.cfi_endproc
 660              	.LFE332:
 662              		.section	.text.TL4_Green,"ax",%progbits
 663              		.align	1
 664              		.global	TL4_Green
 665              		.syntax unified
 666              		.thumb
 667              		.thumb_func
 669              	TL4_Green:
 670              	.LVL72:
 671              	.LFB333:
 128:Core/Src/light_logic.c **** 
 129:Core/Src/light_logic.c **** uint32_t TL4_Green(uint32_t bits, bool activated){ 
 672              		.loc 1 129 50 is_stmt 1 view -0
 673              		.cfi_startproc
 674              		@ args = 0, pretend = 0, frame = 0
 675              		@ frame_needed = 0, uses_anonymous_args = 0
 676              		.loc 1 129 50 is_stmt 0 view .LVU166
 677 0000 08B5     		push	{r3, lr}
 678              	.LCFI13:
 679              		.cfi_def_cfa_offset 8
 680              		.cfi_offset 3, -8
 681              		.cfi_offset 14, -4
 130:Core/Src/light_logic.c ****     if(activated){
 682              		.loc 1 130 5 is_stmt 1 view .LVU167
 683              		.loc 1 130 7 is_stmt 0 view .LVU168
 684 0002 21B1     		cbz	r1, .L54
 131:Core/Src/light_logic.c ****         bits = SR_bitadj(bits, LED12, LED12);
 685              		.loc 1 131 9 is_stmt 1 view .LVU169
 686              		.loc 1 131 16 is_stmt 0 view .LVU170
 687 0004 2022     		movs	r2, #32
 688 0006 1146     		mov	r1, r2
ARM GAS  C:\Users\ehgre\AppData\Local\Temp\ccCiQ1bO.s 			page 16


 689              	.LVL73:
 690              		.loc 1 131 16 view .LVU171
 691 0008 FFF7FEFF 		bl	SR_bitadj
 692              	.LVL74:
 693              	.L53:
 132:Core/Src/light_logic.c ****     }else{
 133:Core/Src/light_logic.c ****         bits = SR_bitadj(bits, 0, LED12);
 134:Core/Src/light_logic.c ****     }
 135:Core/Src/light_logic.c ****     return bits;
 136:Core/Src/light_logic.c **** }
 694              		.loc 1 136 1 view .LVU172
 695 000c 08BD     		pop	{r3, pc}
 696              	.LVL75:
 697              	.L54:
 133:Core/Src/light_logic.c ****     }
 698              		.loc 1 133 9 is_stmt 1 view .LVU173
 133:Core/Src/light_logic.c ****     }
 699              		.loc 1 133 16 is_stmt 0 view .LVU174
 700 000e 2022     		movs	r2, #32
 701 0010 0021     		movs	r1, #0
 702              	.LVL76:
 133:Core/Src/light_logic.c ****     }
 703              		.loc 1 133 16 view .LVU175
 704 0012 FFF7FEFF 		bl	SR_bitadj
 705              	.LVL77:
 135:Core/Src/light_logic.c **** }
 706              		.loc 1 135 5 is_stmt 1 view .LVU176
 135:Core/Src/light_logic.c **** }
 707              		.loc 1 135 12 is_stmt 0 view .LVU177
 708 0016 F9E7     		b	.L53
 709              		.cfi_endproc
 710              	.LFE333:
 712              		.section	.text.TL2_Red,"ax",%progbits
 713              		.align	1
 714              		.global	TL2_Red
 715              		.syntax unified
 716              		.thumb
 717              		.thumb_func
 719              	TL2_Red:
 720              	.LVL78:
 721              	.LFB334:
 137:Core/Src/light_logic.c **** 
 138:Core/Src/light_logic.c **** uint32_t TL2_Red(uint32_t bits, bool activated){ 
 722              		.loc 1 138 48 is_stmt 1 view -0
 723              		.cfi_startproc
 724              		@ args = 0, pretend = 0, frame = 0
 725              		@ frame_needed = 0, uses_anonymous_args = 0
 726              		.loc 1 138 48 is_stmt 0 view .LVU179
 727 0000 08B5     		push	{r3, lr}
 728              	.LCFI14:
 729              		.cfi_def_cfa_offset 8
 730              		.cfi_offset 3, -8
 731              		.cfi_offset 14, -4
 139:Core/Src/light_logic.c ****     if(activated){
 732              		.loc 1 139 5 is_stmt 1 view .LVU180
 733              		.loc 1 139 7 is_stmt 0 view .LVU181
 734 0002 29B1     		cbz	r1, .L58
ARM GAS  C:\Users\ehgre\AppData\Local\Temp\ccCiQ1bO.s 			page 17


 140:Core/Src/light_logic.c ****         bits = SR_bitadj(bits, LED4, LED4);
 735              		.loc 1 140 9 is_stmt 1 view .LVU182
 736              		.loc 1 140 16 is_stmt 0 view .LVU183
 737 0004 4FF48072 		mov	r2, #256
 738 0008 1146     		mov	r1, r2
 739              	.LVL79:
 740              		.loc 1 140 16 view .LVU184
 741 000a FFF7FEFF 		bl	SR_bitadj
 742              	.LVL80:
 743              	.L57:
 141:Core/Src/light_logic.c ****     }else{
 142:Core/Src/light_logic.c ****         bits = SR_bitadj(bits, 0, LED4);
 143:Core/Src/light_logic.c ****     }
 144:Core/Src/light_logic.c ****     return bits;
 145:Core/Src/light_logic.c **** }
 744              		.loc 1 145 1 view .LVU185
 745 000e 08BD     		pop	{r3, pc}
 746              	.LVL81:
 747              	.L58:
 142:Core/Src/light_logic.c ****     }
 748              		.loc 1 142 9 is_stmt 1 view .LVU186
 142:Core/Src/light_logic.c ****     }
 749              		.loc 1 142 16 is_stmt 0 view .LVU187
 750 0010 4FF48072 		mov	r2, #256
 751 0014 0021     		movs	r1, #0
 752              	.LVL82:
 142:Core/Src/light_logic.c ****     }
 753              		.loc 1 142 16 view .LVU188
 754 0016 FFF7FEFF 		bl	SR_bitadj
 755              	.LVL83:
 144:Core/Src/light_logic.c **** }
 756              		.loc 1 144 5 is_stmt 1 view .LVU189
 144:Core/Src/light_logic.c **** }
 757              		.loc 1 144 12 is_stmt 0 view .LVU190
 758 001a F8E7     		b	.L57
 759              		.cfi_endproc
 760              	.LFE334:
 762              		.section	.text.TL2_Yellow,"ax",%progbits
 763              		.align	1
 764              		.global	TL2_Yellow
 765              		.syntax unified
 766              		.thumb
 767              		.thumb_func
 769              	TL2_Yellow:
 770              	.LVL84:
 771              	.LFB335:
 146:Core/Src/light_logic.c **** 
 147:Core/Src/light_logic.c **** uint32_t TL2_Yellow(uint32_t bits, bool activated){ 
 772              		.loc 1 147 51 is_stmt 1 view -0
 773              		.cfi_startproc
 774              		@ args = 0, pretend = 0, frame = 0
 775              		@ frame_needed = 0, uses_anonymous_args = 0
 776              		.loc 1 147 51 is_stmt 0 view .LVU192
 777 0000 08B5     		push	{r3, lr}
 778              	.LCFI15:
 779              		.cfi_def_cfa_offset 8
 780              		.cfi_offset 3, -8
ARM GAS  C:\Users\ehgre\AppData\Local\Temp\ccCiQ1bO.s 			page 18


 781              		.cfi_offset 14, -4
 148:Core/Src/light_logic.c ****     if(activated){
 782              		.loc 1 148 5 is_stmt 1 view .LVU193
 783              		.loc 1 148 7 is_stmt 0 view .LVU194
 784 0002 29B1     		cbz	r1, .L62
 149:Core/Src/light_logic.c ****         bits = SR_bitadj(bits, LED5, LED5);
 785              		.loc 1 149 9 is_stmt 1 view .LVU195
 786              		.loc 1 149 16 is_stmt 0 view .LVU196
 787 0004 4FF40072 		mov	r2, #512
 788 0008 1146     		mov	r1, r2
 789              	.LVL85:
 790              		.loc 1 149 16 view .LVU197
 791 000a FFF7FEFF 		bl	SR_bitadj
 792              	.LVL86:
 793              	.L61:
 150:Core/Src/light_logic.c ****     }else{
 151:Core/Src/light_logic.c ****         bits = SR_bitadj(bits, 0, LED5);
 152:Core/Src/light_logic.c ****     }
 153:Core/Src/light_logic.c ****     return bits;
 154:Core/Src/light_logic.c **** }
 794              		.loc 1 154 1 view .LVU198
 795 000e 08BD     		pop	{r3, pc}
 796              	.LVL87:
 797              	.L62:
 151:Core/Src/light_logic.c ****     }
 798              		.loc 1 151 9 is_stmt 1 view .LVU199
 151:Core/Src/light_logic.c ****     }
 799              		.loc 1 151 16 is_stmt 0 view .LVU200
 800 0010 4FF40072 		mov	r2, #512
 801 0014 0021     		movs	r1, #0
 802              	.LVL88:
 151:Core/Src/light_logic.c ****     }
 803              		.loc 1 151 16 view .LVU201
 804 0016 FFF7FEFF 		bl	SR_bitadj
 805              	.LVL89:
 153:Core/Src/light_logic.c **** }
 806              		.loc 1 153 5 is_stmt 1 view .LVU202
 153:Core/Src/light_logic.c **** }
 807              		.loc 1 153 12 is_stmt 0 view .LVU203
 808 001a F8E7     		b	.L61
 809              		.cfi_endproc
 810              	.LFE335:
 812              		.section	.text.TL2_Green,"ax",%progbits
 813              		.align	1
 814              		.global	TL2_Green
 815              		.syntax unified
 816              		.thumb
 817              		.thumb_func
 819              	TL2_Green:
 820              	.LVL90:
 821              	.LFB336:
 155:Core/Src/light_logic.c **** 
 156:Core/Src/light_logic.c **** uint32_t TL2_Green(uint32_t bits, bool activated){ 
 822              		.loc 1 156 50 is_stmt 1 view -0
 823              		.cfi_startproc
 824              		@ args = 0, pretend = 0, frame = 0
 825              		@ frame_needed = 0, uses_anonymous_args = 0
ARM GAS  C:\Users\ehgre\AppData\Local\Temp\ccCiQ1bO.s 			page 19


 826              		.loc 1 156 50 is_stmt 0 view .LVU205
 827 0000 08B5     		push	{r3, lr}
 828              	.LCFI16:
 829              		.cfi_def_cfa_offset 8
 830              		.cfi_offset 3, -8
 831              		.cfi_offset 14, -4
 157:Core/Src/light_logic.c ****     if(activated){
 832              		.loc 1 157 5 is_stmt 1 view .LVU206
 833              		.loc 1 157 7 is_stmt 0 view .LVU207
 834 0002 29B1     		cbz	r1, .L66
 158:Core/Src/light_logic.c ****         bits = SR_bitadj(bits, LED6, LED6);
 835              		.loc 1 158 9 is_stmt 1 view .LVU208
 836              		.loc 1 158 16 is_stmt 0 view .LVU209
 837 0004 4FF48062 		mov	r2, #1024
 838 0008 1146     		mov	r1, r2
 839              	.LVL91:
 840              		.loc 1 158 16 view .LVU210
 841 000a FFF7FEFF 		bl	SR_bitadj
 842              	.LVL92:
 843              	.L65:
 159:Core/Src/light_logic.c ****     }else{
 160:Core/Src/light_logic.c ****         bits = SR_bitadj(bits, 0, LED6);
 161:Core/Src/light_logic.c ****     }
 162:Core/Src/light_logic.c ****     return bits;
 163:Core/Src/light_logic.c **** }
 844              		.loc 1 163 1 view .LVU211
 845 000e 08BD     		pop	{r3, pc}
 846              	.LVL93:
 847              	.L66:
 160:Core/Src/light_logic.c ****     }
 848              		.loc 1 160 9 is_stmt 1 view .LVU212
 160:Core/Src/light_logic.c ****     }
 849              		.loc 1 160 16 is_stmt 0 view .LVU213
 850 0010 4FF48062 		mov	r2, #1024
 851 0014 0021     		movs	r1, #0
 852              	.LVL94:
 160:Core/Src/light_logic.c ****     }
 853              		.loc 1 160 16 view .LVU214
 854 0016 FFF7FEFF 		bl	SR_bitadj
 855              	.LVL95:
 162:Core/Src/light_logic.c **** }
 856              		.loc 1 162 5 is_stmt 1 view .LVU215
 162:Core/Src/light_logic.c **** }
 857              		.loc 1 162 12 is_stmt 0 view .LVU216
 858 001a F8E7     		b	.L65
 859              		.cfi_endproc
 860              	.LFE336:
 862              		.section	.text.TL3_Red,"ax",%progbits
 863              		.align	1
 864              		.global	TL3_Red
 865              		.syntax unified
 866              		.thumb
 867              		.thumb_func
 869              	TL3_Red:
 870              	.LVL96:
 871              	.LFB337:
 164:Core/Src/light_logic.c **** 
ARM GAS  C:\Users\ehgre\AppData\Local\Temp\ccCiQ1bO.s 			page 20


 165:Core/Src/light_logic.c **** uint32_t TL3_Red(uint32_t bits, bool activated){ 
 872              		.loc 1 165 48 is_stmt 1 view -0
 873              		.cfi_startproc
 874              		@ args = 0, pretend = 0, frame = 0
 875              		@ frame_needed = 0, uses_anonymous_args = 0
 876              		.loc 1 165 48 is_stmt 0 view .LVU218
 877 0000 08B5     		push	{r3, lr}
 878              	.LCFI17:
 879              		.cfi_def_cfa_offset 8
 880              		.cfi_offset 3, -8
 881              		.cfi_offset 14, -4
 166:Core/Src/light_logic.c ****     if(activated){
 882              		.loc 1 166 5 is_stmt 1 view .LVU219
 883              		.loc 1 166 7 is_stmt 0 view .LVU220
 884 0002 21B1     		cbz	r1, .L70
 167:Core/Src/light_logic.c ****         bits = SR_bitadj(bits, LED7, LED7);
 885              		.loc 1 167 9 is_stmt 1 view .LVU221
 886              		.loc 1 167 16 is_stmt 0 view .LVU222
 887 0004 0122     		movs	r2, #1
 888 0006 1146     		mov	r1, r2
 889              	.LVL97:
 890              		.loc 1 167 16 view .LVU223
 891 0008 FFF7FEFF 		bl	SR_bitadj
 892              	.LVL98:
 893              	.L69:
 168:Core/Src/light_logic.c ****     }else{
 169:Core/Src/light_logic.c ****         bits = SR_bitadj(bits, 0, LED7);
 170:Core/Src/light_logic.c ****     }
 171:Core/Src/light_logic.c ****     return bits;
 172:Core/Src/light_logic.c **** }
 894              		.loc 1 172 1 view .LVU224
 895 000c 08BD     		pop	{r3, pc}
 896              	.LVL99:
 897              	.L70:
 169:Core/Src/light_logic.c ****     }
 898              		.loc 1 169 9 is_stmt 1 view .LVU225
 169:Core/Src/light_logic.c ****     }
 899              		.loc 1 169 16 is_stmt 0 view .LVU226
 900 000e 0122     		movs	r2, #1
 901 0010 0021     		movs	r1, #0
 902              	.LVL100:
 169:Core/Src/light_logic.c ****     }
 903              		.loc 1 169 16 view .LVU227
 904 0012 FFF7FEFF 		bl	SR_bitadj
 905              	.LVL101:
 171:Core/Src/light_logic.c **** }
 906              		.loc 1 171 5 is_stmt 1 view .LVU228
 171:Core/Src/light_logic.c **** }
 907              		.loc 1 171 12 is_stmt 0 view .LVU229
 908 0016 F9E7     		b	.L69
 909              		.cfi_endproc
 910              	.LFE337:
 912              		.section	.text.TL3_Yellow,"ax",%progbits
 913              		.align	1
 914              		.global	TL3_Yellow
 915              		.syntax unified
 916              		.thumb
ARM GAS  C:\Users\ehgre\AppData\Local\Temp\ccCiQ1bO.s 			page 21


 917              		.thumb_func
 919              	TL3_Yellow:
 920              	.LVL102:
 921              	.LFB338:
 173:Core/Src/light_logic.c **** 
 174:Core/Src/light_logic.c **** uint32_t TL3_Yellow(uint32_t bits, bool activated){ 
 922              		.loc 1 174 51 is_stmt 1 view -0
 923              		.cfi_startproc
 924              		@ args = 0, pretend = 0, frame = 0
 925              		@ frame_needed = 0, uses_anonymous_args = 0
 926              		.loc 1 174 51 is_stmt 0 view .LVU231
 927 0000 08B5     		push	{r3, lr}
 928              	.LCFI18:
 929              		.cfi_def_cfa_offset 8
 930              		.cfi_offset 3, -8
 931              		.cfi_offset 14, -4
 175:Core/Src/light_logic.c ****     if(activated){
 932              		.loc 1 175 5 is_stmt 1 view .LVU232
 933              		.loc 1 175 7 is_stmt 0 view .LVU233
 934 0002 21B1     		cbz	r1, .L74
 176:Core/Src/light_logic.c ****         bits = SR_bitadj(bits, LED8, LED8);
 935              		.loc 1 176 9 is_stmt 1 view .LVU234
 936              		.loc 1 176 16 is_stmt 0 view .LVU235
 937 0004 0222     		movs	r2, #2
 938 0006 1146     		mov	r1, r2
 939              	.LVL103:
 940              		.loc 1 176 16 view .LVU236
 941 0008 FFF7FEFF 		bl	SR_bitadj
 942              	.LVL104:
 943              	.L73:
 177:Core/Src/light_logic.c ****     }else{
 178:Core/Src/light_logic.c ****         bits = SR_bitadj(bits, 0, LED8);
 179:Core/Src/light_logic.c ****     }
 180:Core/Src/light_logic.c ****     return bits;
 181:Core/Src/light_logic.c **** }
 944              		.loc 1 181 1 view .LVU237
 945 000c 08BD     		pop	{r3, pc}
 946              	.LVL105:
 947              	.L74:
 178:Core/Src/light_logic.c ****     }
 948              		.loc 1 178 9 is_stmt 1 view .LVU238
 178:Core/Src/light_logic.c ****     }
 949              		.loc 1 178 16 is_stmt 0 view .LVU239
 950 000e 0222     		movs	r2, #2
 951 0010 0021     		movs	r1, #0
 952              	.LVL106:
 178:Core/Src/light_logic.c ****     }
 953              		.loc 1 178 16 view .LVU240
 954 0012 FFF7FEFF 		bl	SR_bitadj
 955              	.LVL107:
 180:Core/Src/light_logic.c **** }
 956              		.loc 1 180 5 is_stmt 1 view .LVU241
 180:Core/Src/light_logic.c **** }
 957              		.loc 1 180 12 is_stmt 0 view .LVU242
 958 0016 F9E7     		b	.L73
 959              		.cfi_endproc
 960              	.LFE338:
ARM GAS  C:\Users\ehgre\AppData\Local\Temp\ccCiQ1bO.s 			page 22


 962              		.section	.text.TL3_Green,"ax",%progbits
 963              		.align	1
 964              		.global	TL3_Green
 965              		.syntax unified
 966              		.thumb
 967              		.thumb_func
 969              	TL3_Green:
 970              	.LVL108:
 971              	.LFB339:
 182:Core/Src/light_logic.c **** 
 183:Core/Src/light_logic.c **** uint32_t TL3_Green(uint32_t bits, bool activated){ 
 972              		.loc 1 183 50 is_stmt 1 view -0
 973              		.cfi_startproc
 974              		@ args = 0, pretend = 0, frame = 0
 975              		@ frame_needed = 0, uses_anonymous_args = 0
 976              		.loc 1 183 50 is_stmt 0 view .LVU244
 977 0000 08B5     		push	{r3, lr}
 978              	.LCFI19:
 979              		.cfi_def_cfa_offset 8
 980              		.cfi_offset 3, -8
 981              		.cfi_offset 14, -4
 184:Core/Src/light_logic.c ****     if(activated){
 982              		.loc 1 184 5 is_stmt 1 view .LVU245
 983              		.loc 1 184 7 is_stmt 0 view .LVU246
 984 0002 21B1     		cbz	r1, .L78
 185:Core/Src/light_logic.c ****         bits = SR_bitadj(bits, LED9, LED9);
 985              		.loc 1 185 9 is_stmt 1 view .LVU247
 986              		.loc 1 185 16 is_stmt 0 view .LVU248
 987 0004 0422     		movs	r2, #4
 988 0006 1146     		mov	r1, r2
 989              	.LVL109:
 990              		.loc 1 185 16 view .LVU249
 991 0008 FFF7FEFF 		bl	SR_bitadj
 992              	.LVL110:
 993              	.L77:
 186:Core/Src/light_logic.c ****     }else{
 187:Core/Src/light_logic.c ****         bits = SR_bitadj(bits, 0, LED9);
 188:Core/Src/light_logic.c ****     }
 189:Core/Src/light_logic.c ****     return bits;
 190:Core/Src/light_logic.c **** }
 994              		.loc 1 190 1 view .LVU250
 995 000c 08BD     		pop	{r3, pc}
 996              	.LVL111:
 997              	.L78:
 187:Core/Src/light_logic.c ****     }
 998              		.loc 1 187 9 is_stmt 1 view .LVU251
 187:Core/Src/light_logic.c ****     }
 999              		.loc 1 187 16 is_stmt 0 view .LVU252
 1000 000e 0422     		movs	r2, #4
 1001 0010 0021     		movs	r1, #0
 1002              	.LVL112:
 187:Core/Src/light_logic.c ****     }
 1003              		.loc 1 187 16 view .LVU253
 1004 0012 FFF7FEFF 		bl	SR_bitadj
 1005              	.LVL113:
 189:Core/Src/light_logic.c **** }
 1006              		.loc 1 189 5 is_stmt 1 view .LVU254
ARM GAS  C:\Users\ehgre\AppData\Local\Temp\ccCiQ1bO.s 			page 23


 189:Core/Src/light_logic.c **** }
 1007              		.loc 1 189 12 is_stmt 0 view .LVU255
 1008 0016 F9E7     		b	.L77
 1009              		.cfi_endproc
 1010              	.LFE339:
 1012              		.section	.text.TL1_isGreen,"ax",%progbits
 1013              		.align	1
 1014              		.global	TL1_isGreen
 1015              		.syntax unified
 1016              		.thumb
 1017              		.thumb_func
 1019              	TL1_isGreen:
 1020              	.LVL114:
 1021              	.LFB340:
 191:Core/Src/light_logic.c **** 
 192:Core/Src/light_logic.c **** bool TL1_isGreen(uint32_t bits){
 1022              		.loc 1 192 32 is_stmt 1 view -0
 1023              		.cfi_startproc
 1024              		@ args = 0, pretend = 0, frame = 0
 1025              		@ frame_needed = 0, uses_anonymous_args = 0
 1026              		@ link register save eliminated.
 193:Core/Src/light_logic.c ****     if((bits&LED3) > 0){
 1027              		.loc 1 193 5 view .LVU257
 1028              		.loc 1 193 7 is_stmt 0 view .LVU258
 1029 0000 10F4802F 		tst	r0, #262144
 1030 0004 01D1     		bne	.L83
 194:Core/Src/light_logic.c ****         return true;
 195:Core/Src/light_logic.c ****     }
 196:Core/Src/light_logic.c ****     return false;
 1031              		.loc 1 196 12 view .LVU259
 1032 0006 0020     		movs	r0, #0
 1033              	.LVL115:
 1034              		.loc 1 196 12 view .LVU260
 1035 0008 7047     		bx	lr
 1036              	.LVL116:
 1037              	.L83:
 194:Core/Src/light_logic.c ****         return true;
 1038              		.loc 1 194 16 view .LVU261
 1039 000a 0120     		movs	r0, #1
 1040              	.LVL117:
 197:Core/Src/light_logic.c **** }
 1041              		.loc 1 197 1 view .LVU262
 1042 000c 7047     		bx	lr
 1043              		.cfi_endproc
 1044              	.LFE340:
 1046              		.section	.text.TL1_isRed,"ax",%progbits
 1047              		.align	1
 1048              		.global	TL1_isRed
 1049              		.syntax unified
 1050              		.thumb
 1051              		.thumb_func
 1053              	TL1_isRed:
 1054              	.LVL118:
 1055              	.LFB341:
 198:Core/Src/light_logic.c **** 
 199:Core/Src/light_logic.c **** bool TL1_isRed(uint32_t bits){
 1056              		.loc 1 199 30 is_stmt 1 view -0
ARM GAS  C:\Users\ehgre\AppData\Local\Temp\ccCiQ1bO.s 			page 24


 1057              		.cfi_startproc
 1058              		@ args = 0, pretend = 0, frame = 0
 1059              		@ frame_needed = 0, uses_anonymous_args = 0
 1060              		@ link register save eliminated.
 200:Core/Src/light_logic.c ****     if((bits&LED1) > 0){
 1061              		.loc 1 200 5 view .LVU264
 1062              		.loc 1 200 7 is_stmt 0 view .LVU265
 1063 0000 10F4803F 		tst	r0, #65536
 1064 0004 01D1     		bne	.L86
 201:Core/Src/light_logic.c ****         return true;
 202:Core/Src/light_logic.c ****     }
 203:Core/Src/light_logic.c ****     return false;
 1065              		.loc 1 203 12 view .LVU266
 1066 0006 0020     		movs	r0, #0
 1067              	.LVL119:
 1068              		.loc 1 203 12 view .LVU267
 1069 0008 7047     		bx	lr
 1070              	.LVL120:
 1071              	.L86:
 201:Core/Src/light_logic.c ****         return true;
 1072              		.loc 1 201 16 view .LVU268
 1073 000a 0120     		movs	r0, #1
 1074              	.LVL121:
 204:Core/Src/light_logic.c **** }
 1075              		.loc 1 204 1 view .LVU269
 1076 000c 7047     		bx	lr
 1077              		.cfi_endproc
 1078              	.LFE341:
 1080              		.section	.text.TL2_isGreen,"ax",%progbits
 1081              		.align	1
 1082              		.global	TL2_isGreen
 1083              		.syntax unified
 1084              		.thumb
 1085              		.thumb_func
 1087              	TL2_isGreen:
 1088              	.LVL122:
 1089              	.LFB342:
 205:Core/Src/light_logic.c **** 
 206:Core/Src/light_logic.c **** bool TL2_isGreen(uint32_t bits){
 1090              		.loc 1 206 32 is_stmt 1 view -0
 1091              		.cfi_startproc
 1092              		@ args = 0, pretend = 0, frame = 0
 1093              		@ frame_needed = 0, uses_anonymous_args = 0
 1094              		@ link register save eliminated.
 207:Core/Src/light_logic.c ****     if((bits&LED4) > 0){
 1095              		.loc 1 207 5 view .LVU271
 1096              		.loc 1 207 7 is_stmt 0 view .LVU272
 1097 0000 10F4807F 		tst	r0, #256
 1098 0004 01D1     		bne	.L89
 208:Core/Src/light_logic.c ****         return true;
 209:Core/Src/light_logic.c ****     }
 210:Core/Src/light_logic.c ****     return false;
 1099              		.loc 1 210 12 view .LVU273
 1100 0006 0020     		movs	r0, #0
 1101              	.LVL123:
 1102              		.loc 1 210 12 view .LVU274
 1103 0008 7047     		bx	lr
ARM GAS  C:\Users\ehgre\AppData\Local\Temp\ccCiQ1bO.s 			page 25


 1104              	.LVL124:
 1105              	.L89:
 208:Core/Src/light_logic.c ****         return true;
 1106              		.loc 1 208 16 view .LVU275
 1107 000a 0120     		movs	r0, #1
 1108              	.LVL125:
 211:Core/Src/light_logic.c **** }
 1109              		.loc 1 211 1 view .LVU276
 1110 000c 7047     		bx	lr
 1111              		.cfi_endproc
 1112              	.LFE342:
 1114              		.section	.text.TL2_isRed,"ax",%progbits
 1115              		.align	1
 1116              		.global	TL2_isRed
 1117              		.syntax unified
 1118              		.thumb
 1119              		.thumb_func
 1121              	TL2_isRed:
 1122              	.LVL126:
 1123              	.LFB343:
 212:Core/Src/light_logic.c **** 
 213:Core/Src/light_logic.c **** bool TL2_isRed(uint32_t bits){
 1124              		.loc 1 213 30 is_stmt 1 view -0
 1125              		.cfi_startproc
 1126              		@ args = 0, pretend = 0, frame = 0
 1127              		@ frame_needed = 0, uses_anonymous_args = 0
 1128              		@ link register save eliminated.
 214:Core/Src/light_logic.c ****     if((bits&LED6) > 0){
 1129              		.loc 1 214 5 view .LVU278
 1130              		.loc 1 214 7 is_stmt 0 view .LVU279
 1131 0000 10F4806F 		tst	r0, #1024
 1132 0004 01D1     		bne	.L92
 215:Core/Src/light_logic.c ****         return true;
 216:Core/Src/light_logic.c ****     }
 217:Core/Src/light_logic.c ****     return false;
 1133              		.loc 1 217 12 view .LVU280
 1134 0006 0020     		movs	r0, #0
 1135              	.LVL127:
 1136              		.loc 1 217 12 view .LVU281
 1137 0008 7047     		bx	lr
 1138              	.LVL128:
 1139              	.L92:
 215:Core/Src/light_logic.c ****         return true;
 1140              		.loc 1 215 16 view .LVU282
 1141 000a 0120     		movs	r0, #1
 1142              	.LVL129:
 218:Core/Src/light_logic.c **** }
 1143              		.loc 1 218 1 view .LVU283
 1144 000c 7047     		bx	lr
 1145              		.cfi_endproc
 1146              	.LFE343:
 1148              		.section	.text.TL3_isGreen,"ax",%progbits
 1149              		.align	1
 1150              		.global	TL3_isGreen
 1151              		.syntax unified
 1152              		.thumb
 1153              		.thumb_func
ARM GAS  C:\Users\ehgre\AppData\Local\Temp\ccCiQ1bO.s 			page 26


 1155              	TL3_isGreen:
 1156              	.LVL130:
 1157              	.LFB344:
 219:Core/Src/light_logic.c **** 
 220:Core/Src/light_logic.c **** bool TL3_isGreen(uint32_t bits){
 1158              		.loc 1 220 32 is_stmt 1 view -0
 1159              		.cfi_startproc
 1160              		@ args = 0, pretend = 0, frame = 0
 1161              		@ frame_needed = 0, uses_anonymous_args = 0
 1162              		@ link register save eliminated.
 221:Core/Src/light_logic.c ****     if((bits&LED9) > 0){
 1163              		.loc 1 221 5 view .LVU285
 1164              		.loc 1 221 7 is_stmt 0 view .LVU286
 1165 0000 10F0040F 		tst	r0, #4
 1166 0004 01D1     		bne	.L95
 222:Core/Src/light_logic.c ****         return true;
 223:Core/Src/light_logic.c ****     }
 224:Core/Src/light_logic.c ****     return false;
 1167              		.loc 1 224 12 view .LVU287
 1168 0006 0020     		movs	r0, #0
 1169              	.LVL131:
 1170              		.loc 1 224 12 view .LVU288
 1171 0008 7047     		bx	lr
 1172              	.LVL132:
 1173              	.L95:
 222:Core/Src/light_logic.c ****         return true;
 1174              		.loc 1 222 16 view .LVU289
 1175 000a 0120     		movs	r0, #1
 1176              	.LVL133:
 225:Core/Src/light_logic.c **** }
 1177              		.loc 1 225 1 view .LVU290
 1178 000c 7047     		bx	lr
 1179              		.cfi_endproc
 1180              	.LFE344:
 1182              		.section	.text.TL3_isRed,"ax",%progbits
 1183              		.align	1
 1184              		.global	TL3_isRed
 1185              		.syntax unified
 1186              		.thumb
 1187              		.thumb_func
 1189              	TL3_isRed:
 1190              	.LVL134:
 1191              	.LFB345:
 226:Core/Src/light_logic.c **** 
 227:Core/Src/light_logic.c **** bool TL3_isRed(uint32_t bits){
 1192              		.loc 1 227 30 is_stmt 1 view -0
 1193              		.cfi_startproc
 1194              		@ args = 0, pretend = 0, frame = 0
 1195              		@ frame_needed = 0, uses_anonymous_args = 0
 1196              		@ link register save eliminated.
 228:Core/Src/light_logic.c ****     if((bits&LED7) > 0){
 1197              		.loc 1 228 5 view .LVU292
 1198              		.loc 1 228 7 is_stmt 0 view .LVU293
 1199 0000 10F0010F 		tst	r0, #1
 1200 0004 01D1     		bne	.L98
 229:Core/Src/light_logic.c ****         return true;
 230:Core/Src/light_logic.c ****     }
ARM GAS  C:\Users\ehgre\AppData\Local\Temp\ccCiQ1bO.s 			page 27


 231:Core/Src/light_logic.c ****     return false;
 1201              		.loc 1 231 12 view .LVU294
 1202 0006 0020     		movs	r0, #0
 1203              	.LVL135:
 1204              		.loc 1 231 12 view .LVU295
 1205 0008 7047     		bx	lr
 1206              	.LVL136:
 1207              	.L98:
 229:Core/Src/light_logic.c ****         return true;
 1208              		.loc 1 229 16 view .LVU296
 1209 000a 0120     		movs	r0, #1
 1210              	.LVL137:
 232:Core/Src/light_logic.c **** }
 1211              		.loc 1 232 1 view .LVU297
 1212 000c 7047     		bx	lr
 1213              		.cfi_endproc
 1214              	.LFE345:
 1216              		.section	.text.TL4_isGreen,"ax",%progbits
 1217              		.align	1
 1218              		.global	TL4_isGreen
 1219              		.syntax unified
 1220              		.thumb
 1221              		.thumb_func
 1223              	TL4_isGreen:
 1224              	.LVL138:
 1225              	.LFB346:
 233:Core/Src/light_logic.c **** 
 234:Core/Src/light_logic.c **** bool TL4_isGreen(uint32_t bits){
 1226              		.loc 1 234 32 is_stmt 1 view -0
 1227              		.cfi_startproc
 1228              		@ args = 0, pretend = 0, frame = 0
 1229              		@ frame_needed = 0, uses_anonymous_args = 0
 1230              		@ link register save eliminated.
 235:Core/Src/light_logic.c ****     if((bits&LED12) > 0){
 1231              		.loc 1 235 5 view .LVU299
 1232              		.loc 1 235 7 is_stmt 0 view .LVU300
 1233 0000 10F0200F 		tst	r0, #32
 1234 0004 01D1     		bne	.L101
 236:Core/Src/light_logic.c ****         return true;
 237:Core/Src/light_logic.c ****     }
 238:Core/Src/light_logic.c ****     return false;
 1235              		.loc 1 238 12 view .LVU301
 1236 0006 0020     		movs	r0, #0
 1237              	.LVL139:
 1238              		.loc 1 238 12 view .LVU302
 1239 0008 7047     		bx	lr
 1240              	.LVL140:
 1241              	.L101:
 236:Core/Src/light_logic.c ****         return true;
 1242              		.loc 1 236 16 view .LVU303
 1243 000a 0120     		movs	r0, #1
 1244              	.LVL141:
 239:Core/Src/light_logic.c **** }
 1245              		.loc 1 239 1 view .LVU304
 1246 000c 7047     		bx	lr
 1247              		.cfi_endproc
 1248              	.LFE346:
ARM GAS  C:\Users\ehgre\AppData\Local\Temp\ccCiQ1bO.s 			page 28


 1250              		.section	.text.TL4_isRed,"ax",%progbits
 1251              		.align	1
 1252              		.global	TL4_isRed
 1253              		.syntax unified
 1254              		.thumb
 1255              		.thumb_func
 1257              	TL4_isRed:
 1258              	.LVL142:
 1259              	.LFB347:
 240:Core/Src/light_logic.c **** 
 241:Core/Src/light_logic.c **** bool TL4_isRed(uint32_t bits){
 1260              		.loc 1 241 30 is_stmt 1 view -0
 1261              		.cfi_startproc
 1262              		@ args = 0, pretend = 0, frame = 0
 1263              		@ frame_needed = 0, uses_anonymous_args = 0
 1264              		@ link register save eliminated.
 242:Core/Src/light_logic.c ****     if((bits&LED10) > 0){
 1265              		.loc 1 242 5 view .LVU306
 1266              		.loc 1 242 7 is_stmt 0 view .LVU307
 1267 0000 10F0080F 		tst	r0, #8
 1268 0004 01D1     		bne	.L104
 243:Core/Src/light_logic.c ****         return true;
 244:Core/Src/light_logic.c ****     }
 245:Core/Src/light_logic.c ****     return false;
 1269              		.loc 1 245 12 view .LVU308
 1270 0006 0020     		movs	r0, #0
 1271              	.LVL143:
 1272              		.loc 1 245 12 view .LVU309
 1273 0008 7047     		bx	lr
 1274              	.LVL144:
 1275              	.L104:
 243:Core/Src/light_logic.c ****         return true;
 1276              		.loc 1 243 16 view .LVU310
 1277 000a 0120     		movs	r0, #1
 1278              	.LVL145:
 246:Core/Src/light_logic.c **** }
 1279              		.loc 1 246 1 view .LVU311
 1280 000c 7047     		bx	lr
 1281              		.cfi_endproc
 1282              	.LFE347:
 1284              		.section	.text.Init_Task1,"ax",%progbits
 1285              		.align	1
 1286              		.global	Init_Task1
 1287              		.syntax unified
 1288              		.thumb
 1289              		.thumb_func
 1291              	Init_Task1:
 1292              	.LVL146:
 1293              	.LFB348:
 247:Core/Src/light_logic.c **** 
 248:Core/Src/light_logic.c **** uint32_t Init_Task1(uint32_t bits){
 1294              		.loc 1 248 35 is_stmt 1 view -0
 1295              		.cfi_startproc
 1296              		@ args = 0, pretend = 0, frame = 0
 1297              		@ frame_needed = 0, uses_anonymous_args = 0
 1298              		.loc 1 248 35 is_stmt 0 view .LVU313
 1299 0000 08B5     		push	{r3, lr}
ARM GAS  C:\Users\ehgre\AppData\Local\Temp\ccCiQ1bO.s 			page 29


 1300              	.LCFI20:
 1301              		.cfi_def_cfa_offset 8
 1302              		.cfi_offset 3, -8
 1303              		.cfi_offset 14, -4
 249:Core/Src/light_logic.c ****     bits = SR_bitset(0);
 1304              		.loc 1 249 5 is_stmt 1 view .LVU314
 1305              		.loc 1 249 12 is_stmt 0 view .LVU315
 1306 0002 0020     		movs	r0, #0
 1307              	.LVL147:
 1308              		.loc 1 249 12 view .LVU316
 1309 0004 FFF7FEFF 		bl	SR_bitset
 1310              	.LVL148:
 250:Core/Src/light_logic.c **** 
 251:Core/Src/light_logic.c ****     bits = TL2_Green(bits, true);
 1311              		.loc 1 251 5 is_stmt 1 view .LVU317
 1312              		.loc 1 251 12 is_stmt 0 view .LVU318
 1313 0008 0121     		movs	r1, #1
 1314 000a FFF7FEFF 		bl	TL2_Green
 1315              	.LVL149:
 252:Core/Src/light_logic.c **** 
 253:Core/Src/light_logic.c ****     bits = TL4_Green(bits, true);
 1316              		.loc 1 253 5 is_stmt 1 view .LVU319
 1317              		.loc 1 253 12 is_stmt 0 view .LVU320
 1318 000e 0121     		movs	r1, #1
 1319 0010 FFF7FEFF 		bl	TL4_Green
 1320              	.LVL150:
 254:Core/Src/light_logic.c **** 
 255:Core/Src/light_logic.c ****     bits = PL2_Red(bits, true);
 1321              		.loc 1 255 5 is_stmt 1 view .LVU321
 1322              		.loc 1 255 12 is_stmt 0 view .LVU322
 1323 0014 0121     		movs	r1, #1
 1324 0016 FFF7FEFF 		bl	PL2_Red
 1325              	.LVL151:
 256:Core/Src/light_logic.c **** 
 257:Core/Src/light_logic.c ****     return bits;
 1326              		.loc 1 257 5 is_stmt 1 view .LVU323
 258:Core/Src/light_logic.c **** }
 1327              		.loc 1 258 1 is_stmt 0 view .LVU324
 1328 001a 08BD     		pop	{r3, pc}
 1329              		.cfi_endproc
 1330              	.LFE348:
 1332              		.section	.text.Init_Task2,"ax",%progbits
 1333              		.align	1
 1334              		.global	Init_Task2
 1335              		.syntax unified
 1336              		.thumb
 1337              		.thumb_func
 1339              	Init_Task2:
 1340              	.LVL152:
 1341              	.LFB349:
 259:Core/Src/light_logic.c **** 
 260:Core/Src/light_logic.c **** uint32_t Init_Task2(uint32_t bits){
 1342              		.loc 1 260 35 is_stmt 1 view -0
 1343              		.cfi_startproc
 1344              		@ args = 0, pretend = 0, frame = 0
 1345              		@ frame_needed = 0, uses_anonymous_args = 0
 1346              		.loc 1 260 35 is_stmt 0 view .LVU326
ARM GAS  C:\Users\ehgre\AppData\Local\Temp\ccCiQ1bO.s 			page 30


 1347 0000 08B5     		push	{r3, lr}
 1348              	.LCFI21:
 1349              		.cfi_def_cfa_offset 8
 1350              		.cfi_offset 3, -8
 1351              		.cfi_offset 14, -4
 261:Core/Src/light_logic.c ****     bits = SR_bitset(0);
 1352              		.loc 1 261 5 is_stmt 1 view .LVU327
 1353              		.loc 1 261 12 is_stmt 0 view .LVU328
 1354 0002 0020     		movs	r0, #0
 1355              	.LVL153:
 1356              		.loc 1 261 12 view .LVU329
 1357 0004 FFF7FEFF 		bl	SR_bitset
 1358              	.LVL154:
 262:Core/Src/light_logic.c **** 
 263:Core/Src/light_logic.c ****     bits = TL1_Red(bits, true);
 1359              		.loc 1 263 5 is_stmt 1 view .LVU330
 1360              		.loc 1 263 12 is_stmt 0 view .LVU331
 1361 0008 0121     		movs	r1, #1
 1362 000a FFF7FEFF 		bl	TL1_Red
 1363              	.LVL155:
 264:Core/Src/light_logic.c **** 
 265:Core/Src/light_logic.c ****     bits = TL2_Green(bits, true);
 1364              		.loc 1 265 5 is_stmt 1 view .LVU332
 1365              		.loc 1 265 12 is_stmt 0 view .LVU333
 1366 000e 0121     		movs	r1, #1
 1367 0010 FFF7FEFF 		bl	TL2_Green
 1368              	.LVL156:
 266:Core/Src/light_logic.c **** 
 267:Core/Src/light_logic.c ****     bits = TL3_Red(bits, true);
 1369              		.loc 1 267 5 is_stmt 1 view .LVU334
 1370              		.loc 1 267 12 is_stmt 0 view .LVU335
 1371 0014 0121     		movs	r1, #1
 1372 0016 FFF7FEFF 		bl	TL3_Red
 1373              	.LVL157:
 268:Core/Src/light_logic.c **** 
 269:Core/Src/light_logic.c ****     bits = TL4_Green(bits, true);
 1374              		.loc 1 269 5 is_stmt 1 view .LVU336
 1375              		.loc 1 269 12 is_stmt 0 view .LVU337
 1376 001a 0121     		movs	r1, #1
 1377 001c FFF7FEFF 		bl	TL4_Green
 1378              	.LVL158:
 270:Core/Src/light_logic.c **** 
 271:Core/Src/light_logic.c ****     bits = PL2_Red(bits, true);
 1379              		.loc 1 271 5 is_stmt 1 view .LVU338
 1380              		.loc 1 271 12 is_stmt 0 view .LVU339
 1381 0020 0121     		movs	r1, #1
 1382 0022 FFF7FEFF 		bl	PL2_Red
 1383              	.LVL159:
 272:Core/Src/light_logic.c **** 
 273:Core/Src/light_logic.c ****     bits = PL1_Red(bits, true);
 1384              		.loc 1 273 5 is_stmt 1 view .LVU340
 1385              		.loc 1 273 12 is_stmt 0 view .LVU341
 1386 0026 0121     		movs	r1, #1
 1387 0028 FFF7FEFF 		bl	PL1_Red
 1388              	.LVL160:
 274:Core/Src/light_logic.c **** 
 275:Core/Src/light_logic.c ****     return bits;
ARM GAS  C:\Users\ehgre\AppData\Local\Temp\ccCiQ1bO.s 			page 31


 1389              		.loc 1 275 5 is_stmt 1 view .LVU342
 276:Core/Src/light_logic.c **** }...
 1390              		.loc 1 276 1 is_stmt 0 view .LVU343
 1391 002c 08BD     		pop	{r3, pc}
 1392              		.cfi_endproc
 1393              	.LFE349:
 1395              		.text
 1396              	.Letext0:
 1397              		.file 2 "c:\\users\\ehgre\\desktop\\plugg\\inbyggda system\\tools\\arm-gnu-toolchain-12.2.mpacbti-
 1398              		.file 3 "c:\\users\\ehgre\\desktop\\plugg\\inbyggda system\\tools\\arm-gnu-toolchain-12.2.mpacbti-
 1399              		.file 4 "Core/Inc/light_logic.h"
 1400              		.file 5 "Core/Inc/shift_register.h"
ARM GAS  C:\Users\ehgre\AppData\Local\Temp\ccCiQ1bO.s 			page 32

