ARM GAS  C:\Users\ehgre\AppData\Local\Temp\ccsDMEGq.s 			page 1


   1              		.cpu cortex-m4
   2              		.arch armv7e-m
   3              		.fpu fpv4-sp-d16
   4              		.eabi_attribute 27, 1
   5              		.eabi_attribute 28, 1
   6              		.eabi_attribute 20, 1
   7              		.eabi_attribute 21, 1
   8              		.eabi_attribute 23, 3
   9              		.eabi_attribute 24, 1
  10              		.eabi_attribute 25, 1
  11              		.eabi_attribute 26, 1
  12              		.eabi_attribute 30, 1
  13              		.eabi_attribute 34, 1
  14              		.eabi_attribute 18, 4
  15              		.file	"ssd1306_tests.c"
  16              		.text
  17              	.Ltext0:
  18              		.cfi_sections	.debug_frame
  19              		.file 1 "Core/Src/ssd1306_tests.c"
  20              		.section	.text.ssd1306_TestBorder,"ax",%progbits
  21              		.align	1
  22              		.global	ssd1306_TestBorder
  23              		.syntax unified
  24              		.thumb
  25              		.thumb_func
  27              	ssd1306_TestBorder:
  28              	.LFB320:
   1:Core/Src/ssd1306_tests.c **** #include <string.h>
   2:Core/Src/ssd1306_tests.c **** #include <stdio.h>
   3:Core/Src/ssd1306_tests.c **** #include "ssd1306.h"
   4:Core/Src/ssd1306_tests.c **** #include "ssd1306_tests.h"
   5:Core/Src/ssd1306_tests.c **** 
   6:Core/Src/ssd1306_tests.c **** //------------------------------------------------------------------------------
   7:Core/Src/ssd1306_tests.c **** // Table generated by LCD Assistant
   8:Core/Src/ssd1306_tests.c **** // http://en.radzio.dxp.pl/bitmap_converter/
   9:Core/Src/ssd1306_tests.c **** //------------------------------------------------------------------------------
  10:Core/Src/ssd1306_tests.c **** const unsigned char garfield_128x64 [] = {
  11:Core/Src/ssd1306_tests.c **** 0x00, 0x00, 0x00, 0x00, 0x00, 0x00, 0x00, 0x00, 0x00, 0x00, 0x00, 0x00, 0x00, 0x00, 0x00, 0x00,
  12:Core/Src/ssd1306_tests.c **** 0x00, 0x00, 0x00, 0x00, 0x00, 0x07, 0xFF, 0x00, 0x00, 0x00, 0x00, 0x00, 0x00, 0x00, 0x00, 0x00,
  13:Core/Src/ssd1306_tests.c **** 0x00, 0x00, 0x00, 0x00, 0x00, 0x1F, 0xFF, 0xF8, 0x7F, 0xE0, 0x00, 0x00, 0x00, 0x00, 0x00, 0x00,
  14:Core/Src/ssd1306_tests.c **** 0x00, 0x00, 0x00, 0x00, 0x00, 0x3F, 0xFF, 0xCF, 0xFF, 0xFE, 0x00, 0x00, 0x00, 0x00, 0x00, 0x00,
  15:Core/Src/ssd1306_tests.c **** 0x00, 0x00, 0x00, 0x00, 0x00, 0x3F, 0xFB, 0xE3, 0xFF, 0xF3, 0x80, 0x00, 0x00, 0x00, 0x00, 0x00,
  16:Core/Src/ssd1306_tests.c **** 0x00, 0x00, 0x00, 0x00, 0x00, 0x3F, 0xC0, 0xF3, 0xFF, 0xF8, 0xE0, 0x00, 0x00, 0x00, 0x00, 0x00,
  17:Core/Src/ssd1306_tests.c **** 0x00, 0x00, 0x00, 0x00, 0x00, 0x1F, 0x00, 0x1F, 0xD9, 0xFC, 0x38, 0x00, 0x00, 0x00, 0x00, 0x00,
  18:Core/Src/ssd1306_tests.c **** 0x00, 0x00, 0x00, 0x00, 0x00, 0x0D, 0x00, 0x0F, 0x00, 0x1E, 0x0C, 0x00, 0x00, 0x00, 0x00, 0x00,
  19:Core/Src/ssd1306_tests.c **** 0x00, 0x00, 0x00, 0x00, 0x0C, 0x0C, 0x0E, 0x1F, 0xF8, 0x03, 0x04, 0x00, 0x00, 0x00, 0x00, 0x00,
  20:Core/Src/ssd1306_tests.c **** 0x00, 0x00, 0x00, 0x00, 0x03, 0x87, 0xF0, 0x07, 0x00, 0x01, 0x86, 0x00, 0x00, 0x00, 0x00, 0x00,
  21:Core/Src/ssd1306_tests.c **** 0x00, 0x00, 0x00, 0x00, 0x18, 0x3B, 0x80, 0x18, 0x00, 0x30, 0xC3, 0x00, 0x00, 0x00, 0x00, 0x00,
  22:Core/Src/ssd1306_tests.c **** 0x00, 0x00, 0x00, 0x00, 0x00, 0xFE, 0x00, 0x60, 0x00, 0x18, 0xC3, 0x01, 0xC0, 0x00, 0x00, 0x00,
  23:Core/Src/ssd1306_tests.c **** 0x00, 0x00, 0x00, 0x00, 0x3F, 0xFC, 0x01, 0x80, 0x00, 0x0F, 0xC3, 0x8F, 0xC0, 0x00, 0x00, 0x00,
  24:Core/Src/ssd1306_tests.c **** 0x00, 0x00, 0x00, 0x00, 0x07, 0xF0, 0x03, 0x00, 0x00, 0x0C, 0x07, 0xF0, 0x00, 0x00, 0x00, 0x00,
  25:Core/Src/ssd1306_tests.c **** 0x00, 0x00, 0x00, 0x00, 0x0F, 0xE0, 0x0C, 0x00, 0x00, 0x0C, 0x07, 0xFF, 0xF8, 0x00, 0x00, 0x00,
  26:Core/Src/ssd1306_tests.c **** 0x00, 0x00, 0x00, 0x00, 0x38, 0xC0, 0x18, 0x00, 0x00, 0x08, 0x0F, 0xFF, 0xF0, 0x00, 0x00, 0x00,
  27:Core/Src/ssd1306_tests.c **** 0x00, 0x00, 0x00, 0x00, 0x71, 0x80, 0x30, 0x00, 0x00, 0x08, 0x0F, 0xFC, 0xFC, 0x00, 0x00, 0x00,
  28:Core/Src/ssd1306_tests.c **** 0x00, 0x00, 0x00, 0x00, 0xF7, 0x00, 0x60, 0x00, 0x00, 0x18, 0x3F, 0xFE, 0x00, 0x00, 0x00, 0x00,
  29:Core/Src/ssd1306_tests.c **** 0x00, 0x00, 0x00, 0x01, 0xFF, 0x00, 0x60, 0x00, 0x00, 0x18, 0x7F, 0xFE, 0x00, 0x00, 0x00, 0x00,
  30:Core/Src/ssd1306_tests.c **** 0x00, 0x00, 0x00, 0x03, 0xFF, 0x00, 0xC0, 0x00, 0x00, 0x30, 0xFF, 0x1F, 0x00, 0x00, 0x00, 0x00,
ARM GAS  C:\Users\ehgre\AppData\Local\Temp\ccsDMEGq.s 			page 2


  31:Core/Src/ssd1306_tests.c **** 0x00, 0x00, 0x00, 0x03, 0x83, 0xE0, 0xC0, 0x00, 0x00, 0x60, 0x00, 0x03, 0x00, 0x00, 0x00, 0x00,
  32:Core/Src/ssd1306_tests.c **** 0x00, 0x00, 0x00, 0x07, 0x03, 0x1F, 0xFF, 0xFF, 0xFF, 0xC0, 0x00, 0x03, 0x80, 0x00, 0x00, 0x00,
  33:Core/Src/ssd1306_tests.c **** 0x00, 0x00, 0x00, 0x0E, 0x01, 0x00, 0xE7, 0xC0, 0x03, 0x80, 0x00, 0x0F, 0x80, 0x00, 0x00, 0x00,
  34:Core/Src/ssd1306_tests.c **** 0x00, 0x00, 0x00, 0x0F, 0x01, 0x80, 0xE0, 0x00, 0x06, 0x00, 0x00, 0xFF, 0x80, 0x00, 0x00, 0x00,
  35:Core/Src/ssd1306_tests.c **** 0x00, 0x00, 0x00, 0x0F, 0x83, 0x7F, 0xF0, 0x00, 0x38, 0x00, 0x26, 0xFF, 0x80, 0x00, 0x00, 0x00,
  36:Core/Src/ssd1306_tests.c **** 0x00, 0x00, 0x00, 0x0F, 0xDC, 0x18, 0x1F, 0x87, 0xE0, 0x00, 0x26, 0xEF, 0x80, 0x00, 0x00, 0x00,
  37:Core/Src/ssd1306_tests.c **** 0x00, 0x00, 0x00, 0x0F, 0xB8, 0x0E, 0x18, 0x00, 0x30, 0x00, 0x04, 0xCF, 0x80, 0x00, 0x00, 0x00,
  38:Core/Src/ssd1306_tests.c **** 0x00, 0x00, 0x00, 0x0F, 0x30, 0x0F, 0xC0, 0x00, 0x18, 0x00, 0x00, 0x8F, 0x80, 0x00, 0x00, 0x00,
  39:Core/Src/ssd1306_tests.c **** 0x00, 0x00, 0x00, 0x07, 0x30, 0x38, 0x70, 0x00, 0x18, 0x00, 0x00, 0x0F, 0x00, 0x00, 0x00, 0x00,
  40:Core/Src/ssd1306_tests.c **** 0x00, 0x00, 0x00, 0x07, 0x18, 0x00, 0x1F, 0x00, 0x18, 0x3B, 0x80, 0x0E, 0x00, 0x00, 0x00, 0x00,
  41:Core/Src/ssd1306_tests.c **** 0x00, 0x00, 0x00, 0x03, 0x8E, 0x00, 0x03, 0x80, 0x70, 0x1F, 0xF8, 0x1C, 0x00, 0x00, 0x00, 0x00,
  42:Core/Src/ssd1306_tests.c **** 0x00, 0x00, 0x00, 0x01, 0xFF, 0x80, 0x00, 0x03, 0xE0, 0x1F, 0xFF, 0xF8, 0x00, 0x00, 0x00, 0x00,
  43:Core/Src/ssd1306_tests.c **** 0x00, 0x00, 0x00, 0x00, 0x7F, 0x86, 0x00, 0x3F, 0x1F, 0x07, 0xFF, 0xE0, 0x00, 0x00, 0x00, 0x00,
  44:Core/Src/ssd1306_tests.c **** 0x00, 0x00, 0x00, 0x00, 0x0F, 0xC3, 0x00, 0x00, 0x3F, 0x01, 0xFF, 0x80, 0x00, 0x00, 0x00, 0x00,
  45:Core/Src/ssd1306_tests.c **** 0x00, 0x00, 0x00, 0x00, 0x01, 0xFF, 0x80, 0x00, 0x3F, 0xC7, 0xFC, 0x00, 0x00, 0x00, 0x00, 0x00,
  46:Core/Src/ssd1306_tests.c **** 0x00, 0x00, 0x00, 0x00, 0x00, 0x73, 0xE0, 0x07, 0xFF, 0xFF, 0xF8, 0x00, 0x00, 0x00, 0x00, 0x00,
  47:Core/Src/ssd1306_tests.c **** 0x00, 0x00, 0x00, 0x00, 0x00, 0xC0, 0x00, 0x07, 0xC0, 0x3F, 0xF8, 0x00, 0x00, 0x00, 0x00, 0x00,
  48:Core/Src/ssd1306_tests.c **** 0x00, 0x00, 0x00, 0x00, 0x03, 0x00, 0x00, 0x00, 0x00, 0x3F, 0xF8, 0x00, 0x00, 0x00, 0x00, 0x00,
  49:Core/Src/ssd1306_tests.c **** 0x00, 0x00, 0x00, 0x00, 0x0E, 0x00, 0x00, 0x00, 0x00, 0x3E, 0xF8, 0x00, 0x00, 0x00, 0x00, 0x00,
  50:Core/Src/ssd1306_tests.c **** 0x00, 0x00, 0x00, 0x00, 0x18, 0x00, 0x00, 0x00, 0x00, 0xA4, 0xF0, 0x00, 0x00, 0x00, 0x00, 0x00,
  51:Core/Src/ssd1306_tests.c **** 0x00, 0x00, 0x00, 0x00, 0x70, 0x00, 0x00, 0x16, 0x01, 0xC0, 0x78, 0x00, 0x00, 0x00, 0x00, 0x00,
  52:Core/Src/ssd1306_tests.c **** 0x00, 0x00, 0x00, 0x00, 0xE0, 0x00, 0x00, 0x1E, 0x01, 0xC0, 0x3E, 0x00, 0x00, 0x00, 0x00, 0x00,
  53:Core/Src/ssd1306_tests.c **** 0x00, 0x00, 0x00, 0x01, 0xC0, 0x00, 0x00, 0x0C, 0x01, 0x80, 0x3F, 0x00, 0x00, 0x00, 0x00, 0x00,
  54:Core/Src/ssd1306_tests.c **** 0x00, 0x00, 0x00, 0x03, 0x80, 0x00, 0x00, 0x04, 0x01, 0xF3, 0xFF, 0xC0, 0x00, 0x00, 0x00, 0x00,
  55:Core/Src/ssd1306_tests.c **** 0x00, 0x00, 0x00, 0x07, 0x00, 0x00, 0x00, 0x0C, 0x01, 0xEF, 0xF7, 0xE0, 0x00, 0x00, 0x00, 0x00,
  56:Core/Src/ssd1306_tests.c **** 0x00, 0x00, 0x00, 0x0E, 0x00, 0x00, 0x00, 0x18, 0x00, 0x07, 0xF0, 0x60, 0x00, 0x00, 0x00, 0x00,
  57:Core/Src/ssd1306_tests.c **** 0x00, 0x00, 0x00, 0x0C, 0x00, 0x00, 0x00, 0x18, 0x00, 0x07, 0x80, 0x70, 0x00, 0x00, 0x00, 0x00,
  58:Core/Src/ssd1306_tests.c **** 0x00, 0x00, 0x00, 0x18, 0x00, 0x00, 0x00, 0x30, 0x00, 0x06, 0x04, 0xF0, 0x00, 0x00, 0x00, 0x00,
  59:Core/Src/ssd1306_tests.c **** 0x00, 0x00, 0x00, 0x38, 0x00, 0x00, 0x00, 0x60, 0x00, 0x0C, 0x1C, 0xF0, 0x00, 0x00, 0x00, 0x00,
  60:Core/Src/ssd1306_tests.c **** 0x00, 0x00, 0x00, 0x30, 0x00, 0x00, 0x00, 0xC0, 0x00, 0x1F, 0xFF, 0xF0, 0x00, 0x00, 0x00, 0x00,
  61:Core/Src/ssd1306_tests.c **** 0x00, 0x00, 0x00, 0x30, 0x00, 0x00, 0x01, 0x80, 0x00, 0x01, 0xFD, 0xF0, 0x00, 0x00, 0x00, 0x00,
  62:Core/Src/ssd1306_tests.c **** 0x00, 0x00, 0x00, 0x30, 0x00, 0x00, 0x03, 0x00, 0x00, 0x00, 0xFD, 0xF0, 0x00, 0x00, 0x00, 0x00,
  63:Core/Src/ssd1306_tests.c **** 0x00, 0x00, 0x00, 0x30, 0x00, 0x00, 0x07, 0x00, 0x00, 0x01, 0xC1, 0xE0, 0x00, 0x00, 0x00, 0x00,
  64:Core/Src/ssd1306_tests.c **** 0x00, 0x00, 0x00, 0x18, 0x00, 0x00, 0x07, 0x00, 0x00, 0x03, 0x81, 0xE0, 0x00, 0x00, 0x00, 0x00,
  65:Core/Src/ssd1306_tests.c **** 0x00, 0x00, 0x00, 0x0C, 0x00, 0x00, 0x07, 0x00, 0x00, 0x07, 0xFF, 0xC0, 0x00, 0x00, 0x00, 0x00,
  66:Core/Src/ssd1306_tests.c **** 0x00, 0x00, 0x00, 0x06, 0x00, 0x00, 0x03, 0xC0, 0x00, 0x39, 0xFF, 0x80, 0x00, 0x00, 0x00, 0x00,
  67:Core/Src/ssd1306_tests.c **** 0x00, 0x00, 0x00, 0x03, 0x80, 0x00, 0x01, 0xF0, 0x01, 0xE3, 0xFF, 0x00, 0x00, 0x00, 0x00, 0x00,
  68:Core/Src/ssd1306_tests.c **** 0x00, 0x00, 0x00, 0x00, 0xE0, 0x00, 0x00, 0x1F, 0x03, 0x8D, 0xFE, 0x00, 0x00, 0x00, 0x00, 0x00,
  69:Core/Src/ssd1306_tests.c **** 0x00, 0x00, 0x00, 0x00, 0x1E, 0x00, 0x00, 0x03, 0xFC, 0x3D, 0xFE, 0x00, 0x00, 0x00, 0x00, 0x00,
  70:Core/Src/ssd1306_tests.c **** 0x00, 0x00, 0x00, 0x00, 0x01, 0xF8, 0x00, 0x03, 0xC0, 0x3F, 0xFE, 0x00, 0x00, 0x00, 0x00, 0x00,
  71:Core/Src/ssd1306_tests.c **** 0x00, 0x00, 0x00, 0x00, 0x00, 0x07, 0xFF, 0xFF, 0xC0, 0x3F, 0xFE, 0x00, 0x00, 0x00, 0x00, 0x00,
  72:Core/Src/ssd1306_tests.c **** 0x00, 0x00, 0x00, 0x00, 0x00, 0x03, 0xFF, 0xF1, 0xC0, 0x3F, 0xFE, 0x00, 0x00, 0x00, 0x00, 0x00,
  73:Core/Src/ssd1306_tests.c **** 0x00, 0x00, 0x00, 0x00, 0x00, 0x03, 0xFF, 0xE0, 0xC0, 0x3F, 0xFE, 0x00, 0x00, 0x00, 0x00, 0x00,
  74:Core/Src/ssd1306_tests.c **** 0x00, 0x00, 0x00, 0x00, 0x00, 0x03, 0xFF, 0xE0, 0xC0, 0x3F, 0x9E, 0x00, 0x00, 0x00, 0x00, 0x00
  75:Core/Src/ssd1306_tests.c **** };
  76:Core/Src/ssd1306_tests.c **** 
  77:Core/Src/ssd1306_tests.c **** const unsigned char github_logo_64x64[] = {
  78:Core/Src/ssd1306_tests.c **** 0x00, 0x00, 0x00, 0x1F, 0xF8, 0x00, 0x00, 0x00, 0x00, 0x00, 0x03, 0xFF, 0xFF, 0x80, 0x00, 0x00,
  79:Core/Src/ssd1306_tests.c **** 0x00, 0x00, 0x0F, 0xFF, 0xFF, 0xF0, 0x00, 0x00, 0x00, 0x00, 0x3F, 0xFF, 0xFF, 0xFC, 0x00, 0x00,
  80:Core/Src/ssd1306_tests.c **** 0x00, 0x00, 0xFF, 0xFF, 0xFF, 0xFF, 0x00, 0x00, 0x00, 0x03, 0xFF, 0xFF, 0xFF, 0xFF, 0xC0, 0x00,
  81:Core/Src/ssd1306_tests.c **** 0x00, 0x07, 0xFF, 0xFF, 0xFF, 0xFF, 0xE0, 0x00, 0x00, 0x0F, 0xFF, 0xFF, 0xFF, 0xFF, 0xF0, 0x00,
  82:Core/Src/ssd1306_tests.c **** 0x00, 0x3F, 0xFF, 0xFF, 0xFF, 0xFF, 0xFC, 0x00, 0x00, 0x7F, 0xFF, 0xFF, 0xFF, 0xFF, 0xFE, 0x00,
  83:Core/Src/ssd1306_tests.c **** 0x00, 0xFF, 0xFF, 0xFF, 0xFF, 0xFF, 0xFF, 0x00, 0x00, 0xFF, 0xFF, 0xFF, 0xFF, 0xFF, 0xFF, 0x00,
  84:Core/Src/ssd1306_tests.c **** 0x01, 0xFF, 0xFF, 0xFF, 0xFF, 0xFF, 0xFF, 0x80, 0x03, 0xFE, 0x3F, 0xFF, 0xFF, 0xFC, 0x7F, 0xC0,
  85:Core/Src/ssd1306_tests.c **** 0x07, 0xFE, 0x07, 0xFF, 0xFF, 0xE0, 0x7F, 0xE0, 0x07, 0xFE, 0x01, 0xF8, 0x1F, 0xC0, 0x3F, 0xE0,
  86:Core/Src/ssd1306_tests.c **** 0x0F, 0xFC, 0x00, 0x00, 0x00, 0x00, 0x3F, 0xF0, 0x0F, 0xFC, 0x00, 0x00, 0x00, 0x00, 0x3F, 0xF0,
  87:Core/Src/ssd1306_tests.c **** 0x1F, 0xFC, 0x00, 0x00, 0x00, 0x00, 0x3F, 0xF8, 0x1F, 0xFC, 0x00, 0x00, 0x00, 0x00, 0x3F, 0xF8,
ARM GAS  C:\Users\ehgre\AppData\Local\Temp\ccsDMEGq.s 			page 3


  88:Core/Src/ssd1306_tests.c **** 0x3F, 0xFE, 0x00, 0x00, 0x00, 0x00, 0x3F, 0xFC, 0x3F, 0xFE, 0x00, 0x00, 0x00, 0x00, 0x7F, 0xFC,
  89:Core/Src/ssd1306_tests.c **** 0x7F, 0xFC, 0x00, 0x00, 0x00, 0x00, 0x3F, 0xFC, 0x7F, 0xFC, 0x00, 0x00, 0x00, 0x00, 0x1F, 0xFE,
  90:Core/Src/ssd1306_tests.c **** 0x7F, 0xF8, 0x00, 0x00, 0x00, 0x00, 0x1F, 0xFE, 0x7F, 0xF8, 0x00, 0x00, 0x00, 0x00, 0x0F, 0xFE,
  91:Core/Src/ssd1306_tests.c **** 0x7F, 0xF0, 0x00, 0x00, 0x00, 0x00, 0x0F, 0xFE, 0xFF, 0xF0, 0x00, 0x00, 0x00, 0x00, 0x0F, 0xFF,
  92:Core/Src/ssd1306_tests.c **** 0xFF, 0xF0, 0x00, 0x00, 0x00, 0x00, 0x0F, 0xFF, 0xFF, 0xF0, 0x00, 0x00, 0x00, 0x00, 0x07, 0xFF,
  93:Core/Src/ssd1306_tests.c **** 0xFF, 0xF0, 0x00, 0x00, 0x00, 0x00, 0x07, 0xFF, 0xFF, 0xF0, 0x00, 0x00, 0x00, 0x00, 0x07, 0xFF,
  94:Core/Src/ssd1306_tests.c **** 0xFF, 0xF0, 0x00, 0x00, 0x00, 0x00, 0x0F, 0xFF, 0xFF, 0xF0, 0x00, 0x00, 0x00, 0x00, 0x0F, 0xFF,
  95:Core/Src/ssd1306_tests.c **** 0xFF, 0xF0, 0x00, 0x00, 0x00, 0x00, 0x0F, 0xFF, 0xFF, 0xF0, 0x00, 0x00, 0x00, 0x00, 0x0F, 0xFF,
  96:Core/Src/ssd1306_tests.c **** 0xFF, 0xF0, 0x00, 0x00, 0x00, 0x00, 0x0F, 0xFF, 0x7F, 0xF8, 0x00, 0x00, 0x00, 0x00, 0x1F, 0xFE,
  97:Core/Src/ssd1306_tests.c **** 0x7F, 0xF8, 0x00, 0x00, 0x00, 0x00, 0x1F, 0xFE, 0x7F, 0xFC, 0x00, 0x00, 0x00, 0x00, 0x3F, 0xFE,
  98:Core/Src/ssd1306_tests.c **** 0x7F, 0xFC, 0x00, 0x00, 0x00, 0x00, 0x3F, 0xFE, 0x7F, 0xFE, 0x00, 0x00, 0x00, 0x00, 0x7F, 0xFC,
  99:Core/Src/ssd1306_tests.c **** 0x3F, 0xFF, 0x00, 0x00, 0x00, 0x00, 0xFF, 0xFC, 0x3F, 0xFF, 0xC0, 0x00, 0x00, 0x01, 0xFF, 0xFC,
 100:Core/Src/ssd1306_tests.c **** 0x1F, 0x9F, 0xE0, 0x00, 0x00, 0x07, 0xFF, 0xF8, 0x1F, 0x87, 0xFC, 0x00, 0x00, 0x3F, 0xFF, 0xF8,
 101:Core/Src/ssd1306_tests.c **** 0x0F, 0xC3, 0xFF, 0xC0, 0x01, 0xFF, 0xFF, 0xF0, 0x0F, 0xE1, 0xFF, 0x80, 0x01, 0xFF, 0xFF, 0xF0,
 102:Core/Src/ssd1306_tests.c **** 0x07, 0xF1, 0xFF, 0x80, 0x00, 0xFF, 0xFF, 0xE0, 0x07, 0xF0, 0xFF, 0x00, 0x00, 0xFF, 0xFF, 0xE0,
 103:Core/Src/ssd1306_tests.c **** 0x03, 0xF8, 0x3F, 0x00, 0x00, 0xFF, 0xFF, 0xC0, 0x01, 0xF8, 0x00, 0x00, 0x00, 0xFF, 0xFF, 0x80,
 104:Core/Src/ssd1306_tests.c **** 0x00, 0xFC, 0x00, 0x00, 0x00, 0xFF, 0xFF, 0x00, 0x00, 0xFE, 0x00, 0x00, 0x00, 0xFF, 0xFF, 0x00,
 105:Core/Src/ssd1306_tests.c **** 0x00, 0x7F, 0x00, 0x00, 0x00, 0xFF, 0xFE, 0x00, 0x00, 0x3F, 0xFF, 0x00, 0x00, 0xFF, 0xFC, 0x00,
 106:Core/Src/ssd1306_tests.c **** 0x00, 0x0F, 0xFF, 0x00, 0x00, 0xFF, 0xF0, 0x00, 0x00, 0x07, 0xFF, 0x00, 0x00, 0xFF, 0xE0, 0x00,
 107:Core/Src/ssd1306_tests.c **** 0x00, 0x03, 0xFF, 0x00, 0x00, 0xFF, 0xC0, 0x00, 0x00, 0x00, 0xFF, 0x00, 0x00, 0xFF, 0x00, 0x00,
 108:Core/Src/ssd1306_tests.c **** 0x00, 0x00, 0x3F, 0x00, 0x00, 0xFC, 0x00, 0x00, 0x00, 0x00, 0x0F, 0x00, 0x00, 0xF0, 0x00, 0x00,
 109:Core/Src/ssd1306_tests.c **** 0x00, 0x00, 0x00, 0x00, 0x00, 0x00, 0x00, 0x00, 0x00, 0x00, 0x00, 0x00, 0x00, 0x00, 0x00, 0x00
 110:Core/Src/ssd1306_tests.c **** };
 111:Core/Src/ssd1306_tests.c **** 
 112:Core/Src/ssd1306_tests.c **** void ssd1306_TestBorder() {
  29              		.loc 1 112 27 view -0
  30              		.cfi_startproc
  31              		@ args = 0, pretend = 0, frame = 0
  32              		@ frame_needed = 0, uses_anonymous_args = 0
  33 0000 70B5     		push	{r4, r5, r6, lr}
  34              	.LCFI0:
  35              		.cfi_def_cfa_offset 16
  36              		.cfi_offset 4, -16
  37              		.cfi_offset 5, -12
  38              		.cfi_offset 6, -8
  39              		.cfi_offset 14, -4
 113:Core/Src/ssd1306_tests.c ****     ssd1306_Fill(Black);
  40              		.loc 1 113 5 view .LVU1
  41 0002 0020     		movs	r0, #0
  42 0004 FFF7FEFF 		bl	ssd1306_Fill
  43              	.LVL0:
 114:Core/Src/ssd1306_tests.c ****    
 115:Core/Src/ssd1306_tests.c ****     uint32_t start = HAL_GetTick();
  44              		.loc 1 115 5 view .LVU2
  45              		.loc 1 115 22 is_stmt 0 view .LVU3
  46 0008 FFF7FEFF 		bl	HAL_GetTick
  47              	.LVL1:
  48 000c 0646     		mov	r6, r0
  49              	.LVL2:
 116:Core/Src/ssd1306_tests.c ****     uint32_t end = start;
  50              		.loc 1 116 5 is_stmt 1 view .LVU4
 117:Core/Src/ssd1306_tests.c ****     uint8_t x = 0;
  51              		.loc 1 117 5 view .LVU5
 118:Core/Src/ssd1306_tests.c ****     uint8_t y = 0;
  52              		.loc 1 118 5 view .LVU6
  53              		.loc 1 118 13 is_stmt 0 view .LVU7
  54 000e 0024     		movs	r4, #0
ARM GAS  C:\Users\ehgre\AppData\Local\Temp\ccsDMEGq.s 			page 4


 117:Core/Src/ssd1306_tests.c ****     uint8_t x = 0;
  55              		.loc 1 117 13 view .LVU8
  56 0010 2546     		mov	r5, r4
  57 0012 15E0     		b	.L6
  58              	.LVL3:
  59              	.L2:
 119:Core/Src/ssd1306_tests.c ****     do {
 120:Core/Src/ssd1306_tests.c ****         ssd1306_DrawPixel(x, y, Black);
 121:Core/Src/ssd1306_tests.c **** 
 122:Core/Src/ssd1306_tests.c ****         if((y == 0) && (x < 127))
 123:Core/Src/ssd1306_tests.c ****             x++;
 124:Core/Src/ssd1306_tests.c ****         else if((x == 127) && (y < (SSD1306_HEIGHT-1)))
  60              		.loc 1 124 14 is_stmt 1 view .LVU9
  61              		.loc 1 124 16 is_stmt 0 view .LVU10
  62 0014 7F2D     		cmp	r5, #127
  63 0016 1FD0     		beq	.L8
  64              	.L4:
 125:Core/Src/ssd1306_tests.c ****             y++;
 126:Core/Src/ssd1306_tests.c ****         else if((y == (SSD1306_HEIGHT-1)) && (x > 0)) 
  65              		.loc 1 126 14 is_stmt 1 view .LVU11
  66              		.loc 1 126 16 is_stmt 0 view .LVU12
  67 0018 3F2C     		cmp	r4, #63
  68 001a 22D0     		beq	.L9
  69              	.L5:
 127:Core/Src/ssd1306_tests.c ****             x--;
 128:Core/Src/ssd1306_tests.c ****         else
 129:Core/Src/ssd1306_tests.c ****             y--;
  70              		.loc 1 129 13 is_stmt 1 view .LVU13
  71              		.loc 1 129 14 is_stmt 0 view .LVU14
  72 001c 013C     		subs	r4, r4, #1
  73              	.LVL4:
  74              		.loc 1 129 14 view .LVU15
  75 001e E4B2     		uxtb	r4, r4
  76              	.LVL5:
  77              	.L3:
 130:Core/Src/ssd1306_tests.c **** 
 131:Core/Src/ssd1306_tests.c ****         ssd1306_DrawPixel(x, y, White);
  78              		.loc 1 131 9 is_stmt 1 view .LVU16
  79 0020 0122     		movs	r2, #1
  80 0022 2146     		mov	r1, r4
  81 0024 2846     		mov	r0, r5
  82 0026 FFF7FEFF 		bl	ssd1306_DrawPixel
  83              	.LVL6:
 132:Core/Src/ssd1306_tests.c ****         ssd1306_UpdateScreen();
  84              		.loc 1 132 9 view .LVU17
  85 002a FFF7FEFF 		bl	ssd1306_UpdateScreen
  86              	.LVL7:
 133:Core/Src/ssd1306_tests.c ****     
 134:Core/Src/ssd1306_tests.c ****         HAL_Delay(5);
  87              		.loc 1 134 9 view .LVU18
  88 002e 0520     		movs	r0, #5
  89 0030 FFF7FEFF 		bl	HAL_Delay
  90              	.LVL8:
 135:Core/Src/ssd1306_tests.c ****         end = HAL_GetTick();
  91              		.loc 1 135 9 view .LVU19
  92              		.loc 1 135 15 is_stmt 0 view .LVU20
  93 0034 FFF7FEFF 		bl	HAL_GetTick
ARM GAS  C:\Users\ehgre\AppData\Local\Temp\ccsDMEGq.s 			page 5


  94              	.LVL9:
 136:Core/Src/ssd1306_tests.c ****     } while((end - start) < 8000);
  95              		.loc 1 136 27 is_stmt 1 view .LVU21
  96              		.loc 1 136 18 is_stmt 0 view .LVU22
  97 0038 801B     		subs	r0, r0, r6
  98              	.LVL10:
  99              		.loc 1 136 27 view .LVU23
 100 003a B0F5FA5F 		cmp	r0, #8000
 101 003e 15D2     		bcs	.L10
 102              	.LVL11:
 103              	.L6:
 119:Core/Src/ssd1306_tests.c ****         ssd1306_DrawPixel(x, y, Black);
 104              		.loc 1 119 5 is_stmt 1 view .LVU24
 120:Core/Src/ssd1306_tests.c **** 
 105              		.loc 1 120 9 view .LVU25
 106 0040 0022     		movs	r2, #0
 107 0042 2146     		mov	r1, r4
 108 0044 2846     		mov	r0, r5
 109 0046 FFF7FEFF 		bl	ssd1306_DrawPixel
 110              	.LVL12:
 122:Core/Src/ssd1306_tests.c ****             x++;
 111              		.loc 1 122 9 view .LVU26
 122:Core/Src/ssd1306_tests.c ****             x++;
 112              		.loc 1 122 11 is_stmt 0 view .LVU27
 113 004a 002C     		cmp	r4, #0
 114 004c E2D1     		bne	.L2
 122:Core/Src/ssd1306_tests.c ****             x++;
 115              		.loc 1 122 21 discriminator 1 view .LVU28
 116 004e 7E2D     		cmp	r5, #126
 117 0050 E0D8     		bhi	.L2
 123:Core/Src/ssd1306_tests.c ****         else if((x == 127) && (y < (SSD1306_HEIGHT-1)))
 118              		.loc 1 123 13 is_stmt 1 view .LVU29
 123:Core/Src/ssd1306_tests.c ****         else if((x == 127) && (y < (SSD1306_HEIGHT-1)))
 119              		.loc 1 123 14 is_stmt 0 view .LVU30
 120 0052 0135     		adds	r5, r5, #1
 121              	.LVL13:
 123:Core/Src/ssd1306_tests.c ****         else if((x == 127) && (y < (SSD1306_HEIGHT-1)))
 122              		.loc 1 123 14 view .LVU31
 123 0054 EDB2     		uxtb	r5, r5
 124              	.LVL14:
 123:Core/Src/ssd1306_tests.c ****         else if((x == 127) && (y < (SSD1306_HEIGHT-1)))
 125              		.loc 1 123 14 view .LVU32
 126 0056 E3E7     		b	.L3
 127              	.L8:
 124:Core/Src/ssd1306_tests.c ****             y++;
 128              		.loc 1 124 28 discriminator 1 view .LVU33
 129 0058 3E2C     		cmp	r4, #62
 130 005a DDD8     		bhi	.L4
 125:Core/Src/ssd1306_tests.c ****         else if((y == (SSD1306_HEIGHT-1)) && (x > 0)) 
 131              		.loc 1 125 13 is_stmt 1 view .LVU34
 125:Core/Src/ssd1306_tests.c ****         else if((y == (SSD1306_HEIGHT-1)) && (x > 0)) 
 132              		.loc 1 125 14 is_stmt 0 view .LVU35
 133 005c 0134     		adds	r4, r4, #1
 134              	.LVL15:
 125:Core/Src/ssd1306_tests.c ****         else if((y == (SSD1306_HEIGHT-1)) && (x > 0)) 
 135              		.loc 1 125 14 view .LVU36
 136 005e E4B2     		uxtb	r4, r4
ARM GAS  C:\Users\ehgre\AppData\Local\Temp\ccsDMEGq.s 			page 6


 137              	.LVL16:
 125:Core/Src/ssd1306_tests.c ****         else if((y == (SSD1306_HEIGHT-1)) && (x > 0)) 
 138              		.loc 1 125 14 view .LVU37
 139 0060 DEE7     		b	.L3
 140              	.L9:
 126:Core/Src/ssd1306_tests.c ****             x--;
 141              		.loc 1 126 43 discriminator 1 view .LVU38
 142 0062 002D     		cmp	r5, #0
 143 0064 DAD0     		beq	.L5
 127:Core/Src/ssd1306_tests.c ****         else
 144              		.loc 1 127 13 is_stmt 1 view .LVU39
 127:Core/Src/ssd1306_tests.c ****         else
 145              		.loc 1 127 14 is_stmt 0 view .LVU40
 146 0066 013D     		subs	r5, r5, #1
 147              	.LVL17:
 127:Core/Src/ssd1306_tests.c ****         else
 148              		.loc 1 127 14 view .LVU41
 149 0068 EDB2     		uxtb	r5, r5
 150              	.LVL18:
 127:Core/Src/ssd1306_tests.c ****         else
 151              		.loc 1 127 14 view .LVU42
 152 006a D9E7     		b	.L3
 153              	.LVL19:
 154              	.L10:
 137:Core/Src/ssd1306_tests.c ****    
 138:Core/Src/ssd1306_tests.c ****     HAL_Delay(1000);
 155              		.loc 1 138 5 is_stmt 1 view .LVU43
 156 006c 4FF47A70 		mov	r0, #1000
 157 0070 FFF7FEFF 		bl	HAL_Delay
 158              	.LVL20:
 139:Core/Src/ssd1306_tests.c **** }
 159              		.loc 1 139 1 is_stmt 0 view .LVU44
 160 0074 70BD     		pop	{r4, r5, r6, pc}
 161              		.loc 1 139 1 view .LVU45
 162              		.cfi_endproc
 163              	.LFE320:
 165              		.section	.rodata.ssd1306_TestFonts.str1.4,"aMS",%progbits,1
 166              		.align	2
 167              	.LC1:
 168 0000 466F6E74 		.ascii	"Font 16x26\000"
 168      20313678 
 168      323600
 169 000b 00       		.align	2
 170              	.LC2:
 171 000c 466F6E74 		.ascii	"Font 11x18\000"
 171      20313178 
 171      313800
 172 0017 00       		.align	2
 173              	.LC3:
 174 0018 466F6E74 		.ascii	"Font 7x10\000"
 174      20377831 
 174      3000
 175 0022 0000     		.align	2
 176              	.LC4:
 177 0024 466F6E74 		.ascii	"Font 6x8\000"
 177      20367838 
 177      00
ARM GAS  C:\Users\ehgre\AppData\Local\Temp\ccsDMEGq.s 			page 7


 178              		.section	.text.ssd1306_TestFonts,"ax",%progbits
 179              		.align	1
 180              		.global	ssd1306_TestFonts
 181              		.syntax unified
 182              		.thumb
 183              		.thumb_func
 185              	ssd1306_TestFonts:
 186              	.LFB321:
 140:Core/Src/ssd1306_tests.c **** 
 141:Core/Src/ssd1306_tests.c **** void ssd1306_TestFonts() {
 187              		.loc 1 141 26 is_stmt 1 view -0
 188              		.cfi_startproc
 189              		@ args = 0, pretend = 0, frame = 0
 190              		@ frame_needed = 0, uses_anonymous_args = 0
 191 0000 08B5     		push	{r3, lr}
 192              	.LCFI1:
 193              		.cfi_def_cfa_offset 8
 194              		.cfi_offset 3, -8
 195              		.cfi_offset 14, -4
 142:Core/Src/ssd1306_tests.c ****     uint8_t y = 0;
 196              		.loc 1 142 5 view .LVU47
 197              	.LVL21:
 143:Core/Src/ssd1306_tests.c ****     ssd1306_Fill(Black);
 198              		.loc 1 143 5 view .LVU48
 199 0002 0020     		movs	r0, #0
 200 0004 FFF7FEFF 		bl	ssd1306_Fill
 201              	.LVL22:
 144:Core/Src/ssd1306_tests.c **** 
 145:Core/Src/ssd1306_tests.c ****     #ifdef SSD1306_INCLUDE_FONT_16x26
 146:Core/Src/ssd1306_tests.c ****     ssd1306_SetCursor(2, y);
 202              		.loc 1 146 5 view .LVU49
 203 0008 0021     		movs	r1, #0
 204 000a 0220     		movs	r0, #2
 205 000c FFF7FEFF 		bl	ssd1306_SetCursor
 206              	.LVL23:
 147:Core/Src/ssd1306_tests.c ****     ssd1306_WriteString("Font 16x26", Font_16x26, White);
 207              		.loc 1 147 5 view .LVU50
 208 0010 134A     		ldr	r2, .L13
 209 0012 0123     		movs	r3, #1
 210 0014 06CA     		ldm	r2, {r1, r2}
 211 0016 1348     		ldr	r0, .L13+4
 212 0018 FFF7FEFF 		bl	ssd1306_WriteString
 213              	.LVL24:
 148:Core/Src/ssd1306_tests.c ****     y += 26;
 214              		.loc 1 148 5 view .LVU51
 149:Core/Src/ssd1306_tests.c ****     #endif
 150:Core/Src/ssd1306_tests.c **** 
 151:Core/Src/ssd1306_tests.c ****     #ifdef SSD1306_INCLUDE_FONT_11x18
 152:Core/Src/ssd1306_tests.c ****     ssd1306_SetCursor(2, y);
 215              		.loc 1 152 5 view .LVU52
 216 001c 1A21     		movs	r1, #26
 217 001e 0220     		movs	r0, #2
 218 0020 FFF7FEFF 		bl	ssd1306_SetCursor
 219              	.LVL25:
 153:Core/Src/ssd1306_tests.c ****     ssd1306_WriteString("Font 11x18", Font_11x18, White);
 220              		.loc 1 153 5 view .LVU53
 221 0024 104A     		ldr	r2, .L13+8
ARM GAS  C:\Users\ehgre\AppData\Local\Temp\ccsDMEGq.s 			page 8


 222 0026 0123     		movs	r3, #1
 223 0028 06CA     		ldm	r2, {r1, r2}
 224 002a 1048     		ldr	r0, .L13+12
 225 002c FFF7FEFF 		bl	ssd1306_WriteString
 226              	.LVL26:
 154:Core/Src/ssd1306_tests.c ****     y += 18;
 227              		.loc 1 154 5 view .LVU54
 155:Core/Src/ssd1306_tests.c ****     #endif
 156:Core/Src/ssd1306_tests.c **** 
 157:Core/Src/ssd1306_tests.c ****     #ifdef SSD1306_INCLUDE_FONT_7x10
 158:Core/Src/ssd1306_tests.c ****     ssd1306_SetCursor(2, y);
 228              		.loc 1 158 5 view .LVU55
 229 0030 2C21     		movs	r1, #44
 230 0032 0220     		movs	r0, #2
 231 0034 FFF7FEFF 		bl	ssd1306_SetCursor
 232              	.LVL27:
 159:Core/Src/ssd1306_tests.c ****     ssd1306_WriteString("Font 7x10", Font_7x10, White);
 233              		.loc 1 159 5 view .LVU56
 234 0038 0D4A     		ldr	r2, .L13+16
 235 003a 0123     		movs	r3, #1
 236 003c 06CA     		ldm	r2, {r1, r2}
 237 003e 0D48     		ldr	r0, .L13+20
 238 0040 FFF7FEFF 		bl	ssd1306_WriteString
 239              	.LVL28:
 160:Core/Src/ssd1306_tests.c ****     y += 10;
 240              		.loc 1 160 5 view .LVU57
 161:Core/Src/ssd1306_tests.c ****     #endif
 162:Core/Src/ssd1306_tests.c **** 
 163:Core/Src/ssd1306_tests.c ****     #ifdef SSD1306_INCLUDE_FONT_6x8
 164:Core/Src/ssd1306_tests.c ****     ssd1306_SetCursor(2, y);
 241              		.loc 1 164 5 view .LVU58
 242 0044 3621     		movs	r1, #54
 243 0046 0220     		movs	r0, #2
 244 0048 FFF7FEFF 		bl	ssd1306_SetCursor
 245              	.LVL29:
 165:Core/Src/ssd1306_tests.c ****     ssd1306_WriteString("Font 6x8", Font_6x8, White);
 246              		.loc 1 165 5 view .LVU59
 247 004c 0A4A     		ldr	r2, .L13+24
 248 004e 0123     		movs	r3, #1
 249 0050 06CA     		ldm	r2, {r1, r2}
 250 0052 0A48     		ldr	r0, .L13+28
 251 0054 FFF7FEFF 		bl	ssd1306_WriteString
 252              	.LVL30:
 166:Core/Src/ssd1306_tests.c ****     #endif
 167:Core/Src/ssd1306_tests.c **** 
 168:Core/Src/ssd1306_tests.c ****     ssd1306_UpdateScreen();
 253              		.loc 1 168 5 view .LVU60
 254 0058 FFF7FEFF 		bl	ssd1306_UpdateScreen
 255              	.LVL31:
 169:Core/Src/ssd1306_tests.c **** }
 256              		.loc 1 169 1 is_stmt 0 view .LVU61
 257 005c 08BD     		pop	{r3, pc}
 258              	.L14:
 259 005e 00BF     		.align	2
 260              	.L13:
 261 0060 00000000 		.word	Font_16x26
 262 0064 00000000 		.word	.LC1
ARM GAS  C:\Users\ehgre\AppData\Local\Temp\ccsDMEGq.s 			page 9


 263 0068 00000000 		.word	Font_11x18
 264 006c 0C000000 		.word	.LC2
 265 0070 00000000 		.word	Font_7x10
 266 0074 18000000 		.word	.LC3
 267 0078 00000000 		.word	Font_6x8
 268 007c 24000000 		.word	.LC4
 269              		.cfi_endproc
 270              	.LFE321:
 272              		.section	.rodata.ssd1306_TestFPS.str1.4,"aMS",%progbits,1
 273              		.align	2
 274              	.LC6:
 275 0000 54657374 		.ascii	"Testing...\000"
 275      696E672E 
 275      2E2E00
 276 000b 00       		.align	2
 277              	.LC7:
 278 000c 30313233 		.ascii	"0123456789A\000"
 278      34353637 
 278      38394100 
 279              		.global	__aeabi_f2d
 280              		.global	__aeabi_ui2d
 281              		.global	__aeabi_ddiv
 282              		.global	__aeabi_d2iz
 283              		.align	2
 284              	.LC8:
 285 0018 7E256420 		.ascii	"~%d FPS\000"
 285      46505300 
 286              		.align	2
 287              	.LC5:
 288 0020 41424344 		.ascii	"ABCDEFGHIJK\000"
 288      45464748 
 288      494A4B00 
 289              		.section	.text.ssd1306_TestFPS,"ax",%progbits
 290              		.align	1
 291              		.global	ssd1306_TestFPS
 292              		.syntax unified
 293              		.thumb
 294              		.thumb_func
 296              	ssd1306_TestFPS:
 297              	.LFB322:
 170:Core/Src/ssd1306_tests.c **** 
 171:Core/Src/ssd1306_tests.c **** void ssd1306_TestFPS() {
 298              		.loc 1 171 24 is_stmt 1 view -0
 299              		.cfi_startproc
 300              		@ args = 0, pretend = 0, frame = 80
 301              		@ frame_needed = 0, uses_anonymous_args = 0
 302 0000 F0B5     		push	{r4, r5, r6, r7, lr}
 303              	.LCFI2:
 304              		.cfi_def_cfa_offset 20
 305              		.cfi_offset 4, -20
 306              		.cfi_offset 5, -16
 307              		.cfi_offset 6, -12
 308              		.cfi_offset 7, -8
 309              		.cfi_offset 14, -4
 310 0002 95B0     		sub	sp, sp, #84
 311              	.LCFI3:
 312              		.cfi_def_cfa_offset 104
ARM GAS  C:\Users\ehgre\AppData\Local\Temp\ccsDMEGq.s 			page 10


 172:Core/Src/ssd1306_tests.c ****     ssd1306_Fill(White);
 313              		.loc 1 172 5 view .LVU63
 314 0004 0120     		movs	r0, #1
 315 0006 FFF7FEFF 		bl	ssd1306_Fill
 316              	.LVL32:
 173:Core/Src/ssd1306_tests.c ****    
 174:Core/Src/ssd1306_tests.c ****     uint32_t start = HAL_GetTick();
 317              		.loc 1 174 5 view .LVU64
 318              		.loc 1 174 22 is_stmt 0 view .LVU65
 319 000a FFF7FEFF 		bl	HAL_GetTick
 320              	.LVL33:
 321 000e 0646     		mov	r6, r0
 322              	.LVL34:
 175:Core/Src/ssd1306_tests.c ****     uint32_t end = start;
 323              		.loc 1 175 5 is_stmt 1 view .LVU66
 176:Core/Src/ssd1306_tests.c ****     int fps = 0;
 324              		.loc 1 176 5 view .LVU67
 177:Core/Src/ssd1306_tests.c ****     char message[] = "ABCDEFGHIJK";
 325              		.loc 1 177 5 view .LVU68
 326              		.loc 1 177 10 is_stmt 0 view .LVU69
 327 0010 364B     		ldr	r3, .L18
 328 0012 93E80700 		ldm	r3, {r0, r1, r2}
 329              	.LVL35:
 330              		.loc 1 177 10 view .LVU70
 331 0016 14AB     		add	r3, sp, #80
 332 0018 03E90700 		stmdb	r3, {r0, r1, r2}
 178:Core/Src/ssd1306_tests.c ****    
 179:Core/Src/ssd1306_tests.c ****     ssd1306_SetCursor(2,0);
 333              		.loc 1 179 5 is_stmt 1 view .LVU71
 334 001c 0021     		movs	r1, #0
 335 001e 0220     		movs	r0, #2
 336 0020 FFF7FEFF 		bl	ssd1306_SetCursor
 337              	.LVL36:
 180:Core/Src/ssd1306_tests.c ****     ssd1306_WriteString("Testing...", Font_11x18, Black);
 338              		.loc 1 180 5 view .LVU72
 339 0024 324C     		ldr	r4, .L18+4
 340 0026 0023     		movs	r3, #0
 341 0028 94E80600 		ldm	r4, {r1, r2}
 342 002c 3148     		ldr	r0, .L18+8
 343 002e FFF7FEFF 		bl	ssd1306_WriteString
 344              	.LVL37:
 181:Core/Src/ssd1306_tests.c ****     ssd1306_SetCursor(2, 18*2);
 345              		.loc 1 181 5 view .LVU73
 346 0032 2421     		movs	r1, #36
 347 0034 0220     		movs	r0, #2
 348 0036 FFF7FEFF 		bl	ssd1306_SetCursor
 349              	.LVL38:
 182:Core/Src/ssd1306_tests.c ****     ssd1306_WriteString("0123456789A", Font_11x18, Black);
 350              		.loc 1 182 5 view .LVU74
 351 003a 0023     		movs	r3, #0
 352 003c 94E80600 		ldm	r4, {r1, r2}
 353 0040 2D48     		ldr	r0, .L18+12
 354 0042 FFF7FEFF 		bl	ssd1306_WriteString
 355              	.LVL39:
 176:Core/Src/ssd1306_tests.c ****     char message[] = "ABCDEFGHIJK";
 356              		.loc 1 176 9 is_stmt 0 view .LVU75
 357 0046 0025     		movs	r5, #0
ARM GAS  C:\Users\ehgre\AppData\Local\Temp\ccsDMEGq.s 			page 11


 358              	.LVL40:
 359              	.L16:
 183:Core/Src/ssd1306_tests.c ****    
 184:Core/Src/ssd1306_tests.c ****     do {
 360              		.loc 1 184 5 is_stmt 1 discriminator 1 view .LVU76
 361              	.LBB2:
 185:Core/Src/ssd1306_tests.c ****         ssd1306_SetCursor(2, 18);
 362              		.loc 1 185 9 discriminator 1 view .LVU77
 363 0048 1221     		movs	r1, #18
 364 004a 0220     		movs	r0, #2
 365 004c FFF7FEFF 		bl	ssd1306_SetCursor
 366              	.LVL41:
 186:Core/Src/ssd1306_tests.c ****         ssd1306_WriteString(message, Font_11x18, Black);
 367              		.loc 1 186 9 discriminator 1 view .LVU78
 368 0050 274A     		ldr	r2, .L18+4
 369 0052 0023     		movs	r3, #0
 370 0054 06CA     		ldm	r2, {r1, r2}
 371 0056 11A8     		add	r0, sp, #68
 372 0058 FFF7FEFF 		bl	ssd1306_WriteString
 373              	.LVL42:
 187:Core/Src/ssd1306_tests.c ****         ssd1306_UpdateScreen();
 374              		.loc 1 187 9 discriminator 1 view .LVU79
 375 005c FFF7FEFF 		bl	ssd1306_UpdateScreen
 376              	.LVL43:
 188:Core/Src/ssd1306_tests.c ****        
 189:Core/Src/ssd1306_tests.c ****         char ch = message[0];
 377              		.loc 1 189 9 discriminator 1 view .LVU80
 378              		.loc 1 189 14 is_stmt 0 discriminator 1 view .LVU81
 379 0060 9DF84440 		ldrb	r4, [sp, #68]	@ zero_extendqisi2
 380              	.LVL44:
 190:Core/Src/ssd1306_tests.c ****         memmove(message, message+1, sizeof(message)-2);
 381              		.loc 1 190 9 is_stmt 1 discriminator 1 view .LVU82
 382 0064 0A22     		movs	r2, #10
 383 0066 0DF14501 		add	r1, sp, #69
 384 006a 11A8     		add	r0, sp, #68
 385 006c FFF7FEFF 		bl	memmove
 386              	.LVL45:
 191:Core/Src/ssd1306_tests.c ****         message[sizeof(message)-2] = ch;
 387              		.loc 1 191 9 discriminator 1 view .LVU83
 388              		.loc 1 191 36 is_stmt 0 discriminator 1 view .LVU84
 389 0070 8DF84E40 		strb	r4, [sp, #78]
 192:Core/Src/ssd1306_tests.c **** 
 193:Core/Src/ssd1306_tests.c ****         fps++;
 390              		.loc 1 193 9 is_stmt 1 discriminator 1 view .LVU85
 391              		.loc 1 193 12 is_stmt 0 discriminator 1 view .LVU86
 392 0074 0135     		adds	r5, r5, #1
 393              	.LVL46:
 194:Core/Src/ssd1306_tests.c ****         end = HAL_GetTick();
 394              		.loc 1 194 9 is_stmt 1 discriminator 1 view .LVU87
 395              		.loc 1 194 15 is_stmt 0 discriminator 1 view .LVU88
 396 0076 FFF7FEFF 		bl	HAL_GetTick
 397              	.LVL47:
 398              		.loc 1 194 15 discriminator 1 view .LVU89
 399              	.LBE2:
 195:Core/Src/ssd1306_tests.c ****     } while((end - start) < 5000);
 400              		.loc 1 195 27 is_stmt 1 discriminator 1 view .LVU90
 401              		.loc 1 195 18 is_stmt 0 discriminator 1 view .LVU91
ARM GAS  C:\Users\ehgre\AppData\Local\Temp\ccsDMEGq.s 			page 12


 402 007a 841B     		subs	r4, r0, r6
 403              	.LVL48:
 404              		.loc 1 195 27 discriminator 1 view .LVU92
 405 007c 41F28733 		movw	r3, #4999
 406 0080 9C42     		cmp	r4, r3
 407 0082 E1D9     		bls	.L16
 196:Core/Src/ssd1306_tests.c ****    
 197:Core/Src/ssd1306_tests.c ****     HAL_Delay(5000);
 408              		.loc 1 197 5 is_stmt 1 view .LVU93
 409 0084 41F28830 		movw	r0, #5000
 410              	.LVL49:
 411              		.loc 1 197 5 is_stmt 0 view .LVU94
 412 0088 FFF7FEFF 		bl	HAL_Delay
 413              	.LVL50:
 198:Core/Src/ssd1306_tests.c **** 
 199:Core/Src/ssd1306_tests.c ****     char buff[64];
 414              		.loc 1 199 5 is_stmt 1 view .LVU95
 200:Core/Src/ssd1306_tests.c ****     fps = (float)fps / ((end - start) / 1000.0);
 415              		.loc 1 200 5 view .LVU96
 416              		.loc 1 200 11 is_stmt 0 view .LVU97
 417 008c 07EE905A 		vmov	s15, r5	@ int
 418 0090 F8EEE77A 		vcvt.f32.s32	s15, s15
 419 0094 17EE900A 		vmov	r0, s15
 420 0098 FFF7FEFF 		bl	__aeabi_f2d
 421              	.LVL51:
 422 009c 0646     		mov	r6, r0
 423              	.LVL52:
 424              		.loc 1 200 11 view .LVU98
 425 009e 0F46     		mov	r7, r1
 426              		.loc 1 200 39 view .LVU99
 427 00a0 2046     		mov	r0, r4
 428 00a2 FFF7FEFF 		bl	__aeabi_ui2d
 429              	.LVL53:
 430 00a6 0022     		movs	r2, #0
 431 00a8 144B     		ldr	r3, .L18+16
 432 00aa FFF7FEFF 		bl	__aeabi_ddiv
 433              	.LVL54:
 434 00ae 0246     		mov	r2, r0
 435 00b0 0B46     		mov	r3, r1
 436              		.loc 1 200 22 view .LVU100
 437 00b2 3046     		mov	r0, r6
 438 00b4 3946     		mov	r1, r7
 439 00b6 FFF7FEFF 		bl	__aeabi_ddiv
 440              	.LVL55:
 441              		.loc 1 200 9 view .LVU101
 442 00ba FFF7FEFF 		bl	__aeabi_d2iz
 443              	.LVL56:
 444 00be 0346     		mov	r3, r0
 445              	.LVL57:
 201:Core/Src/ssd1306_tests.c ****     snprintf(buff, sizeof(buff), "~%d FPS", fps);
 446              		.loc 1 201 5 is_stmt 1 view .LVU102
 447 00c0 0F4A     		ldr	r2, .L18+20
 448 00c2 4021     		movs	r1, #64
 449 00c4 01A8     		add	r0, sp, #4
 450              	.LVL58:
 451              		.loc 1 201 5 is_stmt 0 view .LVU103
 452 00c6 FFF7FEFF 		bl	snprintf
ARM GAS  C:\Users\ehgre\AppData\Local\Temp\ccsDMEGq.s 			page 13


 453              	.LVL59:
 202:Core/Src/ssd1306_tests.c ****    
 203:Core/Src/ssd1306_tests.c ****     ssd1306_Fill(White);
 454              		.loc 1 203 5 is_stmt 1 view .LVU104
 455 00ca 0120     		movs	r0, #1
 456 00cc FFF7FEFF 		bl	ssd1306_Fill
 457              	.LVL60:
 204:Core/Src/ssd1306_tests.c ****     ssd1306_SetCursor(2, 2);
 458              		.loc 1 204 5 view .LVU105
 459 00d0 0221     		movs	r1, #2
 460 00d2 0846     		mov	r0, r1
 461 00d4 FFF7FEFF 		bl	ssd1306_SetCursor
 462              	.LVL61:
 205:Core/Src/ssd1306_tests.c ****     ssd1306_WriteString(buff, Font_11x18, Black);
 463              		.loc 1 205 5 view .LVU106
 464 00d8 054A     		ldr	r2, .L18+4
 465 00da 0023     		movs	r3, #0
 466 00dc 06CA     		ldm	r2, {r1, r2}
 467 00de 01A8     		add	r0, sp, #4
 468 00e0 FFF7FEFF 		bl	ssd1306_WriteString
 469              	.LVL62:
 206:Core/Src/ssd1306_tests.c ****     ssd1306_UpdateScreen();
 470              		.loc 1 206 5 view .LVU107
 471 00e4 FFF7FEFF 		bl	ssd1306_UpdateScreen
 472              	.LVL63:
 207:Core/Src/ssd1306_tests.c **** }
 473              		.loc 1 207 1 is_stmt 0 view .LVU108
 474 00e8 15B0     		add	sp, sp, #84
 475              	.LCFI4:
 476              		.cfi_def_cfa_offset 20
 477              		@ sp needed
 478 00ea F0BD     		pop	{r4, r5, r6, r7, pc}
 479              	.L19:
 480              		.align	2
 481              	.L18:
 482 00ec 20000000 		.word	.LC5
 483 00f0 00000000 		.word	Font_11x18
 484 00f4 00000000 		.word	.LC6
 485 00f8 0C000000 		.word	.LC7
 486 00fc 00408F40 		.word	1083129856
 487 0100 18000000 		.word	.LC8
 488              		.cfi_endproc
 489              	.LFE322:
 491              		.section	.text.ssd1306_TestLine,"ax",%progbits
 492              		.align	1
 493              		.global	ssd1306_TestLine
 494              		.syntax unified
 495              		.thumb
 496              		.thumb_func
 498              	ssd1306_TestLine:
 499              	.LFB323:
 208:Core/Src/ssd1306_tests.c **** 
 209:Core/Src/ssd1306_tests.c **** void ssd1306_TestLine() {
 500              		.loc 1 209 25 is_stmt 1 view -0
 501              		.cfi_startproc
 502              		@ args = 0, pretend = 0, frame = 0
 503              		@ frame_needed = 0, uses_anonymous_args = 0
ARM GAS  C:\Users\ehgre\AppData\Local\Temp\ccsDMEGq.s 			page 14


 504 0000 10B5     		push	{r4, lr}
 505              	.LCFI5:
 506              		.cfi_def_cfa_offset 8
 507              		.cfi_offset 4, -8
 508              		.cfi_offset 14, -4
 509 0002 82B0     		sub	sp, sp, #8
 510              	.LCFI6:
 511              		.cfi_def_cfa_offset 16
 210:Core/Src/ssd1306_tests.c **** 
 211:Core/Src/ssd1306_tests.c ****   ssd1306_Line(1,1,SSD1306_WIDTH - 1,SSD1306_HEIGHT - 1,White);
 512              		.loc 1 211 3 view .LVU110
 513 0004 0124     		movs	r4, #1
 514 0006 0094     		str	r4, [sp]
 515 0008 3F23     		movs	r3, #63
 516 000a 7F22     		movs	r2, #127
 517 000c 2146     		mov	r1, r4
 518 000e 2046     		mov	r0, r4
 519 0010 FFF7FEFF 		bl	ssd1306_Line
 520              	.LVL64:
 212:Core/Src/ssd1306_tests.c ****   ssd1306_Line(SSD1306_WIDTH - 1,1,1,SSD1306_HEIGHT - 1,White);
 521              		.loc 1 212 3 view .LVU111
 522 0014 0094     		str	r4, [sp]
 523 0016 3F23     		movs	r3, #63
 524 0018 2246     		mov	r2, r4
 525 001a 2146     		mov	r1, r4
 526 001c 7F20     		movs	r0, #127
 527 001e FFF7FEFF 		bl	ssd1306_Line
 528              	.LVL65:
 213:Core/Src/ssd1306_tests.c ****   ssd1306_UpdateScreen();
 529              		.loc 1 213 3 view .LVU112
 530 0022 FFF7FEFF 		bl	ssd1306_UpdateScreen
 531              	.LVL66:
 214:Core/Src/ssd1306_tests.c ****   return;
 532              		.loc 1 214 3 view .LVU113
 215:Core/Src/ssd1306_tests.c **** }
 533              		.loc 1 215 1 is_stmt 0 view .LVU114
 534 0026 02B0     		add	sp, sp, #8
 535              	.LCFI7:
 536              		.cfi_def_cfa_offset 8
 537              		@ sp needed
 538 0028 10BD     		pop	{r4, pc}
 539              		.cfi_endproc
 540              	.LFE323:
 542              		.section	.text.ssd1306_TestRectangle,"ax",%progbits
 543              		.align	1
 544              		.global	ssd1306_TestRectangle
 545              		.syntax unified
 546              		.thumb
 547              		.thumb_func
 549              	ssd1306_TestRectangle:
 550              	.LFB324:
 216:Core/Src/ssd1306_tests.c **** 
 217:Core/Src/ssd1306_tests.c **** void ssd1306_TestRectangle() {
 551              		.loc 1 217 30 is_stmt 1 view -0
 552              		.cfi_startproc
 553              		@ args = 0, pretend = 0, frame = 0
 554              		@ frame_needed = 0, uses_anonymous_args = 0
ARM GAS  C:\Users\ehgre\AppData\Local\Temp\ccsDMEGq.s 			page 15


 555 0000 10B5     		push	{r4, lr}
 556              	.LCFI8:
 557              		.cfi_def_cfa_offset 8
 558              		.cfi_offset 4, -8
 559              		.cfi_offset 14, -4
 560 0002 82B0     		sub	sp, sp, #8
 561              	.LCFI9:
 562              		.cfi_def_cfa_offset 16
 218:Core/Src/ssd1306_tests.c ****   uint32_t delta;
 563              		.loc 1 218 3 view .LVU116
 219:Core/Src/ssd1306_tests.c **** 
 220:Core/Src/ssd1306_tests.c ****   for(delta = 0; delta < 5; delta ++) {
 564              		.loc 1 220 3 view .LVU117
 565              	.LVL67:
 566              		.loc 1 220 13 is_stmt 0 view .LVU118
 567 0004 0024     		movs	r4, #0
 568              		.loc 1 220 3 view .LVU119
 569 0006 10E0     		b	.L23
 570              	.LVL68:
 571              	.L24:
 221:Core/Src/ssd1306_tests.c ****     ssd1306_DrawRectangle(1 + (5*delta),1 + (5*delta) ,SSD1306_WIDTH-1 - (5*delta),SSD1306_HEIGHT-1
 572              		.loc 1 221 5 is_stmt 1 discriminator 3 view .LVU120
 573 0008 04EB8402 		add	r2, r4, r4, lsl #2
 574 000c D2B2     		uxtb	r2, r2
 575 000e 501C     		adds	r0, r2, #1
 576 0010 C0B2     		uxtb	r0, r0
 577 0012 C2F13F03 		rsb	r3, r2, #63
 578 0016 C2F17F02 		rsb	r2, r2, #127
 579 001a 0121     		movs	r1, #1
 580 001c 0091     		str	r1, [sp]
 581 001e DBB2     		uxtb	r3, r3
 582 0020 D2B2     		uxtb	r2, r2
 583 0022 0146     		mov	r1, r0
 584 0024 FFF7FEFF 		bl	ssd1306_DrawRectangle
 585              	.LVL69:
 220:Core/Src/ssd1306_tests.c ****     ssd1306_DrawRectangle(1 + (5*delta),1 + (5*delta) ,SSD1306_WIDTH-1 - (5*delta),SSD1306_HEIGHT-1
 586              		.loc 1 220 35 discriminator 3 view .LVU121
 587 0028 0134     		adds	r4, r4, #1
 588              	.LVL70:
 589              	.L23:
 220:Core/Src/ssd1306_tests.c ****     ssd1306_DrawRectangle(1 + (5*delta),1 + (5*delta) ,SSD1306_WIDTH-1 - (5*delta),SSD1306_HEIGHT-1
 590              		.loc 1 220 24 discriminator 1 view .LVU122
 591 002a 042C     		cmp	r4, #4
 592 002c ECD9     		bls	.L24
 222:Core/Src/ssd1306_tests.c ****   }
 223:Core/Src/ssd1306_tests.c ****   ssd1306_UpdateScreen();
 593              		.loc 1 223 3 view .LVU123
 594 002e FFF7FEFF 		bl	ssd1306_UpdateScreen
 595              	.LVL71:
 224:Core/Src/ssd1306_tests.c ****   return;
 596              		.loc 1 224 3 view .LVU124
 225:Core/Src/ssd1306_tests.c **** }
 597              		.loc 1 225 1 is_stmt 0 view .LVU125
 598 0032 02B0     		add	sp, sp, #8
 599              	.LCFI10:
 600              		.cfi_def_cfa_offset 8
 601              		@ sp needed
ARM GAS  C:\Users\ehgre\AppData\Local\Temp\ccsDMEGq.s 			page 16


 602 0034 10BD     		pop	{r4, pc}
 603              		.loc 1 225 1 view .LVU126
 604              		.cfi_endproc
 605              	.LFE324:
 607              		.section	.text.ssd1306_TestCircle,"ax",%progbits
 608              		.align	1
 609              		.global	ssd1306_TestCircle
 610              		.syntax unified
 611              		.thumb
 612              		.thumb_func
 614              	ssd1306_TestCircle:
 615              	.LFB325:
 226:Core/Src/ssd1306_tests.c **** 
 227:Core/Src/ssd1306_tests.c **** void ssd1306_TestCircle() {
 616              		.loc 1 227 27 is_stmt 1 view -0
 617              		.cfi_startproc
 618              		@ args = 0, pretend = 0, frame = 0
 619              		@ frame_needed = 0, uses_anonymous_args = 0
 620 0000 10B5     		push	{r4, lr}
 621              	.LCFI11:
 622              		.cfi_def_cfa_offset 8
 623              		.cfi_offset 4, -8
 624              		.cfi_offset 14, -4
 228:Core/Src/ssd1306_tests.c ****   uint32_t delta;
 625              		.loc 1 228 3 view .LVU128
 229:Core/Src/ssd1306_tests.c **** 
 230:Core/Src/ssd1306_tests.c ****   for(delta = 0; delta < 5; delta ++) {
 626              		.loc 1 230 3 view .LVU129
 627              	.LVL72:
 628              		.loc 1 230 13 is_stmt 0 view .LVU130
 629 0002 0024     		movs	r4, #0
 630              		.loc 1 230 3 view .LVU131
 631 0004 0BE0     		b	.L27
 632              	.LVL73:
 633              	.L28:
 231:Core/Src/ssd1306_tests.c ****     ssd1306_DrawCircle(20* delta+30, 15, 10, White);
 634              		.loc 1 231 5 is_stmt 1 discriminator 3 view .LVU132
 635 0006 04EB8403 		add	r3, r4, r4, lsl #2
 636 000a 9800     		lsls	r0, r3, #2
 637 000c 1E30     		adds	r0, r0, #30
 638 000e 0123     		movs	r3, #1
 639 0010 0A22     		movs	r2, #10
 640 0012 0F21     		movs	r1, #15
 641 0014 00F0FE00 		and	r0, r0, #254
 642 0018 FFF7FEFF 		bl	ssd1306_DrawCircle
 643              	.LVL74:
 230:Core/Src/ssd1306_tests.c ****     ssd1306_DrawCircle(20* delta+30, 15, 10, White);
 644              		.loc 1 230 35 discriminator 3 view .LVU133
 645 001c 0134     		adds	r4, r4, #1
 646              	.LVL75:
 647              	.L27:
 230:Core/Src/ssd1306_tests.c ****     ssd1306_DrawCircle(20* delta+30, 15, 10, White);
 648              		.loc 1 230 24 discriminator 1 view .LVU134
 649 001e 042C     		cmp	r4, #4
 650 0020 F1D9     		bls	.L28
 232:Core/Src/ssd1306_tests.c ****   }
 233:Core/Src/ssd1306_tests.c ****   ssd1306_UpdateScreen();
ARM GAS  C:\Users\ehgre\AppData\Local\Temp\ccsDMEGq.s 			page 17


 651              		.loc 1 233 3 view .LVU135
 652 0022 FFF7FEFF 		bl	ssd1306_UpdateScreen
 653              	.LVL76:
 234:Core/Src/ssd1306_tests.c ****   return;
 654              		.loc 1 234 3 view .LVU136
 235:Core/Src/ssd1306_tests.c **** }
 655              		.loc 1 235 1 is_stmt 0 view .LVU137
 656 0026 10BD     		pop	{r4, pc}
 657              		.loc 1 235 1 view .LVU138
 658              		.cfi_endproc
 659              	.LFE325:
 661              		.section	.text.ssd1306_TestArc,"ax",%progbits
 662              		.align	1
 663              		.global	ssd1306_TestArc
 664              		.syntax unified
 665              		.thumb
 666              		.thumb_func
 668              	ssd1306_TestArc:
 669              	.LFB326:
 236:Core/Src/ssd1306_tests.c **** 
 237:Core/Src/ssd1306_tests.c **** void ssd1306_TestArc() {
 670              		.loc 1 237 24 is_stmt 1 view -0
 671              		.cfi_startproc
 672              		@ args = 0, pretend = 0, frame = 0
 673              		@ frame_needed = 0, uses_anonymous_args = 0
 674 0000 00B5     		push	{lr}
 675              	.LCFI12:
 676              		.cfi_def_cfa_offset 4
 677              		.cfi_offset 14, -4
 678 0002 83B0     		sub	sp, sp, #12
 679              	.LCFI13:
 680              		.cfi_def_cfa_offset 16
 238:Core/Src/ssd1306_tests.c ****   ssd1306_DrawArc(30, 30, 30, 20, 270, White);
 681              		.loc 1 238 3 view .LVU140
 682 0004 0123     		movs	r3, #1
 683 0006 0193     		str	r3, [sp, #4]
 684 0008 4FF48773 		mov	r3, #270
 685 000c 0093     		str	r3, [sp]
 686 000e 1423     		movs	r3, #20
 687 0010 1E22     		movs	r2, #30
 688 0012 1146     		mov	r1, r2
 689 0014 1046     		mov	r0, r2
 690 0016 FFF7FEFF 		bl	ssd1306_DrawArc
 691              	.LVL77:
 239:Core/Src/ssd1306_tests.c ****   ssd1306_UpdateScreen();
 692              		.loc 1 239 3 view .LVU141
 693 001a FFF7FEFF 		bl	ssd1306_UpdateScreen
 694              	.LVL78:
 240:Core/Src/ssd1306_tests.c ****   return;
 695              		.loc 1 240 3 view .LVU142
 241:Core/Src/ssd1306_tests.c **** }
 696              		.loc 1 241 1 is_stmt 0 view .LVU143
 697 001e 03B0     		add	sp, sp, #12
 698              	.LCFI14:
 699              		.cfi_def_cfa_offset 4
 700              		@ sp needed
 701 0020 5DF804FB 		ldr	pc, [sp], #4
ARM GAS  C:\Users\ehgre\AppData\Local\Temp\ccsDMEGq.s 			page 18


 702              		.cfi_endproc
 703              	.LFE326:
 705              		.section	.text.ssd1306_TestPolyline,"ax",%progbits
 706              		.align	1
 707              		.global	ssd1306_TestPolyline
 708              		.syntax unified
 709              		.thumb
 710              		.thumb_func
 712              	ssd1306_TestPolyline:
 713              	.LFB327:
 242:Core/Src/ssd1306_tests.c **** 
 243:Core/Src/ssd1306_tests.c **** void ssd1306_TestPolyline() {
 714              		.loc 1 243 29 is_stmt 1 view -0
 715              		.cfi_startproc
 716              		@ args = 0, pretend = 0, frame = 16
 717              		@ frame_needed = 0, uses_anonymous_args = 0
 718 0000 00B5     		push	{lr}
 719              	.LCFI15:
 720              		.cfi_def_cfa_offset 4
 721              		.cfi_offset 14, -4
 722 0002 85B0     		sub	sp, sp, #20
 723              	.LCFI16:
 724              		.cfi_def_cfa_offset 24
 244:Core/Src/ssd1306_tests.c ****   SSD1306_VERTEX loc_vertex[] =
 725              		.loc 1 244 3 view .LVU145
 726              		.loc 1 244 18 is_stmt 0 view .LVU146
 727 0004 084B     		ldr	r3, .L34
 728 0006 EC46     		mov	ip, sp
 729 0008 0FCB     		ldm	r3, {r0, r1, r2, r3}
 730 000a ACE80700 		stmia	ip!, {r0, r1, r2}
 731 000e ACF80030 		strh	r3, [ip]	@ movhi
 245:Core/Src/ssd1306_tests.c ****   {
 246:Core/Src/ssd1306_tests.c ****       {35,40},
 247:Core/Src/ssd1306_tests.c ****       {40,20},
 248:Core/Src/ssd1306_tests.c ****       {45,28},
 249:Core/Src/ssd1306_tests.c ****       {50,10},
 250:Core/Src/ssd1306_tests.c ****       {45,16},
 251:Core/Src/ssd1306_tests.c ****       {50,10},
 252:Core/Src/ssd1306_tests.c ****       {53,16}
 253:Core/Src/ssd1306_tests.c ****   };
 254:Core/Src/ssd1306_tests.c **** 
 255:Core/Src/ssd1306_tests.c ****   ssd1306_Polyline(loc_vertex,sizeof(loc_vertex)/sizeof(loc_vertex[0]),White);
 732              		.loc 1 255 3 is_stmt 1 view .LVU147
 733 0012 0122     		movs	r2, #1
 734 0014 0721     		movs	r1, #7
 735 0016 6846     		mov	r0, sp
 736 0018 FFF7FEFF 		bl	ssd1306_Polyline
 737              	.LVL79:
 256:Core/Src/ssd1306_tests.c ****   ssd1306_UpdateScreen();
 738              		.loc 1 256 3 view .LVU148
 739 001c FFF7FEFF 		bl	ssd1306_UpdateScreen
 740              	.LVL80:
 257:Core/Src/ssd1306_tests.c ****   return;
 741              		.loc 1 257 3 view .LVU149
 258:Core/Src/ssd1306_tests.c **** }
 742              		.loc 1 258 1 is_stmt 0 view .LVU150
 743 0020 05B0     		add	sp, sp, #20
ARM GAS  C:\Users\ehgre\AppData\Local\Temp\ccsDMEGq.s 			page 19


 744              	.LCFI17:
 745              		.cfi_def_cfa_offset 4
 746              		@ sp needed
 747 0022 5DF804FB 		ldr	pc, [sp], #4
 748              	.L35:
 749 0026 00BF     		.align	2
 750              	.L34:
 751 0028 00000000 		.word	.LANCHOR0
 752              		.cfi_endproc
 753              	.LFE327:
 755              		.section	.text.ssd1306_TestDrawBitmap,"ax",%progbits
 756              		.align	1
 757              		.global	ssd1306_TestDrawBitmap
 758              		.syntax unified
 759              		.thumb
 760              		.thumb_func
 762              	ssd1306_TestDrawBitmap:
 763              	.LFB328:
 259:Core/Src/ssd1306_tests.c **** 
 260:Core/Src/ssd1306_tests.c **** void ssd1306_TestDrawBitmap()
 261:Core/Src/ssd1306_tests.c **** {
 764              		.loc 1 261 1 is_stmt 1 view -0
 765              		.cfi_startproc
 766              		@ args = 0, pretend = 0, frame = 0
 767              		@ frame_needed = 0, uses_anonymous_args = 0
 768 0000 F0B5     		push	{r4, r5, r6, r7, lr}
 769              	.LCFI18:
 770              		.cfi_def_cfa_offset 20
 771              		.cfi_offset 4, -20
 772              		.cfi_offset 5, -16
 773              		.cfi_offset 6, -12
 774              		.cfi_offset 7, -8
 775              		.cfi_offset 14, -4
 776 0002 83B0     		sub	sp, sp, #12
 777              	.LCFI19:
 778              		.cfi_def_cfa_offset 32
 262:Core/Src/ssd1306_tests.c ****     ssd1306_Fill(White);
 779              		.loc 1 262 5 view .LVU152
 780 0004 0120     		movs	r0, #1
 781 0006 FFF7FEFF 		bl	ssd1306_Fill
 782              	.LVL81:
 263:Core/Src/ssd1306_tests.c ****     ssd1306_DrawBitmap(0,0,garfield_128x64,128,64,Black);
 783              		.loc 1 263 5 view .LVU153
 784 000a 0024     		movs	r4, #0
 785 000c 0194     		str	r4, [sp, #4]
 786 000e 4025     		movs	r5, #64
 787 0010 0095     		str	r5, [sp]
 788 0012 8023     		movs	r3, #128
 789 0014 164A     		ldr	r2, .L38
 790 0016 2146     		mov	r1, r4
 791 0018 2046     		mov	r0, r4
 792 001a FFF7FEFF 		bl	ssd1306_DrawBitmap
 793              	.LVL82:
 264:Core/Src/ssd1306_tests.c ****     ssd1306_UpdateScreen();
 794              		.loc 1 264 5 view .LVU154
 795 001e FFF7FEFF 		bl	ssd1306_UpdateScreen
 796              	.LVL83:
ARM GAS  C:\Users\ehgre\AppData\Local\Temp\ccsDMEGq.s 			page 20


 265:Core/Src/ssd1306_tests.c ****     HAL_Delay(3000);
 797              		.loc 1 265 5 view .LVU155
 798 0022 40F6B830 		movw	r0, #3000
 799 0026 FFF7FEFF 		bl	HAL_Delay
 800              	.LVL84:
 266:Core/Src/ssd1306_tests.c ****     ssd1306_Fill(Black);
 801              		.loc 1 266 5 view .LVU156
 802 002a 2046     		mov	r0, r4
 803 002c FFF7FEFF 		bl	ssd1306_Fill
 804              	.LVL85:
 267:Core/Src/ssd1306_tests.c ****     ssd1306_DrawBitmap(32,0,github_logo_64x64,64,64,White);
 805              		.loc 1 267 5 view .LVU157
 806 0030 104E     		ldr	r6, .L38+4
 807 0032 0127     		movs	r7, #1
 808 0034 0197     		str	r7, [sp, #4]
 809 0036 0095     		str	r5, [sp]
 810 0038 2B46     		mov	r3, r5
 811 003a 3246     		mov	r2, r6
 812 003c 2146     		mov	r1, r4
 813 003e 2020     		movs	r0, #32
 814 0040 FFF7FEFF 		bl	ssd1306_DrawBitmap
 815              	.LVL86:
 268:Core/Src/ssd1306_tests.c ****     ssd1306_UpdateScreen();
 816              		.loc 1 268 5 view .LVU158
 817 0044 FFF7FEFF 		bl	ssd1306_UpdateScreen
 818              	.LVL87:
 269:Core/Src/ssd1306_tests.c ****     HAL_Delay(3000);
 819              		.loc 1 269 5 view .LVU159
 820 0048 40F6B830 		movw	r0, #3000
 821 004c FFF7FEFF 		bl	HAL_Delay
 822              	.LVL88:
 270:Core/Src/ssd1306_tests.c ****     ssd1306_Fill(White);
 823              		.loc 1 270 5 view .LVU160
 824 0050 3846     		mov	r0, r7
 825 0052 FFF7FEFF 		bl	ssd1306_Fill
 826              	.LVL89:
 271:Core/Src/ssd1306_tests.c ****     ssd1306_DrawBitmap(32,0,github_logo_64x64,64,64,Black);
 827              		.loc 1 271 5 view .LVU161
 828 0056 0194     		str	r4, [sp, #4]
 829 0058 0095     		str	r5, [sp]
 830 005a 2B46     		mov	r3, r5
 831 005c 3246     		mov	r2, r6
 832 005e 2146     		mov	r1, r4
 833 0060 2020     		movs	r0, #32
 834 0062 FFF7FEFF 		bl	ssd1306_DrawBitmap
 835              	.LVL90:
 272:Core/Src/ssd1306_tests.c ****     ssd1306_UpdateScreen();
 836              		.loc 1 272 5 view .LVU162
 837 0066 FFF7FEFF 		bl	ssd1306_UpdateScreen
 838              	.LVL91:
 273:Core/Src/ssd1306_tests.c **** }
 839              		.loc 1 273 1 is_stmt 0 view .LVU163
 840 006a 03B0     		add	sp, sp, #12
 841              	.LCFI20:
 842              		.cfi_def_cfa_offset 20
 843              		@ sp needed
 844 006c F0BD     		pop	{r4, r5, r6, r7, pc}
ARM GAS  C:\Users\ehgre\AppData\Local\Temp\ccsDMEGq.s 			page 21


 845              	.L39:
 846 006e 00BF     		.align	2
 847              	.L38:
 848 0070 00000000 		.word	garfield_128x64
 849 0074 00000000 		.word	github_logo_64x64
 850              		.cfi_endproc
 851              	.LFE328:
 853              		.section	.text.ssd1306_TestAll,"ax",%progbits
 854              		.align	1
 855              		.global	ssd1306_TestAll
 856              		.syntax unified
 857              		.thumb
 858              		.thumb_func
 860              	ssd1306_TestAll:
 861              	.LFB329:
 274:Core/Src/ssd1306_tests.c **** 
 275:Core/Src/ssd1306_tests.c **** void ssd1306_TestAll() {
 862              		.loc 1 275 24 is_stmt 1 view -0
 863              		.cfi_startproc
 864              		@ args = 0, pretend = 0, frame = 0
 865              		@ frame_needed = 0, uses_anonymous_args = 0
 866 0000 08B5     		push	{r3, lr}
 867              	.LCFI21:
 868              		.cfi_def_cfa_offset 8
 869              		.cfi_offset 3, -8
 870              		.cfi_offset 14, -4
 276:Core/Src/ssd1306_tests.c ****     ssd1306_Init();
 871              		.loc 1 276 5 view .LVU165
 872 0002 FFF7FEFF 		bl	ssd1306_Init
 873              	.LVL92:
 277:Core/Src/ssd1306_tests.c ****     ssd1306_TestFPS();
 874              		.loc 1 277 5 view .LVU166
 875 0006 FFF7FEFF 		bl	ssd1306_TestFPS
 876              	.LVL93:
 278:Core/Src/ssd1306_tests.c ****     HAL_Delay(3000);
 877              		.loc 1 278 5 view .LVU167
 878 000a 40F6B830 		movw	r0, #3000
 879 000e FFF7FEFF 		bl	HAL_Delay
 880              	.LVL94:
 279:Core/Src/ssd1306_tests.c ****     ssd1306_TestBorder();
 881              		.loc 1 279 5 view .LVU168
 882 0012 FFF7FEFF 		bl	ssd1306_TestBorder
 883              	.LVL95:
 280:Core/Src/ssd1306_tests.c ****     ssd1306_TestFonts();
 884              		.loc 1 280 5 view .LVU169
 885 0016 FFF7FEFF 		bl	ssd1306_TestFonts
 886              	.LVL96:
 281:Core/Src/ssd1306_tests.c ****     HAL_Delay(3000);
 887              		.loc 1 281 5 view .LVU170
 888 001a 40F6B830 		movw	r0, #3000
 889 001e FFF7FEFF 		bl	HAL_Delay
 890              	.LVL97:
 282:Core/Src/ssd1306_tests.c ****     ssd1306_Fill(Black);
 891              		.loc 1 282 5 view .LVU171
 892 0022 0020     		movs	r0, #0
 893 0024 FFF7FEFF 		bl	ssd1306_Fill
 894              	.LVL98:
ARM GAS  C:\Users\ehgre\AppData\Local\Temp\ccsDMEGq.s 			page 22


 283:Core/Src/ssd1306_tests.c ****     ssd1306_TestRectangle();
 895              		.loc 1 283 5 view .LVU172
 896 0028 FFF7FEFF 		bl	ssd1306_TestRectangle
 897              	.LVL99:
 284:Core/Src/ssd1306_tests.c ****     ssd1306_TestLine();
 898              		.loc 1 284 5 view .LVU173
 899 002c FFF7FEFF 		bl	ssd1306_TestLine
 900              	.LVL100:
 285:Core/Src/ssd1306_tests.c ****     HAL_Delay(3000);
 901              		.loc 1 285 5 view .LVU174
 902 0030 40F6B830 		movw	r0, #3000
 903 0034 FFF7FEFF 		bl	HAL_Delay
 904              	.LVL101:
 286:Core/Src/ssd1306_tests.c ****     ssd1306_Fill(Black);
 905              		.loc 1 286 5 view .LVU175
 906 0038 0020     		movs	r0, #0
 907 003a FFF7FEFF 		bl	ssd1306_Fill
 908              	.LVL102:
 287:Core/Src/ssd1306_tests.c ****     ssd1306_TestPolyline();
 909              		.loc 1 287 5 view .LVU176
 910 003e FFF7FEFF 		bl	ssd1306_TestPolyline
 911              	.LVL103:
 288:Core/Src/ssd1306_tests.c ****     HAL_Delay(3000);
 912              		.loc 1 288 5 view .LVU177
 913 0042 40F6B830 		movw	r0, #3000
 914 0046 FFF7FEFF 		bl	HAL_Delay
 915              	.LVL104:
 289:Core/Src/ssd1306_tests.c ****     ssd1306_Fill(Black);
 916              		.loc 1 289 5 view .LVU178
 917 004a 0020     		movs	r0, #0
 918 004c FFF7FEFF 		bl	ssd1306_Fill
 919              	.LVL105:
 290:Core/Src/ssd1306_tests.c ****     ssd1306_TestArc();
 920              		.loc 1 290 5 view .LVU179
 921 0050 FFF7FEFF 		bl	ssd1306_TestArc
 922              	.LVL106:
 291:Core/Src/ssd1306_tests.c ****     HAL_Delay(3000);
 923              		.loc 1 291 5 view .LVU180
 924 0054 40F6B830 		movw	r0, #3000
 925 0058 FFF7FEFF 		bl	HAL_Delay
 926              	.LVL107:
 292:Core/Src/ssd1306_tests.c ****     ssd1306_Fill(Black);
 927              		.loc 1 292 5 view .LVU181
 928 005c 0020     		movs	r0, #0
 929 005e FFF7FEFF 		bl	ssd1306_Fill
 930              	.LVL108:
 293:Core/Src/ssd1306_tests.c ****     ssd1306_TestCircle();
 931              		.loc 1 293 5 view .LVU182
 932 0062 FFF7FEFF 		bl	ssd1306_TestCircle
 933              	.LVL109:
 294:Core/Src/ssd1306_tests.c ****     HAL_Delay(3000);
 934              		.loc 1 294 5 view .LVU183
 935 0066 40F6B830 		movw	r0, #3000
 936 006a FFF7FEFF 		bl	HAL_Delay
 937              	.LVL110:
 295:Core/Src/ssd1306_tests.c ****     ssd1306_TestDrawBitmap();
 938              		.loc 1 295 5 view .LVU184
ARM GAS  C:\Users\ehgre\AppData\Local\Temp\ccsDMEGq.s 			page 23


 939 006e FFF7FEFF 		bl	ssd1306_TestDrawBitmap
 940              	.LVL111:
 296:Core/Src/ssd1306_tests.c ****     HAL_Delay(3000);
 941              		.loc 1 296 5 view .LVU185
 942 0072 40F6B830 		movw	r0, #3000
 943 0076 FFF7FEFF 		bl	HAL_Delay
 944              	.LVL112:
 297:Core/Src/ssd1306_tests.c **** }
 945              		.loc 1 297 1 is_stmt 0 view .LVU186
 946 007a 08BD     		pop	{r3, pc}
 947              		.cfi_endproc
 948              	.LFE329:
 950              		.global	github_logo_64x64
 951              		.section	.rodata.github_logo_64x64,"a"
 952              		.align	2
 955              	github_logo_64x64:
 956 0000 0000001F 		.ascii	"\000\000\000\037\370\000\000\000\000\000\003\377\377"
 956      F8000000 
 956      000003FF 
 956      FF
 957 000d 80000000 		.ascii	"\200\000\000\000\000\017\377\377\360\000\000\000\000"
 957      000FFFFF 
 957      F0000000 
 957      00
 958 001a 3FFFFFFC 		.ascii	"?\377\377\374\000\000\000\000\377\377\377\377\000\000"
 958      00000000 
 958      FFFFFFFF 
 958      0000
 959 0028 0003FFFF 		.ascii	"\000\003\377\377\377\377\300\000\000\007\377\377\377"
 959      FFFFC000 
 959      0007FFFF 
 959      FF
 960 0035 FFE00000 		.ascii	"\377\340\000\000\017\377\377\377\377\360\000\000?\377"
 960      0FFFFFFF 
 960      FFF00000 
 960      3FFF
 961 0043 FFFFFFFC 		.ascii	"\377\377\377\374\000\000\177\377\377\377\377\376\000"
 961      00007FFF 
 961      FFFFFFFE 
 961      00
 962 0050 00FFFFFF 		.ascii	"\000\377\377\377\377\377\377\000\000\377\377\377\377"
 962      FFFFFF00 
 962      00FFFFFF 
 962      FF
 963 005d FFFF0001 		.ascii	"\377\377\000\001\377\377\377\377\377\377\200\003\376"
 963      FFFFFFFF 
 963      FFFF8003 
 963      FE
 964 006a 3FFFFFFC 		.ascii	"?\377\377\374\177\300\007\376\007\377\377\340\177\340"
 964      7FC007FE 
 964      07FFFFE0 
 964      7FE0
 965 0078 07FE01F8 		.ascii	"\007\376\001\370\037\300?\340\017\374\000\000\000\000"
 965      1FC03FE0 
 965      0FFC0000 
 965      0000
 966 0086 3FF00FFC 		.ascii	"?\360\017\374\000\000\000\000?\360\037\374\000\000\000"
ARM GAS  C:\Users\ehgre\AppData\Local\Temp\ccsDMEGq.s 			page 24


 966      00000000 
 966      3FF01FFC 
 966      000000
 967 0095 003FF81F 		.ascii	"\000?\370\037\374\000\000\000\000?\370?\376\000\000"
 967      FC000000 
 967      003FF83F 
 967      FE0000
 968 00a4 00003FFC 		.ascii	"\000\000?\374?\376\000\000\000\000\177\374\177\374\000"
 968      3FFE0000 
 968      00007FFC 
 968      7FFC00
 969 00b3 0000003F 		.ascii	"\000\000\000?\374\177\374\000\000\000\000\037\376\177"
 969      FC7FFC00 
 969      0000001F 
 969      FE7F
 970 00c1 F8000000 		.ascii	"\370\000\000\000\000\037\376\177\370\000\000\000\000"
 970      001FFE7F 
 970      F8000000 
 970      00
 971 00ce 0FFE7FF0 		.ascii	"\017\376\177\360\000\000\000\000\017\376\377\360\000"
 971      00000000 
 971      0FFEFFF0 
 971      00
 972 00db 0000000F 		.ascii	"\000\000\000\017\377\377\360\000\000\000\000\017\377"
 972      FFFFF000 
 972      0000000F 
 972      FF
 973 00e8 FFF00000 		.ascii	"\377\360\000\000\000\000\007\377\377\360\000\000\000"
 973      000007FF 
 973      FFF00000 
 973      00
 974 00f5 0007FFFF 		.ascii	"\000\007\377\377\360\000\000\000\000\007\377\377\360"
 974      F0000000 
 974      0007FFFF 
 974      F0
 975 0102 00000000 		.ascii	"\000\000\000\000\017\377\377\360\000\000\000\000\017"
 975      0FFFFFF0 
 975      00000000 
 975      0F
 976 010f FFFFF000 		.ascii	"\377\377\360\000\000\000\000\017\377\377\360\000\000"
 976      0000000F 
 976      FFFFF000 
 976      00
 977 011c 00000FFF 		.ascii	"\000\000\017\377\377\360\000\000\000\000\017\377\177"
 977      FFF00000 
 977      00000FFF 
 977      7F
 978 0129 F8000000 		.ascii	"\370\000\000\000\000\037\376\177\370\000\000\000\000"
 978      001FFE7F 
 978      F8000000 
 978      00
 979 0136 1FFE7FFC 		.ascii	"\037\376\177\374\000\000\000\000?\376\177\374\000\000"
 979      00000000 
 979      3FFE7FFC 
 979      0000
 980 0144 00003FFE 		.ascii	"\000\000?\376\177\376\000\000\000\000\177\374?\377\000"
 980      7FFE0000 
ARM GAS  C:\Users\ehgre\AppData\Local\Temp\ccsDMEGq.s 			page 25


 980      00007FFC 
 980      3FFF00
 981 0153 000000FF 		.ascii	"\000\000\000\377\374?\377\300\000\000\001\377\374\037"
 981      FC3FFFC0 
 981      000001FF 
 981      FC1F
 982 0161 9FE00000 		.ascii	"\237\340\000\000\007\377\370\037\207\374\000\000?\377"
 982      07FFF81F 
 982      87FC0000 
 982      3FFF
 983 016f F80FC3FF 		.ascii	"\370\017\303\377\300\001\377\377\360\017\341\377\200"
 983      C001FFFF 
 983      F00FE1FF 
 983      80
 984 017c 01FFFFF0 		.ascii	"\001\377\377\360\007\361\377\200\000\377\377\340\007"
 984      07F1FF80 
 984      00FFFFE0 
 984      07
 985 0189 F0FF0000 		.ascii	"\360\377\000\000\377\377\340\003\370?\000\000\377\377"
 985      FFFFE003 
 985      F83F0000 
 985      FFFF
 986 0197 C001F800 		.ascii	"\300\001\370\000\000\000\377\377\200\000\374\000\000"
 986      0000FFFF 
 986      8000FC00 
 986      00
 987 01a4 00FFFF00 		.ascii	"\000\377\377\000\000\376\000\000\000\377\377\000\000"
 987      00FE0000 
 987      00FFFF00 
 987      00
 988 01b1 7F000000 		.ascii	"\177\000\000\000\377\376\000\000?\377\000\000\377\374"
 988      FFFE0000 
 988      3FFF0000 
 988      FFFC
 989 01bf 00000FFF 		.ascii	"\000\000\017\377\000\000\377\360\000\000\007\377\000"
 989      0000FFF0 
 989      000007FF 
 989      00
 990 01cc 00FFE000 		.ascii	"\000\377\340\000\000\003\377\000\000\377\300\000\000"
 990      0003FF00 
 990      00FFC000 
 990      00
 991 01d9 00FF0000 		.ascii	"\000\377\000\000\377\000\000\000\000?\000\000\374\000"
 991      FF000000 
 991      003F0000 
 991      FC00
 992 01e7 0000000F 		.ascii	"\000\000\000\017\000\000\360\000\000\000\000\000\000"
 992      0000F000 
 992      00000000 
 992      00
 993 01f4 00000000 		.ascii	"\000\000\000\000\000\000\000\000\000\000\000\000"
 993      00000000 
 993      00000000 
 994              		.global	garfield_128x64
 995              		.section	.rodata.garfield_128x64,"a"
 996              		.align	2
 999              	garfield_128x64:
ARM GAS  C:\Users\ehgre\AppData\Local\Temp\ccsDMEGq.s 			page 26


 1000 0000 00000000 		.ascii	"\000\000\000\000\000\000\000\000\000\000\000\000\000"
 1000      00000000 
 1000      00000000 
 1000      00
 1001 000d 00000000 		.ascii	"\000\000\000\000\000\000\000\000\007\377\000\000\000"
 1001      00000000 
 1001      07FF0000 
 1001      00
 1002 001a 00000000 		.ascii	"\000\000\000\000\000\000\000\000\000\000\000\037\377"
 1002      00000000 
 1002      0000001F 
 1002      FF
 1003 0027 F87FE000 		.ascii	"\370\177\340\000\000\000\000\000\000\000\000\000\000"
 1003      00000000 
 1003      00000000 
 1003      00
 1004 0034 003FFFCF 		.ascii	"\000?\377\317\377\376\000\000\000\000\000\000\000\000"
 1004      FFFE0000 
 1004      00000000 
 1004      0000
 1005 0042 0000003F 		.ascii	"\000\000\000?\373\343\377\363\200\000\000\000\000\000"
 1005      FBE3FFF3 
 1005      80000000 
 1005      0000
 1006 0050 00000000 		.ascii	"\000\000\000\000\000?\300\363\377\370\340\000\000\000"
 1006      003FC0F3 
 1006      FFF8E000 
 1006      0000
 1007 005e 00000000 		.ascii	"\000\000\000\000\000\000\000\037\000\037\331\3748\000"
 1007      0000001F 
 1007      001FD9FC 
 1007      3800
 1008 006c 00000000 		.ascii	"\000\000\000\000\000\000\000\000\000\015\000\017\000"
 1008      00000000 
 1008      000D000F 
 1008      00
 1009 0079 1E0C0000 		.ascii	"\036\014\000\000\000\000\000\000\000\000\000\014\014"
 1009      00000000 
 1009      0000000C 
 1009      0C
 1010 0086 0E1FF803 		.ascii	"\016\037\370\003\004\000\000\000\000\000\000\000\000"
 1010      04000000 
 1010      00000000 
 1010      00
 1011 0093 000387F0 		.ascii	"\000\003\207\360\007\000\001\206\000\000\000\000\000"
 1011      07000186 
 1011      00000000 
 1011      00
 1012 00a0 00000000 		.ascii	"\000\000\000\000\030;\200\030\0000\303\000\000\000\000"
 1012      183B8018 
 1012      0030C300 
 1012      000000
 1013 00af 00000000 		.ascii	"\000\000\000\000\000\000\376\000`\000\030\303\001\300"
 1013      0000FE00 
 1013      600018C3 
 1013      01C0
 1014 00bd 00000000 		.ascii	"\000\000\000\000\000\000\000?\374\001\200\000\017\303"
ARM GAS  C:\Users\ehgre\AppData\Local\Temp\ccsDMEGq.s 			page 27


 1014      0000003F 
 1014      FC018000 
 1014      0FC3
 1015 00cb 8FC00000 		.ascii	"\217\300\000\000\000\000\000\000\000\007\360\003\000"
 1015      00000000 
 1015      0007F003 
 1015      00
 1016 00d8 000C07F0 		.ascii	"\000\014\007\360\000\000\000\000\000\000\000\000\017"
 1016      00000000 
 1016      00000000 
 1016      0F
 1017 00e5 E00C0000 		.ascii	"\340\014\000\000\014\007\377\370\000\000\000\000\000"
 1017      0C07FFF8 
 1017      00000000 
 1017      00
 1018 00f2 000038C0 		.ascii	"\000\0008\300\030\000\000\010\017\377\360\000\000\000"
 1018      18000008 
 1018      0FFFF000 
 1018      0000
 1019 0100 00000000 		.ascii	"\000\000\000\000q\2000\000\000\010\017\374\374\000\000"
 1019      71803000 
 1019      00080FFC 
 1019      FC0000
 1020 010f 00000000 		.ascii	"\000\000\000\000\000\367\000`\000\000\030?\376\000\000"
 1020      00F70060 
 1020      0000183F 
 1020      FE0000
 1021 011e 00000000 		.ascii	"\000\000\000\000\000\001\377\000`\000\000\030\177\376"
 1021      0001FF00 
 1021      60000018 
 1021      7FFE
 1022 012c 00000000 		.ascii	"\000\000\000\000\000\000\000\003\377\000\300\000\000"
 1022      00000003 
 1022      FF00C000 
 1022      00
 1023 0139 30FF1F00 		.ascii	"0\377\037\000\000\000\000\000\000\000\003\203\340\300"
 1023      00000000 
 1023      00000383 
 1023      E0C0
 1024 0147 00006000 		.ascii	"\000\000`\000\003\000\000\000\000\000\000\000\007\003"
 1024      03000000 
 1024      00000000 
 1024      0703
 1025 0155 1FFFFFFF 		.ascii	"\037\377\377\377\300\000\003\200\000\000\000\000\000"
 1025      C0000380 
 1025      00000000 
 1025      00
 1026 0162 000E0100 		.ascii	"\000\016\001\000\347\300\003\200\000\017\200\000\000"
 1026      E7C00380 
 1026      000F8000 
 1026      00
 1027 016f 00000000 		.ascii	"\000\000\000\000\017\001\200\340\000\006\000\000\377"
 1027      0F0180E0 
 1027      00060000 
 1027      FF
 1028 017c 80000000 		.ascii	"\200\000\000\000\000\000\000\017\203\177\360\0008\000"
 1028      0000000F 
ARM GAS  C:\Users\ehgre\AppData\Local\Temp\ccsDMEGq.s 			page 28


 1028      837FF000 
 1028      3800
 1029 018a 26FF8000 		.ascii	"&\377\200\000\000\000\000\000\000\017\334\030\037\207"
 1029      00000000 
 1029      000FDC18 
 1029      1F87
 1030 0198 E00026EF 		.ascii	"\340\000&\357\200\000\000\000\000\000\000\017\270\016"
 1030      80000000 
 1030      0000000F 
 1030      B80E
 1031 01a6 18003000 		.ascii	"\030\0000\000\004\317\200\000\000\000\000\000\000\017"
 1031      04CF8000 
 1031      00000000 
 1031      000F
 1032 01b4 300FC000 		.ascii	"0\017\300\000\030\000\000\217\200\000\000\000\000\000"
 1032      1800008F 
 1032      80000000 
 1032      0000
 1033 01c2 00073038 		.ascii	"\000\00708p\000\030\000\000\017\000\000\000\000\000"
 1033      70001800 
 1033      000F0000 
 1033      000000
 1034 01d1 00000718 		.ascii	"\000\000\007\030\000\037\000\030;\200\016\000\000\000"
 1034      001F0018 
 1034      3B800E00 
 1034      0000
 1035 01df 00000000 		.ascii	"\000\000\000\000\003\216\000\003\200p\037\370\034\000"
 1035      038E0003 
 1035      80701FF8 
 1035      1C00
 1036 01ed 00000000 		.ascii	"\000\000\000\000\000\000\001\377\200\000\003\340\037"
 1036      000001FF 
 1036      800003E0 
 1036      1F
 1037 01fa FFF80000 		.ascii	"\377\370\000\000\000\000\000\000\000\000\177\206\000"
 1037      00000000 
 1037      00007F86 
 1037      00
 1038 0207 3F1F07FF 		.ascii	"?\037\007\377\340\000\000\000\000\000\000\000\000\017"
 1038      E0000000 
 1038      00000000 
 1038      000F
 1039 0215 C300003F 		.ascii	"\303\000\000?\001\377\200\000\000\000\000\000\000\000"
 1039      01FF8000 
 1039      00000000 
 1039      0000
 1040 0223 0001FF80 		.ascii	"\000\001\377\200\000?\307\374\000\000\000\000\000\000"
 1040      003FC7FC 
 1040      00000000 
 1040      0000
 1041 0231 00000000 		.ascii	"\000\000\000\000s\340\007\377\377\370\000\000\000\000"
 1041      73E007FF 
 1041      FFF80000 
 1041      0000
 1042 023f 00000000 		.ascii	"\000\000\000\000\000\000\300\000\007\300?\370\000\000"
 1042      0000C000 
 1042      07C03FF8 
ARM GAS  C:\Users\ehgre\AppData\Local\Temp\ccsDMEGq.s 			page 29


 1042      0000
 1043 024d 00000000 		.ascii	"\000\000\000\000\000\000\000\003\000\000\000\000?\370"
 1043      00000003 
 1043      00000000 
 1043      3FF8
 1044 025b 00000000 		.ascii	"\000\000\000\000\000\000\000\000\000\016\000\000\000"
 1044      00000000 
 1044      000E0000 
 1044      00
 1045 0268 003EF800 		.ascii	"\000>\370\000\000\000\000\000\000\000\000\000\030\000"
 1045      00000000 
 1045      00000000 
 1045      1800
 1046 0276 000000A4 		.ascii	"\000\000\000\244\360\000\000\000\000\000\000\000\000"
 1046      F0000000 
 1046      00000000 
 1046      00
 1047 0283 00700000 		.ascii	"\000p\000\000\026\001\300x\000\000\000\000\000\000\000"
 1047      1601C078 
 1047      00000000 
 1047      000000
 1048 0292 0000E000 		.ascii	"\000\000\340\000\000\036\001\300>\000\000\000\000\000"
 1048      001E01C0 
 1048      3E000000 
 1048      0000
 1049 02a0 00000001 		.ascii	"\000\000\000\001\300\000\000\014\001\200?\000\000\000"
 1049      C000000C 
 1049      01803F00 
 1049      0000
 1050 02ae 00000000 		.ascii	"\000\000\000\000\000\003\200\000\000\004\001\363\377"
 1050      00038000 
 1050      000401F3 
 1050      FF
 1051 02bb C0000000 		.ascii	"\300\000\000\000\000\000\000\000\007\000\000\000\014"
 1051      00000000 
 1051      07000000 
 1051      0C
 1052 02c8 01EFF7E0 		.ascii	"\001\357\367\340\000\000\000\000\000\000\000\016\000"
 1052      00000000 
 1052      0000000E 
 1052      00
 1053 02d5 00001800 		.ascii	"\000\000\030\000\007\360`\000\000\000\000\000\000\000"
 1053      07F06000 
 1053      00000000 
 1053      0000
 1054 02e3 0C000000 		.ascii	"\014\000\000\000\030\000\007\200p\000\000\000\000\000"
 1054      18000780 
 1054      70000000 
 1054      0000
 1055 02f1 00001800 		.ascii	"\000\000\030\000\000\0000\000\006\004\360\000\000\000"
 1055      00003000 
 1055      0604F000 
 1055      0000
 1056 02ff 00000000 		.ascii	"\000\000\000\0008\000\000\000`\000\014\034\360\000\000"
 1056      38000000 
 1056      60000C1C 
 1056      F00000
ARM GAS  C:\Users\ehgre\AppData\Local\Temp\ccsDMEGq.s 			page 30


 1057 030e 00000000 		.ascii	"\000\000\000\000\0000\000\000\000\300\000\037\377\360"
 1057      00300000 
 1057      00C0001F 
 1057      FFF0
 1058 031c 00000000 		.ascii	"\000\000\000\000\000\000\0000\000\000\001\200\000\001"
 1058      00000030 
 1058      00000180 
 1058      0001
 1059 032a FDF00000 		.ascii	"\375\360\000\000\000\000\000\000\0000\000\000\003\000"
 1059      00000000 
 1059      00300000 
 1059      0300
 1060 0338 0000FDF0 		.ascii	"\000\000\375\360\000\000\000\000\000\000\0000\000\000"
 1060      00000000 
 1060      00000030 
 1060      0000
 1061 0346 07000001 		.ascii	"\007\000\000\001\301\340\000\000\000\000\000\000\000"
 1061      C1E00000 
 1061      00000000 
 1061      00
 1062 0353 18000007 		.ascii	"\030\000\000\007\000\000\003\201\340\000\000\000\000"
 1062      00000381 
 1062      E0000000 
 1062      00
 1063 0360 0000000C 		.ascii	"\000\000\000\014\000\000\007\000\000\007\377\300\000"
 1063      00000700 
 1063      0007FFC0 
 1063      00
 1064 036d 00000000 		.ascii	"\000\000\000\000\000\000\006\000\000\003\300\0009\377"
 1064      00000600 
 1064      0003C000 
 1064      39FF
 1065 037b 80000000 		.ascii	"\200\000\000\000\000\000\000\000\003\200\000\001\360"
 1065      00000000 
 1065      03800001 
 1065      F0
 1066 0388 01E3FF00 		.ascii	"\001\343\377\000\000\000\000\000\000\000\000\000\340"
 1066      00000000 
 1066      00000000 
 1066      E0
 1067 0395 00001F03 		.ascii	"\000\000\037\003\215\376\000\000\000\000\000\000\000"
 1067      8DFE0000 
 1067      00000000 
 1067      00
 1068 03a2 00001E00 		.ascii	"\000\000\036\000\000\003\374=\376\000\000\000\000\000"
 1068      0003FC3D 
 1068      FE000000 
 1068      0000
 1069 03b0 00000000 		.ascii	"\000\000\000\000\001\370\000\003\300?\376\000\000\000"
 1069      01F80003 
 1069      C03FFE00 
 1069      0000
 1070 03be 00000000 		.ascii	"\000\000\000\000\000\000\000\007\377\377\300?\376\000"
 1070      00000007 
 1070      FFFFC03F 
 1070      FE00
 1071 03cc 00000000 		.ascii	"\000\000\000\000\000\000\000\000\000\003\377\361\300"
ARM GAS  C:\Users\ehgre\AppData\Local\Temp\ccsDMEGq.s 			page 31


 1071      00000000 
 1071      0003FFF1 
 1071      C0
 1072 03d9 3FFE0000 		.ascii	"?\376\000\000\000\000\000\000\000\000\000\000\003\377"
 1072      00000000 
 1072      00000000 
 1072      03FF
 1073 03e7 E0C03FFE 		.ascii	"\340\300?\376\000\000\000\000\000\000\000\000\000\000"
 1073      00000000 
 1073      00000000 
 1073      0000
 1074 03f5 03FFE0C0 		.ascii	"\003\377\340\300?\236\000\000\000\000\000"
 1074      3F9E0000 
 1074      000000
 1075              		.section	.rodata
 1076              		.align	2
 1077              		.set	.LANCHOR0,. + 0
 1078              	.LC0:
 1079 0000 23       		.byte	35
 1080 0001 28       		.byte	40
 1081 0002 28       		.byte	40
 1082 0003 14       		.byte	20
 1083 0004 2D       		.byte	45
 1084 0005 1C       		.byte	28
 1085 0006 32       		.byte	50
 1086 0007 0A       		.byte	10
 1087 0008 2D       		.byte	45
 1088 0009 10       		.byte	16
 1089 000a 32       		.byte	50
 1090 000b 0A       		.byte	10
 1091 000c 35       		.byte	53
 1092 000d 10       		.byte	16
 1093              		.text
 1094              	.Letext0:
 1095              		.file 2 "c:\\users\\ehgre\\desktop\\plugg\\inbyggda system\\tools\\arm-gnu-toolchain-12.2.mpacbti-
 1096              		.file 3 "c:\\users\\ehgre\\desktop\\plugg\\inbyggda system\\tools\\arm-gnu-toolchain-12.2.mpacbti-
 1097              		.file 4 "c:\\users\\ehgre\\desktop\\plugg\\inbyggda system\\tools\\arm-gnu-toolchain-12.2.mpacbti-
 1098              		.file 5 "Core/Inc/ssd1306_fonts.h"
 1099              		.file 6 "Core/Inc/ssd1306.h"
 1100              		.file 7 "c:\\users\\ehgre\\desktop\\plugg\\inbyggda system\\tools\\arm-gnu-toolchain-12.2.mpacbti-
 1101              		.file 8 "c:\\users\\ehgre\\desktop\\plugg\\inbyggda system\\tools\\arm-gnu-toolchain-12.2.mpacbti-
 1102              		.file 9 "Drivers/STM32L4xx_HAL_Driver/Inc/stm32l4xx_hal.h"
ARM GAS  C:\Users\ehgre\AppData\Local\Temp\ccsDMEGq.s 			page 32

