ARM GAS  C:\Users\ehgre\AppData\Local\Temp\ccwqnhSc.s 			page 1


   1              		.cpu cortex-m4
   2              		.arch armv7e-m
   3              		.fpu fpv4-sp-d16
   4              		.eabi_attribute 27, 1
   5              		.eabi_attribute 28, 1
   6              		.eabi_attribute 20, 1
   7              		.eabi_attribute 21, 1
   8              		.eabi_attribute 23, 3
   9              		.eabi_attribute 24, 1
  10              		.eabi_attribute 25, 1
  11              		.eabi_attribute 26, 1
  12              		.eabi_attribute 30, 1
  13              		.eabi_attribute 34, 1
  14              		.eabi_attribute 18, 4
  15              		.file	"Traffic_Light.c"
  16              		.text
  17              	.Ltext0:
  18              		.cfi_sections	.debug_frame
  19              		.file 1 "Core/Src/Traffic_Light.c"
  20              		.section	.text.Init_States,"ax",%progbits
  21              		.align	1
  22              		.global	Init_States
  23              		.syntax unified
  24              		.thumb
  25              		.thumb_func
  27              	Init_States:
  28              	.LFB320:
   1:Core/Src/Traffic_Light.c **** #include <stdio.h>
   2:Core/Src/Traffic_Light.c **** #include <stdlib.h>
   3:Core/Src/Traffic_Light.c **** #include <stdbool.h>
   4:Core/Src/Traffic_Light.c **** #include <string.h>
   5:Core/Src/Traffic_Light.c **** 
   6:Core/Src/Traffic_Light.c **** #include "main.h"
   7:Core/Src/Traffic_Light.c **** #include "stm32l4xx_it.h"
   8:Core/Src/Traffic_Light.c **** #include "stm32l4xx_hal_conf.h"
   9:Core/Src/Traffic_Light.c **** #include "shift_register.h"
  10:Core/Src/Traffic_Light.c **** #include "light_logic.h"
  11:Core/Src/Traffic_Light.c **** #include "Traffic_Light.h"
  12:Core/Src/Traffic_Light.c **** #include "tim.h"
  13:Core/Src/Traffic_Light.c **** #include "interactions.h"
  14:Core/Src/Traffic_Light.c **** #include "OledDelayBars.h"
  15:Core/Src/Traffic_Light.c **** #include "potentiometer.h"
  16:Core/Src/Traffic_Light.c **** #include "math.h"
  17:Core/Src/Traffic_Light.c **** #include "ssd1306.h"
  18:Core/Src/Traffic_Light.c **** 
  19:Core/Src/Traffic_Light.c **** //In Miliseconds
  20:Core/Src/Traffic_Light.c **** #define toggleFreq 200 //Pedestrian blue light toggle frequency
  21:Core/Src/Traffic_Light.c **** 
  22:Core/Src/Traffic_Light.c **** //In Seconds
  23:Core/Src/Traffic_Light.c **** #define pedestrianDelay 5 //Pedestrian wait after press duration
  24:Core/Src/Traffic_Light.c **** #define walkingDelay 10 //Pedestrian green duration
  25:Core/Src/Traffic_Light.c **** #define orangeDelay 1 // TrafficLight Orange/Yellow state duration
  26:Core/Src/Traffic_Light.c **** #define greenDelay 7 // trafficlight direction change when no active cars duration
  27:Core/Src/Traffic_Light.c **** #define redDelayMax 7 // trafficlight direction change when atleast 1 car from both directions are 
  28:Core/Src/Traffic_Light.c **** 
  29:Core/Src/Traffic_Light.c **** typedef enum{   
  30:Core/Src/Traffic_Light.c ****     PLRed,
ARM GAS  C:\Users\ehgre\AppData\Local\Temp\ccwqnhSc.s 			page 2


  31:Core/Src/Traffic_Light.c ****     PLGreen,
  32:Core/Src/Traffic_Light.c ****     PLBlue
  33:Core/Src/Traffic_Light.c **** } crosswalk;
  34:Core/Src/Traffic_Light.c **** 
  35:Core/Src/Traffic_Light.c **** typedef enum{   
  36:Core/Src/Traffic_Light.c ****     TLRed,
  37:Core/Src/Traffic_Light.c ****     TLGreen
  38:Core/Src/Traffic_Light.c **** } TLcrossing;
  39:Core/Src/Traffic_Light.c **** 
  40:Core/Src/Traffic_Light.c **** typedef enum{   
  41:Core/Src/Traffic_Light.c ****     G1,
  42:Core/Src/Traffic_Light.c ****     G2
  43:Core/Src/Traffic_Light.c **** } crossingSwitch;
  44:Core/Src/Traffic_Light.c **** 
  45:Core/Src/Traffic_Light.c **** struct crossing
  46:Core/Src/Traffic_Light.c **** {
  47:Core/Src/Traffic_Light.c ****     char crossingName[4];
  48:Core/Src/Traffic_Light.c ****     TLcrossing light;
  49:Core/Src/Traffic_Light.c **** };
  50:Core/Src/Traffic_Light.c **** 
  51:Core/Src/Traffic_Light.c **** struct crossing C1, C2, C3, C4;
  52:Core/Src/Traffic_Light.c **** 
  53:Core/Src/Traffic_Light.c **** static crosswalk CW1, CW2;
  54:Core/Src/Traffic_Light.c **** 
  55:Core/Src/Traffic_Light.c **** static crossingSwitch NCWaitingState;
  56:Core/Src/Traffic_Light.c **** 
  57:Core/Src/Traffic_Light.c **** uint8_t brightness = 0;
  58:Core/Src/Traffic_Light.c **** 
  59:Core/Src/Traffic_Light.c **** uint8_t PLBlueDelay = 0;
  60:Core/Src/Traffic_Light.c **** 
  61:Core/Src/Traffic_Light.c **** uint8_t PLGreenDelay = 0;
  62:Core/Src/Traffic_Light.c **** 
  63:Core/Src/Traffic_Light.c **** uint8_t TLYellowDelay = 0;
  64:Core/Src/Traffic_Light.c **** 
  65:Core/Src/Traffic_Light.c **** uint8_t TLRedWaitTime = 0;
  66:Core/Src/Traffic_Light.c **** 
  67:Core/Src/Traffic_Light.c **** uint8_t NCWaitingDelay = 0;
  68:Core/Src/Traffic_Light.c **** 
  69:Core/Src/Traffic_Light.c **** uint16_t msTick = 1;
  70:Core/Src/Traffic_Light.c **** 
  71:Core/Src/Traffic_Light.c **** uint16_t TickFlash = 1;
  72:Core/Src/Traffic_Light.c **** 
  73:Core/Src/Traffic_Light.c **** uint8_t Tick = 1;
  74:Core/Src/Traffic_Light.c **** 
  75:Core/Src/Traffic_Light.c **** uint32_t bits = 0;
  76:Core/Src/Traffic_Light.c **** 
  77:Core/Src/Traffic_Light.c **** bool NoCarsWaiting = true;
  78:Core/Src/Traffic_Light.c **** 
  79:Core/Src/Traffic_Light.c **** bool BlueOn = false;
  80:Core/Src/Traffic_Light.c **** 
  81:Core/Src/Traffic_Light.c **** void Init_States(){
  29              		.loc 1 81 19 view -0
  30              		.cfi_startproc
  31              		@ args = 0, pretend = 0, frame = 0
  32              		@ frame_needed = 0, uses_anonymous_args = 0
  33              		@ link register save eliminated.
  34 0000 30B4     		push	{r4, r5}
ARM GAS  C:\Users\ehgre\AppData\Local\Temp\ccwqnhSc.s 			page 3


  35              	.LCFI0:
  36              		.cfi_def_cfa_offset 8
  37              		.cfi_offset 4, -8
  38              		.cfi_offset 5, -4
  82:Core/Src/Traffic_Light.c ****     C1.light = TLRed;
  39              		.loc 1 82 5 view .LVU1
  40              		.loc 1 82 14 is_stmt 0 view .LVU2
  41 0002 0E4C     		ldr	r4, .L3
  42 0004 0023     		movs	r3, #0
  43 0006 2371     		strb	r3, [r4, #4]
  83:Core/Src/Traffic_Light.c ****     C2.light = TLGreen;
  44              		.loc 1 83 5 is_stmt 1 view .LVU3
  45              		.loc 1 83 14 is_stmt 0 view .LVU4
  46 0008 0D48     		ldr	r0, .L3+4
  47 000a 4FF0010C 		mov	ip, #1
  48 000e 80F804C0 		strb	ip, [r0, #4]
  84:Core/Src/Traffic_Light.c ****     C3.light = TLRed;
  49              		.loc 1 84 5 is_stmt 1 view .LVU5
  50              		.loc 1 84 14 is_stmt 0 view .LVU6
  51 0012 0C49     		ldr	r1, .L3+8
  52 0014 0B71     		strb	r3, [r1, #4]
  85:Core/Src/Traffic_Light.c ****     C4.light = TLGreen;
  53              		.loc 1 85 5 is_stmt 1 view .LVU7
  54              		.loc 1 85 14 is_stmt 0 view .LVU8
  55 0016 0C4A     		ldr	r2, .L3+12
  56 0018 82F804C0 		strb	ip, [r2, #4]
  86:Core/Src/Traffic_Light.c ****     strcpy(C1.crossingName, "TL1");
  57              		.loc 1 86 5 is_stmt 1 view .LVU9
  58 001c 0B4D     		ldr	r5, .L3+16
  59 001e 2560     		str	r5, [r4]
  87:Core/Src/Traffic_Light.c ****     strcpy(C2.crossingName, "TL2");
  60              		.loc 1 87 5 view .LVU10
  61 0020 0B4C     		ldr	r4, .L3+20
  62 0022 0460     		str	r4, [r0]
  88:Core/Src/Traffic_Light.c ****     strcpy(C3.crossingName, "TL3");
  63              		.loc 1 88 5 view .LVU11
  64 0024 0B48     		ldr	r0, .L3+24
  65 0026 0860     		str	r0, [r1]
  89:Core/Src/Traffic_Light.c ****     strcpy(C4.crossingName, "TL4");
  66              		.loc 1 89 5 view .LVU12
  67 0028 0B49     		ldr	r1, .L3+28
  68 002a 1160     		str	r1, [r2]
  90:Core/Src/Traffic_Light.c ****     CW1 = PLRed;
  69              		.loc 1 90 5 view .LVU13
  70              		.loc 1 90 9 is_stmt 0 view .LVU14
  71 002c 0B4A     		ldr	r2, .L3+32
  72 002e 1370     		strb	r3, [r2]
  91:Core/Src/Traffic_Light.c ****     CW2 = PLRed;
  73              		.loc 1 91 5 is_stmt 1 view .LVU15
  74              		.loc 1 91 9 is_stmt 0 view .LVU16
  75 0030 0B4A     		ldr	r2, .L3+36
  76 0032 1370     		strb	r3, [r2]
  92:Core/Src/Traffic_Light.c ****     NCWaitingState = G1;
  77              		.loc 1 92 5 is_stmt 1 view .LVU17
  78              		.loc 1 92 20 is_stmt 0 view .LVU18
  79 0034 0B4A     		ldr	r2, .L3+40
  80 0036 1370     		strb	r3, [r2]
ARM GAS  C:\Users\ehgre\AppData\Local\Temp\ccwqnhSc.s 			page 4


  93:Core/Src/Traffic_Light.c **** }
  81              		.loc 1 93 1 view .LVU19
  82 0038 30BC     		pop	{r4, r5}
  83              	.LCFI1:
  84              		.cfi_restore 5
  85              		.cfi_restore 4
  86              		.cfi_def_cfa_offset 0
  87 003a 7047     		bx	lr
  88              	.L4:
  89              		.align	2
  90              	.L3:
  91 003c 00000000 		.word	C1
  92 0040 00000000 		.word	C2
  93 0044 00000000 		.word	C3
  94 0048 00000000 		.word	C4
  95 004c 544C3100 		.word	3230804
  96 0050 544C3200 		.word	3296340
  97 0054 544C3300 		.word	3361876
  98 0058 544C3400 		.word	3427412
  99 005c 00000000 		.word	CW1
 100 0060 00000000 		.word	CW2
 101 0064 00000000 		.word	NCWaitingState
 102              		.cfi_endproc
 103              	.LFE320:
 105              		.section	.rodata.IsIllegalGreenState.str1.4,"aMS",%progbits,1
 106              		.align	2
 107              	.LC0:
 108 0000 544C3100 		.ascii	"TL1\000"
 109              		.align	2
 110              	.LC1:
 111 0004 544C3300 		.ascii	"TL3\000"
 112              		.align	2
 113              	.LC2:
 114 0008 544C3200 		.ascii	"TL2\000"
 115              		.align	2
 116              	.LC3:
 117 000c 544C3400 		.ascii	"TL4\000"
 118              		.section	.text.IsIllegalGreenState,"ax",%progbits
 119              		.align	1
 120              		.global	IsIllegalGreenState
 121              		.syntax unified
 122              		.thumb
 123              		.thumb_func
 125              	IsIllegalGreenState:
 126              	.LFB321:
  94:Core/Src/Traffic_Light.c **** 
  95:Core/Src/Traffic_Light.c **** TLcrossing IsIllegalGreenState(struct crossing state){
 127              		.loc 1 95 54 is_stmt 1 view -0
 128              		.cfi_startproc
 129              		@ args = 0, pretend = 0, frame = 8
 130              		@ frame_needed = 0, uses_anonymous_args = 0
 131 0000 00B5     		push	{lr}
 132              	.LCFI2:
 133              		.cfi_def_cfa_offset 4
 134              		.cfi_offset 14, -4
 135 0002 83B0     		sub	sp, sp, #12
 136              	.LCFI3:
ARM GAS  C:\Users\ehgre\AppData\Local\Temp\ccwqnhSc.s 			page 5


 137              		.cfi_def_cfa_offset 16
 138 0004 6B46     		mov	r3, sp
 139 0006 83E80300 		stm	r3, {r0, r1}
  96:Core/Src/Traffic_Light.c ****     if(strcmp(state.crossingName, "TL1") == 0){
 140              		.loc 1 96 5 view .LVU21
 141              		.loc 1 96 8 is_stmt 0 view .LVU22
 142 000a 5449     		ldr	r1, .L30
 143 000c 1846     		mov	r0, r3
 144 000e FFF7FEFF 		bl	strcmp
 145              	.LVL0:
 146              		.loc 1 96 7 view .LVU23
 147 0012 18BB     		cbnz	r0, .L6
  97:Core/Src/Traffic_Light.c ****         if((C2.light == TLRed) && (C4.light == TLRed) && (CW1 != PLGreen) && (NCWaitingState == G1)
 148              		.loc 1 97 9 is_stmt 1 view .LVU24
 149              		.loc 1 97 15 is_stmt 0 view .LVU25
 150 0014 524B     		ldr	r3, .L30+4
 151 0016 1B79     		ldrb	r3, [r3, #4]	@ zero_extendqisi2
 152              		.loc 1 97 11 view .LVU26
 153 0018 9BB9     		cbnz	r3, .L7
 154              		.loc 1 97 38 discriminator 1 view .LVU27
 155 001a 524B     		ldr	r3, .L30+8
 156 001c 1B79     		ldrb	r3, [r3, #4]	@ zero_extendqisi2
 157              		.loc 1 97 32 discriminator 1 view .LVU28
 158 001e 83B9     		cbnz	r3, .L7
 159              		.loc 1 97 63 discriminator 2 view .LVU29
 160 0020 514B     		ldr	r3, .L30+12
 161 0022 1B78     		ldrb	r3, [r3]	@ zero_extendqisi2
 162              		.loc 1 97 55 discriminator 2 view .LVU30
 163 0024 012B     		cmp	r3, #1
 164 0026 0CD0     		beq	.L7
 165              		.loc 1 97 94 discriminator 3 view .LVU31
 166 0028 504B     		ldr	r3, .L30+16
 167 002a 1B78     		ldrb	r3, [r3]	@ zero_extendqisi2
 168              		.loc 1 97 75 discriminator 3 view .LVU32
 169 002c 4BB9     		cbnz	r3, .L7
  98:Core/Src/Traffic_Light.c ****             if(state.light == TLRed){
 170              		.loc 1 98 13 is_stmt 1 view .LVU33
 171              		.loc 1 98 21 is_stmt 0 view .LVU34
 172 002e 9DF80430 		ldrb	r3, [sp, #4]	@ zero_extendqisi2
 173              		.loc 1 98 15 view .LVU35
 174 0032 23B9     		cbnz	r3, .L8
  99:Core/Src/Traffic_Light.c ****                 TLYellowDelay = orangeDelay;
 175              		.loc 1 99 17 is_stmt 1 view .LVU36
 176              		.loc 1 99 31 is_stmt 0 view .LVU37
 177 0034 0123     		movs	r3, #1
 178 0036 4E4A     		ldr	r2, .L30+20
 179 0038 1370     		strb	r3, [r2]
 100:Core/Src/Traffic_Light.c ****                 msTick = 1;
 180              		.loc 1 100 17 is_stmt 1 view .LVU38
 181              		.loc 1 100 24 is_stmt 0 view .LVU39
 182 003a 4E4A     		ldr	r2, .L30+24
 183 003c 1380     		strh	r3, [r2]	@ movhi
 184              	.L8:
 101:Core/Src/Traffic_Light.c ****             }
 102:Core/Src/Traffic_Light.c ****             return TLGreen;
 185              		.loc 1 102 13 is_stmt 1 view .LVU40
 186              		.loc 1 102 20 is_stmt 0 view .LVU41
ARM GAS  C:\Users\ehgre\AppData\Local\Temp\ccwqnhSc.s 			page 6


 187 003e 0120     		movs	r0, #1
 188 0040 04E0     		b	.L5
 189              	.L7:
 103:Core/Src/Traffic_Light.c ****         }else{
 104:Core/Src/Traffic_Light.c ****             if(state.light == TLGreen){
 190              		.loc 1 104 13 is_stmt 1 view .LVU42
 191              		.loc 1 104 21 is_stmt 0 view .LVU43
 192 0042 9DF80430 		ldrb	r3, [sp, #4]	@ zero_extendqisi2
 193              		.loc 1 104 15 view .LVU44
 194 0046 012B     		cmp	r3, #1
 195 0048 03D0     		beq	.L24
 196              	.L10:
 105:Core/Src/Traffic_Light.c ****                 TLYellowDelay = orangeDelay;
 106:Core/Src/Traffic_Light.c ****                 msTick = 1;
 107:Core/Src/Traffic_Light.c ****             }
 108:Core/Src/Traffic_Light.c ****             return TLRed;
 197              		.loc 1 108 13 is_stmt 1 view .LVU45
 198              		.loc 1 108 20 is_stmt 0 view .LVU46
 199 004a 0020     		movs	r0, #0
 200              	.L5:
 109:Core/Src/Traffic_Light.c ****         }
 110:Core/Src/Traffic_Light.c ****     }else if(strcmp(state.crossingName, "TL3") == 0){
 111:Core/Src/Traffic_Light.c ****         if((C2.light == TLRed) && (C4.light == TLRed) && (CW2 != PLGreen) && (CW1 != PLGreen) && (N
 112:Core/Src/Traffic_Light.c ****             if(state.light == TLRed){
 113:Core/Src/Traffic_Light.c ****                 TLYellowDelay = orangeDelay;
 114:Core/Src/Traffic_Light.c ****                 msTick = 1;
 115:Core/Src/Traffic_Light.c ****             }
 116:Core/Src/Traffic_Light.c ****             return TLGreen;
 117:Core/Src/Traffic_Light.c ****         }else{
 118:Core/Src/Traffic_Light.c ****             if(state.light == TLGreen){
 119:Core/Src/Traffic_Light.c ****                 TLYellowDelay = orangeDelay;
 120:Core/Src/Traffic_Light.c ****                 msTick = 1;
 121:Core/Src/Traffic_Light.c ****             }
 122:Core/Src/Traffic_Light.c ****             return TLRed;
 123:Core/Src/Traffic_Light.c ****         }
 124:Core/Src/Traffic_Light.c ****     }else if(strcmp(state.crossingName, "TL2") == 0){
 125:Core/Src/Traffic_Light.c ****         if((C1.light == TLRed) && (C3.light == TLRed) && (CW2 != PLGreen) && (NCWaitingState == G2)
 126:Core/Src/Traffic_Light.c ****             if(state.light == TLRed){
 127:Core/Src/Traffic_Light.c ****                 TLYellowDelay = orangeDelay;
 128:Core/Src/Traffic_Light.c ****                 msTick = 1;
 129:Core/Src/Traffic_Light.c ****             }
 130:Core/Src/Traffic_Light.c ****             return TLGreen;
 131:Core/Src/Traffic_Light.c ****         }else{
 132:Core/Src/Traffic_Light.c ****             if(state.light == TLGreen){
 133:Core/Src/Traffic_Light.c ****                 TLYellowDelay = orangeDelay;
 134:Core/Src/Traffic_Light.c ****                 msTick = 1;
 135:Core/Src/Traffic_Light.c ****             }
 136:Core/Src/Traffic_Light.c ****             return TLRed;
 137:Core/Src/Traffic_Light.c ****         }
 138:Core/Src/Traffic_Light.c ****     }else if(strcmp(state.crossingName, "TL4") == 0){
 139:Core/Src/Traffic_Light.c ****         if((C1.light == TLRed) && (C3.light == TLRed) && (CW1 != PLGreen) && (CW2 != PLGreen) && (N
 140:Core/Src/Traffic_Light.c ****             if(state.light == TLRed){
 141:Core/Src/Traffic_Light.c ****                 TLYellowDelay = orangeDelay;
 142:Core/Src/Traffic_Light.c ****                 msTick = 1;
 143:Core/Src/Traffic_Light.c ****             }
 144:Core/Src/Traffic_Light.c ****             return TLGreen;
 145:Core/Src/Traffic_Light.c ****         }else{
ARM GAS  C:\Users\ehgre\AppData\Local\Temp\ccwqnhSc.s 			page 7


 146:Core/Src/Traffic_Light.c ****             if(state.light == TLGreen){
 147:Core/Src/Traffic_Light.c ****                 TLYellowDelay = orangeDelay;
 148:Core/Src/Traffic_Light.c ****                 msTick = 1;
 149:Core/Src/Traffic_Light.c ****             }
 150:Core/Src/Traffic_Light.c ****             return TLRed;
 151:Core/Src/Traffic_Light.c ****         }
 152:Core/Src/Traffic_Light.c ****     }
 153:Core/Src/Traffic_Light.c **** }
 201              		.loc 1 153 1 view .LVU47
 202 004c 03B0     		add	sp, sp, #12
 203              	.LCFI4:
 204              		.cfi_remember_state
 205              		.cfi_def_cfa_offset 4
 206              		@ sp needed
 207 004e 5DF804FB 		ldr	pc, [sp], #4
 208              	.L24:
 209              	.LCFI5:
 210              		.cfi_restore_state
 105:Core/Src/Traffic_Light.c ****                 TLYellowDelay = orangeDelay;
 211              		.loc 1 105 17 is_stmt 1 view .LVU48
 105:Core/Src/Traffic_Light.c ****                 TLYellowDelay = orangeDelay;
 212              		.loc 1 105 31 is_stmt 0 view .LVU49
 213 0052 474A     		ldr	r2, .L30+20
 214 0054 1370     		strb	r3, [r2]
 106:Core/Src/Traffic_Light.c ****             }
 215              		.loc 1 106 17 is_stmt 1 view .LVU50
 106:Core/Src/Traffic_Light.c ****             }
 216              		.loc 1 106 24 is_stmt 0 view .LVU51
 217 0056 474A     		ldr	r2, .L30+24
 218 0058 1380     		strh	r3, [r2]	@ movhi
 219 005a F6E7     		b	.L10
 220              	.L6:
 110:Core/Src/Traffic_Light.c ****         if((C2.light == TLRed) && (C4.light == TLRed) && (CW2 != PLGreen) && (CW1 != PLGreen) && (N
 221              		.loc 1 110 11 is_stmt 1 view .LVU52
 110:Core/Src/Traffic_Light.c ****         if((C2.light == TLRed) && (C4.light == TLRed) && (CW2 != PLGreen) && (CW1 != PLGreen) && (N
 222              		.loc 1 110 14 is_stmt 0 view .LVU53
 223 005c 4649     		ldr	r1, .L30+28
 224 005e 6846     		mov	r0, sp
 225 0060 FFF7FEFF 		bl	strcmp
 226              	.LVL1:
 110:Core/Src/Traffic_Light.c ****         if((C2.light == TLRed) && (C4.light == TLRed) && (CW2 != PLGreen) && (CW1 != PLGreen) && (N
 227              		.loc 1 110 13 view .LVU54
 228 0064 28BB     		cbnz	r0, .L11
 111:Core/Src/Traffic_Light.c ****             if(state.light == TLRed){
 229              		.loc 1 111 9 is_stmt 1 view .LVU55
 111:Core/Src/Traffic_Light.c ****             if(state.light == TLRed){
 230              		.loc 1 111 15 is_stmt 0 view .LVU56
 231 0066 3E4B     		ldr	r3, .L30+4
 232 0068 1B79     		ldrb	r3, [r3, #4]	@ zero_extendqisi2
 111:Core/Src/Traffic_Light.c ****             if(state.light == TLRed){
 233              		.loc 1 111 11 view .LVU57
 234 006a BBB9     		cbnz	r3, .L12
 111:Core/Src/Traffic_Light.c ****             if(state.light == TLRed){
 235              		.loc 1 111 38 discriminator 1 view .LVU58
 236 006c 3D4B     		ldr	r3, .L30+8
 237 006e 1B79     		ldrb	r3, [r3, #4]	@ zero_extendqisi2
 111:Core/Src/Traffic_Light.c ****             if(state.light == TLRed){
ARM GAS  C:\Users\ehgre\AppData\Local\Temp\ccwqnhSc.s 			page 8


 238              		.loc 1 111 32 discriminator 1 view .LVU59
 239 0070 A3B9     		cbnz	r3, .L12
 111:Core/Src/Traffic_Light.c ****             if(state.light == TLRed){
 240              		.loc 1 111 63 discriminator 2 view .LVU60
 241 0072 424B     		ldr	r3, .L30+32
 242 0074 1B78     		ldrb	r3, [r3]	@ zero_extendqisi2
 111:Core/Src/Traffic_Light.c ****             if(state.light == TLRed){
 243              		.loc 1 111 55 discriminator 2 view .LVU61
 244 0076 012B     		cmp	r3, #1
 245 0078 10D0     		beq	.L12
 111:Core/Src/Traffic_Light.c ****             if(state.light == TLRed){
 246              		.loc 1 111 83 discriminator 3 view .LVU62
 247 007a 3B4B     		ldr	r3, .L30+12
 248 007c 1B78     		ldrb	r3, [r3]	@ zero_extendqisi2
 111:Core/Src/Traffic_Light.c ****             if(state.light == TLRed){
 249              		.loc 1 111 75 discriminator 3 view .LVU63
 250 007e 012B     		cmp	r3, #1
 251 0080 0CD0     		beq	.L12
 111:Core/Src/Traffic_Light.c ****             if(state.light == TLRed){
 252              		.loc 1 111 114 discriminator 4 view .LVU64
 253 0082 3A4B     		ldr	r3, .L30+16
 254 0084 1B78     		ldrb	r3, [r3]	@ zero_extendqisi2
 111:Core/Src/Traffic_Light.c ****             if(state.light == TLRed){
 255              		.loc 1 111 95 discriminator 4 view .LVU65
 256 0086 4BB9     		cbnz	r3, .L12
 112:Core/Src/Traffic_Light.c ****                 TLYellowDelay = orangeDelay;
 257              		.loc 1 112 13 is_stmt 1 view .LVU66
 112:Core/Src/Traffic_Light.c ****                 TLYellowDelay = orangeDelay;
 258              		.loc 1 112 21 is_stmt 0 view .LVU67
 259 0088 9DF80430 		ldrb	r3, [sp, #4]	@ zero_extendqisi2
 112:Core/Src/Traffic_Light.c ****                 TLYellowDelay = orangeDelay;
 260              		.loc 1 112 15 view .LVU68
 261 008c 23B9     		cbnz	r3, .L13
 113:Core/Src/Traffic_Light.c ****                 msTick = 1;
 262              		.loc 1 113 17 is_stmt 1 view .LVU69
 113:Core/Src/Traffic_Light.c ****                 msTick = 1;
 263              		.loc 1 113 31 is_stmt 0 view .LVU70
 264 008e 0123     		movs	r3, #1
 265 0090 374A     		ldr	r2, .L30+20
 266 0092 1370     		strb	r3, [r2]
 114:Core/Src/Traffic_Light.c ****             }
 267              		.loc 1 114 17 is_stmt 1 view .LVU71
 114:Core/Src/Traffic_Light.c ****             }
 268              		.loc 1 114 24 is_stmt 0 view .LVU72
 269 0094 374A     		ldr	r2, .L30+24
 270 0096 1380     		strh	r3, [r2]	@ movhi
 271              	.L13:
 116:Core/Src/Traffic_Light.c ****         }else{
 272              		.loc 1 116 13 is_stmt 1 view .LVU73
 116:Core/Src/Traffic_Light.c ****         }else{
 273              		.loc 1 116 20 is_stmt 0 view .LVU74
 274 0098 0120     		movs	r0, #1
 275 009a D7E7     		b	.L5
 276              	.L12:
 118:Core/Src/Traffic_Light.c ****                 TLYellowDelay = orangeDelay;
 277              		.loc 1 118 13 is_stmt 1 view .LVU75
 118:Core/Src/Traffic_Light.c ****                 TLYellowDelay = orangeDelay;
ARM GAS  C:\Users\ehgre\AppData\Local\Temp\ccwqnhSc.s 			page 9


 278              		.loc 1 118 21 is_stmt 0 view .LVU76
 279 009c 9DF80430 		ldrb	r3, [sp, #4]	@ zero_extendqisi2
 118:Core/Src/Traffic_Light.c ****                 TLYellowDelay = orangeDelay;
 280              		.loc 1 118 15 view .LVU77
 281 00a0 012B     		cmp	r3, #1
 282 00a2 01D0     		beq	.L25
 283              	.L14:
 122:Core/Src/Traffic_Light.c ****         }
 284              		.loc 1 122 13 is_stmt 1 view .LVU78
 122:Core/Src/Traffic_Light.c ****         }
 285              		.loc 1 122 20 is_stmt 0 view .LVU79
 286 00a4 0020     		movs	r0, #0
 287 00a6 D1E7     		b	.L5
 288              	.L25:
 119:Core/Src/Traffic_Light.c ****                 msTick = 1;
 289              		.loc 1 119 17 is_stmt 1 view .LVU80
 119:Core/Src/Traffic_Light.c ****                 msTick = 1;
 290              		.loc 1 119 31 is_stmt 0 view .LVU81
 291 00a8 314A     		ldr	r2, .L30+20
 292 00aa 1370     		strb	r3, [r2]
 120:Core/Src/Traffic_Light.c ****             }
 293              		.loc 1 120 17 is_stmt 1 view .LVU82
 120:Core/Src/Traffic_Light.c ****             }
 294              		.loc 1 120 24 is_stmt 0 view .LVU83
 295 00ac 314A     		ldr	r2, .L30+24
 296 00ae 1380     		strh	r3, [r2]	@ movhi
 297 00b0 F8E7     		b	.L14
 298              	.L11:
 124:Core/Src/Traffic_Light.c ****         if((C1.light == TLRed) && (C3.light == TLRed) && (CW2 != PLGreen) && (NCWaitingState == G2)
 299              		.loc 1 124 11 is_stmt 1 view .LVU84
 124:Core/Src/Traffic_Light.c ****         if((C1.light == TLRed) && (C3.light == TLRed) && (CW2 != PLGreen) && (NCWaitingState == G2)
 300              		.loc 1 124 14 is_stmt 0 view .LVU85
 301 00b2 3349     		ldr	r1, .L30+36
 302 00b4 6846     		mov	r0, sp
 303 00b6 FFF7FEFF 		bl	strcmp
 304              	.LVL2:
 124:Core/Src/Traffic_Light.c ****         if((C1.light == TLRed) && (C3.light == TLRed) && (CW2 != PLGreen) && (NCWaitingState == G2)
 305              		.loc 1 124 13 view .LVU86
 306 00ba 10BB     		cbnz	r0, .L15
 125:Core/Src/Traffic_Light.c ****             if(state.light == TLRed){
 307              		.loc 1 125 9 is_stmt 1 view .LVU87
 125:Core/Src/Traffic_Light.c ****             if(state.light == TLRed){
 308              		.loc 1 125 15 is_stmt 0 view .LVU88
 309 00bc 314B     		ldr	r3, .L30+40
 310 00be 1B79     		ldrb	r3, [r3, #4]	@ zero_extendqisi2
 125:Core/Src/Traffic_Light.c ****             if(state.light == TLRed){
 311              		.loc 1 125 11 view .LVU89
 312 00c0 53B9     		cbnz	r3, .L16
 125:Core/Src/Traffic_Light.c ****             if(state.light == TLRed){
 313              		.loc 1 125 38 discriminator 1 view .LVU90
 314 00c2 314B     		ldr	r3, .L30+44
 315 00c4 1B79     		ldrb	r3, [r3, #4]	@ zero_extendqisi2
 125:Core/Src/Traffic_Light.c ****             if(state.light == TLRed){
 316              		.loc 1 125 32 discriminator 1 view .LVU91
 317 00c6 3BB9     		cbnz	r3, .L16
 125:Core/Src/Traffic_Light.c ****             if(state.light == TLRed){
 318              		.loc 1 125 63 discriminator 2 view .LVU92
ARM GAS  C:\Users\ehgre\AppData\Local\Temp\ccwqnhSc.s 			page 10


 319 00c8 2C4B     		ldr	r3, .L30+32
 320 00ca 1B78     		ldrb	r3, [r3]	@ zero_extendqisi2
 125:Core/Src/Traffic_Light.c ****             if(state.light == TLRed){
 321              		.loc 1 125 55 discriminator 2 view .LVU93
 322 00cc 012B     		cmp	r3, #1
 323 00ce 03D0     		beq	.L16
 125:Core/Src/Traffic_Light.c ****             if(state.light == TLRed){
 324              		.loc 1 125 94 discriminator 3 view .LVU94
 325 00d0 264B     		ldr	r3, .L30+16
 326 00d2 1878     		ldrb	r0, [r3]	@ zero_extendqisi2
 125:Core/Src/Traffic_Light.c ****             if(state.light == TLRed){
 327              		.loc 1 125 75 discriminator 3 view .LVU95
 328 00d4 0128     		cmp	r0, #1
 329 00d6 05D0     		beq	.L26
 330              	.L16:
 132:Core/Src/Traffic_Light.c ****                 TLYellowDelay = orangeDelay;
 331              		.loc 1 132 13 is_stmt 1 view .LVU96
 132:Core/Src/Traffic_Light.c ****                 TLYellowDelay = orangeDelay;
 332              		.loc 1 132 21 is_stmt 0 view .LVU97
 333 00d8 9DF80430 		ldrb	r3, [sp, #4]	@ zero_extendqisi2
 132:Core/Src/Traffic_Light.c ****                 TLYellowDelay = orangeDelay;
 334              		.loc 1 132 15 view .LVU98
 335 00dc 012B     		cmp	r3, #1
 336 00de 0BD0     		beq	.L27
 337              	.L18:
 136:Core/Src/Traffic_Light.c ****         }
 338              		.loc 1 136 13 is_stmt 1 view .LVU99
 136:Core/Src/Traffic_Light.c ****         }
 339              		.loc 1 136 20 is_stmt 0 view .LVU100
 340 00e0 0020     		movs	r0, #0
 341 00e2 B3E7     		b	.L5
 342              	.L26:
 126:Core/Src/Traffic_Light.c ****                 TLYellowDelay = orangeDelay;
 343              		.loc 1 126 13 is_stmt 1 view .LVU101
 126:Core/Src/Traffic_Light.c ****                 TLYellowDelay = orangeDelay;
 344              		.loc 1 126 21 is_stmt 0 view .LVU102
 345 00e4 9DF80430 		ldrb	r3, [sp, #4]	@ zero_extendqisi2
 126:Core/Src/Traffic_Light.c ****                 TLYellowDelay = orangeDelay;
 346              		.loc 1 126 15 view .LVU103
 347 00e8 002B     		cmp	r3, #0
 348 00ea AFD1     		bne	.L5
 127:Core/Src/Traffic_Light.c ****                 msTick = 1;
 349              		.loc 1 127 17 is_stmt 1 view .LVU104
 127:Core/Src/Traffic_Light.c ****                 msTick = 1;
 350              		.loc 1 127 31 is_stmt 0 view .LVU105
 351 00ec 0123     		movs	r3, #1
 352 00ee 204A     		ldr	r2, .L30+20
 353 00f0 1370     		strb	r3, [r2]
 128:Core/Src/Traffic_Light.c ****             }
 354              		.loc 1 128 17 is_stmt 1 view .LVU106
 128:Core/Src/Traffic_Light.c ****             }
 355              		.loc 1 128 24 is_stmt 0 view .LVU107
 356 00f2 204A     		ldr	r2, .L30+24
 357 00f4 1380     		strh	r3, [r2]	@ movhi
 130:Core/Src/Traffic_Light.c ****         }else{
 358              		.loc 1 130 13 is_stmt 1 view .LVU108
 130:Core/Src/Traffic_Light.c ****         }else{
ARM GAS  C:\Users\ehgre\AppData\Local\Temp\ccwqnhSc.s 			page 11


 359              		.loc 1 130 20 is_stmt 0 view .LVU109
 360 00f6 A9E7     		b	.L5
 361              	.L27:
 133:Core/Src/Traffic_Light.c ****                 msTick = 1;
 362              		.loc 1 133 17 is_stmt 1 view .LVU110
 133:Core/Src/Traffic_Light.c ****                 msTick = 1;
 363              		.loc 1 133 31 is_stmt 0 view .LVU111
 364 00f8 1D4A     		ldr	r2, .L30+20
 365 00fa 1370     		strb	r3, [r2]
 134:Core/Src/Traffic_Light.c ****             }
 366              		.loc 1 134 17 is_stmt 1 view .LVU112
 134:Core/Src/Traffic_Light.c ****             }
 367              		.loc 1 134 24 is_stmt 0 view .LVU113
 368 00fc 1D4A     		ldr	r2, .L30+24
 369 00fe 1380     		strh	r3, [r2]	@ movhi
 370 0100 EEE7     		b	.L18
 371              	.L15:
 138:Core/Src/Traffic_Light.c ****         if((C1.light == TLRed) && (C3.light == TLRed) && (CW1 != PLGreen) && (CW2 != PLGreen) && (N
 372              		.loc 1 138 11 is_stmt 1 view .LVU114
 138:Core/Src/Traffic_Light.c ****         if((C1.light == TLRed) && (C3.light == TLRed) && (CW1 != PLGreen) && (CW2 != PLGreen) && (N
 373              		.loc 1 138 14 is_stmt 0 view .LVU115
 374 0102 2249     		ldr	r1, .L30+48
 375 0104 6846     		mov	r0, sp
 376 0106 FFF7FEFF 		bl	strcmp
 377              	.LVL3:
 138:Core/Src/Traffic_Light.c ****         if((C1.light == TLRed) && (C3.light == TLRed) && (CW1 != PLGreen) && (CW2 != PLGreen) && (N
 378              		.loc 1 138 13 view .LVU116
 379 010a 0028     		cmp	r0, #0
 380 010c 9ED1     		bne	.L5
 139:Core/Src/Traffic_Light.c ****             if(state.light == TLRed){
 381              		.loc 1 139 9 is_stmt 1 view .LVU117
 139:Core/Src/Traffic_Light.c ****             if(state.light == TLRed){
 382              		.loc 1 139 15 is_stmt 0 view .LVU118
 383 010e 1D4B     		ldr	r3, .L30+40
 384 0110 1B79     		ldrb	r3, [r3, #4]	@ zero_extendqisi2
 139:Core/Src/Traffic_Light.c ****             if(state.light == TLRed){
 385              		.loc 1 139 11 view .LVU119
 386 0112 73B9     		cbnz	r3, .L20
 139:Core/Src/Traffic_Light.c ****             if(state.light == TLRed){
 387              		.loc 1 139 38 discriminator 1 view .LVU120
 388 0114 1C4B     		ldr	r3, .L30+44
 389 0116 1B79     		ldrb	r3, [r3, #4]	@ zero_extendqisi2
 139:Core/Src/Traffic_Light.c ****             if(state.light == TLRed){
 390              		.loc 1 139 32 discriminator 1 view .LVU121
 391 0118 5BB9     		cbnz	r3, .L20
 139:Core/Src/Traffic_Light.c ****             if(state.light == TLRed){
 392              		.loc 1 139 63 discriminator 2 view .LVU122
 393 011a 134B     		ldr	r3, .L30+12
 394 011c 1B78     		ldrb	r3, [r3]	@ zero_extendqisi2
 139:Core/Src/Traffic_Light.c ****             if(state.light == TLRed){
 395              		.loc 1 139 55 discriminator 2 view .LVU123
 396 011e 012B     		cmp	r3, #1
 397 0120 07D0     		beq	.L20
 139:Core/Src/Traffic_Light.c ****             if(state.light == TLRed){
 398              		.loc 1 139 83 discriminator 3 view .LVU124
 399 0122 164B     		ldr	r3, .L30+32
 400 0124 1B78     		ldrb	r3, [r3]	@ zero_extendqisi2
ARM GAS  C:\Users\ehgre\AppData\Local\Temp\ccwqnhSc.s 			page 12


 139:Core/Src/Traffic_Light.c ****             if(state.light == TLRed){
 401              		.loc 1 139 75 discriminator 3 view .LVU125
 402 0126 012B     		cmp	r3, #1
 403 0128 03D0     		beq	.L20
 139:Core/Src/Traffic_Light.c ****             if(state.light == TLRed){
 404              		.loc 1 139 114 discriminator 4 view .LVU126
 405 012a 104B     		ldr	r3, .L30+16
 406 012c 1878     		ldrb	r0, [r3]	@ zero_extendqisi2
 139:Core/Src/Traffic_Light.c ****             if(state.light == TLRed){
 407              		.loc 1 139 95 discriminator 4 view .LVU127
 408 012e 0128     		cmp	r0, #1
 409 0130 05D0     		beq	.L28
 410              	.L20:
 146:Core/Src/Traffic_Light.c ****                 TLYellowDelay = orangeDelay;
 411              		.loc 1 146 13 is_stmt 1 view .LVU128
 146:Core/Src/Traffic_Light.c ****                 TLYellowDelay = orangeDelay;
 412              		.loc 1 146 21 is_stmt 0 view .LVU129
 413 0132 9DF80430 		ldrb	r3, [sp, #4]	@ zero_extendqisi2
 146:Core/Src/Traffic_Light.c ****                 TLYellowDelay = orangeDelay;
 414              		.loc 1 146 15 view .LVU130
 415 0136 012B     		cmp	r3, #1
 416 0138 0BD0     		beq	.L29
 417              	.L22:
 150:Core/Src/Traffic_Light.c ****         }
 418              		.loc 1 150 13 is_stmt 1 view .LVU131
 150:Core/Src/Traffic_Light.c ****         }
 419              		.loc 1 150 20 is_stmt 0 view .LVU132
 420 013a 0020     		movs	r0, #0
 421 013c 86E7     		b	.L5
 422              	.L28:
 140:Core/Src/Traffic_Light.c ****                 TLYellowDelay = orangeDelay;
 423              		.loc 1 140 13 is_stmt 1 view .LVU133
 140:Core/Src/Traffic_Light.c ****                 TLYellowDelay = orangeDelay;
 424              		.loc 1 140 21 is_stmt 0 view .LVU134
 425 013e 9DF80430 		ldrb	r3, [sp, #4]	@ zero_extendqisi2
 140:Core/Src/Traffic_Light.c ****                 TLYellowDelay = orangeDelay;
 426              		.loc 1 140 15 view .LVU135
 427 0142 002B     		cmp	r3, #0
 428 0144 82D1     		bne	.L5
 141:Core/Src/Traffic_Light.c ****                 msTick = 1;
 429              		.loc 1 141 17 is_stmt 1 view .LVU136
 141:Core/Src/Traffic_Light.c ****                 msTick = 1;
 430              		.loc 1 141 31 is_stmt 0 view .LVU137
 431 0146 0123     		movs	r3, #1
 432 0148 094A     		ldr	r2, .L30+20
 433 014a 1370     		strb	r3, [r2]
 142:Core/Src/Traffic_Light.c ****             }
 434              		.loc 1 142 17 is_stmt 1 view .LVU138
 142:Core/Src/Traffic_Light.c ****             }
 435              		.loc 1 142 24 is_stmt 0 view .LVU139
 436 014c 094A     		ldr	r2, .L30+24
 437 014e 1380     		strh	r3, [r2]	@ movhi
 144:Core/Src/Traffic_Light.c ****         }else{
 438              		.loc 1 144 13 is_stmt 1 view .LVU140
 144:Core/Src/Traffic_Light.c ****         }else{
 439              		.loc 1 144 20 is_stmt 0 view .LVU141
 440 0150 7CE7     		b	.L5
ARM GAS  C:\Users\ehgre\AppData\Local\Temp\ccwqnhSc.s 			page 13


 441              	.L29:
 147:Core/Src/Traffic_Light.c ****                 msTick = 1;
 442              		.loc 1 147 17 is_stmt 1 view .LVU142
 147:Core/Src/Traffic_Light.c ****                 msTick = 1;
 443              		.loc 1 147 31 is_stmt 0 view .LVU143
 444 0152 074A     		ldr	r2, .L30+20
 445 0154 1370     		strb	r3, [r2]
 148:Core/Src/Traffic_Light.c ****             }
 446              		.loc 1 148 17 is_stmt 1 view .LVU144
 148:Core/Src/Traffic_Light.c ****             }
 447              		.loc 1 148 24 is_stmt 0 view .LVU145
 448 0156 074A     		ldr	r2, .L30+24
 449 0158 1380     		strh	r3, [r2]	@ movhi
 450 015a EEE7     		b	.L22
 451              	.L31:
 452              		.align	2
 453              	.L30:
 454 015c 00000000 		.word	.LC0
 455 0160 00000000 		.word	C2
 456 0164 00000000 		.word	C4
 457 0168 00000000 		.word	CW1
 458 016c 00000000 		.word	NCWaitingState
 459 0170 00000000 		.word	TLYellowDelay
 460 0174 00000000 		.word	msTick
 461 0178 04000000 		.word	.LC1
 462 017c 00000000 		.word	CW2
 463 0180 08000000 		.word	.LC2
 464 0184 00000000 		.word	C1
 465 0188 00000000 		.word	C3
 466 018c 0C000000 		.word	.LC3
 467              		.cfi_endproc
 468              	.LFE321:
 470              		.section	.text.checkAndChangeTL,"ax",%progbits
 471              		.align	1
 472              		.global	checkAndChangeTL
 473              		.syntax unified
 474              		.thumb
 475              		.thumb_func
 477              	checkAndChangeTL:
 478              	.LFB322:
 154:Core/Src/Traffic_Light.c **** 
 155:Core/Src/Traffic_Light.c **** void checkAndChangeTL(){
 479              		.loc 1 155 24 is_stmt 1 view -0
 480              		.cfi_startproc
 481              		@ args = 0, pretend = 0, frame = 0
 482              		@ frame_needed = 0, uses_anonymous_args = 0
 483 0000 10B5     		push	{r4, lr}
 484              	.LCFI6:
 485              		.cfi_def_cfa_offset 8
 486              		.cfi_offset 4, -8
 487              		.cfi_offset 14, -4
 156:Core/Src/Traffic_Light.c ****     C3.light = IsIllegalGreenState(C3);
 488              		.loc 1 156 5 view .LVU147
 489              		.loc 1 156 16 is_stmt 0 view .LVU148
 490 0002 0C4C     		ldr	r4, .L34
 491 0004 94E80300 		ldm	r4, {r0, r1}
 492 0008 FFF7FEFF 		bl	IsIllegalGreenState
ARM GAS  C:\Users\ehgre\AppData\Local\Temp\ccwqnhSc.s 			page 14


 493              	.LVL4:
 494              		.loc 1 156 14 view .LVU149
 495 000c 2071     		strb	r0, [r4, #4]
 157:Core/Src/Traffic_Light.c ****     C1.light = IsIllegalGreenState(C1);
 496              		.loc 1 157 5 is_stmt 1 view .LVU150
 497              		.loc 1 157 16 is_stmt 0 view .LVU151
 498 000e 0A4C     		ldr	r4, .L34+4
 499 0010 94E80300 		ldm	r4, {r0, r1}
 500 0014 FFF7FEFF 		bl	IsIllegalGreenState
 501              	.LVL5:
 502              		.loc 1 157 14 view .LVU152
 503 0018 2071     		strb	r0, [r4, #4]
 158:Core/Src/Traffic_Light.c ****     C2.light = IsIllegalGreenState(C2);
 504              		.loc 1 158 5 is_stmt 1 view .LVU153
 505              		.loc 1 158 16 is_stmt 0 view .LVU154
 506 001a 084C     		ldr	r4, .L34+8
 507 001c 94E80300 		ldm	r4, {r0, r1}
 508 0020 FFF7FEFF 		bl	IsIllegalGreenState
 509              	.LVL6:
 510              		.loc 1 158 14 view .LVU155
 511 0024 2071     		strb	r0, [r4, #4]
 159:Core/Src/Traffic_Light.c ****     C4.light = IsIllegalGreenState(C4);
 512              		.loc 1 159 5 is_stmt 1 view .LVU156
 513              		.loc 1 159 16 is_stmt 0 view .LVU157
 514 0026 064C     		ldr	r4, .L34+12
 515 0028 94E80300 		ldm	r4, {r0, r1}
 516 002c FFF7FEFF 		bl	IsIllegalGreenState
 517              	.LVL7:
 518              		.loc 1 159 14 view .LVU158
 519 0030 2071     		strb	r0, [r4, #4]
 160:Core/Src/Traffic_Light.c **** }
 520              		.loc 1 160 1 view .LVU159
 521 0032 10BD     		pop	{r4, pc}
 522              	.L35:
 523              		.align	2
 524              	.L34:
 525 0034 00000000 		.word	C3
 526 0038 00000000 		.word	C1
 527 003c 00000000 		.word	C2
 528 0040 00000000 		.word	C4
 529              		.cfi_endproc
 530              	.LFE322:
 532              		.section	.text.traffic_lights,"ax",%progbits
 533              		.align	1
 534              		.global	traffic_lights
 535              		.syntax unified
 536              		.thumb
 537              		.thumb_func
 539              	traffic_lights:
 540              	.LFB323:
 161:Core/Src/Traffic_Light.c **** 
 162:Core/Src/Traffic_Light.c **** void traffic_lights(){
 541              		.loc 1 162 22 is_stmt 1 view -0
 542              		.cfi_startproc
 543              		@ Volatile: function does not return.
 544              		@ args = 0, pretend = 0, frame = 0
 545              		@ frame_needed = 0, uses_anonymous_args = 0
ARM GAS  C:\Users\ehgre\AppData\Local\Temp\ccwqnhSc.s 			page 15


 546 0000 08B5     		push	{r3, lr}
 547              	.LCFI7:
 548              		.cfi_def_cfa_offset 8
 549              		.cfi_offset 3, -8
 550              		.cfi_offset 14, -4
 163:Core/Src/Traffic_Light.c ****     HAL_TIM_Base_Start_IT(&htim16);
 551              		.loc 1 163 5 view .LVU161
 552 0002 3848     		ldr	r0, .L96
 553 0004 FFF7FEFF 		bl	HAL_TIM_Base_Start_IT
 554              	.LVL8:
 164:Core/Src/Traffic_Light.c **** 
 165:Core/Src/Traffic_Light.c ****     Init_States();
 555              		.loc 1 165 5 view .LVU162
 556 0008 FFF7FEFF 		bl	Init_States
 557              	.LVL9:
 166:Core/Src/Traffic_Light.c **** 
 167:Core/Src/Traffic_Light.c ****     Show_All_DelayBars(true, 0);
 558              		.loc 1 167 5 view .LVU163
 559 000c 0021     		movs	r1, #0
 560 000e 0120     		movs	r0, #1
 561 0010 FFF7FEFF 		bl	Show_All_DelayBars
 562              	.LVL10:
 168:Core/Src/Traffic_Light.c **** 
 169:Core/Src/Traffic_Light.c ****     bits = Init_Task2(bits);
 563              		.loc 1 169 5 view .LVU164
 564              		.loc 1 169 12 is_stmt 0 view .LVU165
 565 0014 344C     		ldr	r4, .L96+4
 566 0016 2068     		ldr	r0, [r4]
 567 0018 FFF7FEFF 		bl	Init_Task2
 568              	.LVL11:
 569              		.loc 1 169 10 view .LVU166
 570 001c 2060     		str	r0, [r4]
 571 001e D1E0     		b	.L37
 572              	.L90:
 170:Core/Src/Traffic_Light.c ****     while(1){
 171:Core/Src/Traffic_Light.c **** 
 172:Core/Src/Traffic_Light.c ****         brightness = getPotiPercent();
 173:Core/Src/Traffic_Light.c **** 
 174:Core/Src/Traffic_Light.c ****         NoCarsWaiting = true;
 175:Core/Src/Traffic_Light.c **** 
 176:Core/Src/Traffic_Light.c ****         /* // Brightness OLED
 177:Core/Src/Traffic_Light.c ****         char strBri[20] = "Brightness ";
 178:Core/Src/Traffic_Light.c ****         char strBrValue[3] = "";
 179:Core/Src/Traffic_Light.c ****         itoa(brightness, strBrValue, 10);
 180:Core/Src/Traffic_Light.c ****         strcat(strBri, strBrValue);w
 181:Core/Src/Traffic_Light.c ****         strcat(strBri, " ");
 182:Core/Src/Traffic_Light.c ****         ssd1306_SetCursor(2,0);
 183:Core/Src/Traffic_Light.c ****         ssd1306_WriteString(strBri, Font_7x10, White);
 184:Core/Src/Traffic_Light.c ****         ssd1306_UpdateScreen();
 185:Core/Src/Traffic_Light.c ****         */
 186:Core/Src/Traffic_Light.c **** 
 187:Core/Src/Traffic_Light.c ****        if(is_car3() || is_car1()){
 188:Core/Src/Traffic_Light.c ****             NoCarsWaiting = false;
 189:Core/Src/Traffic_Light.c ****             if(!(is_car4() || is_car2())){
 573              		.loc 1 189 31 discriminator 1 view .LVU167
 574 0020 FFF7FEFF 		bl	is_car2
 575              	.LVL12:
ARM GAS  C:\Users\ehgre\AppData\Local\Temp\ccwqnhSc.s 			page 16


 576              		.loc 1 189 16 discriminator 1 view .LVU168
 577 0024 0028     		cmp	r0, #0
 578 0026 40F0E280 		bne	.L39
 190:Core/Src/Traffic_Light.c ****                 NCWaitingState = G1;
 579              		.loc 1 190 17 is_stmt 1 view .LVU169
 580              		.loc 1 190 32 is_stmt 0 view .LVU170
 581 002a 0024     		movs	r4, #0
 582 002c 2F4B     		ldr	r3, .L96+8
 583 002e 1C70     		strb	r4, [r3]
 191:Core/Src/Traffic_Light.c ****                 checkAndChangeTL();
 584              		.loc 1 191 17 is_stmt 1 view .LVU171
 585 0030 FFF7FEFF 		bl	checkAndChangeTL
 586              	.LVL13:
 192:Core/Src/Traffic_Light.c ****                 TLRedWaitTime = 0;
 587              		.loc 1 192 17 view .LVU172
 588              		.loc 1 192 31 is_stmt 0 view .LVU173
 589 0034 2E4B     		ldr	r3, .L96+12
 590 0036 1C70     		strb	r4, [r3]
 591 0038 D9E0     		b	.L39
 592              	.L91:
 193:Core/Src/Traffic_Light.c ****             }
 194:Core/Src/Traffic_Light.c ****        }
 195:Core/Src/Traffic_Light.c **** 
 196:Core/Src/Traffic_Light.c ****        if(is_car4() || is_car2()){
 197:Core/Src/Traffic_Light.c ****             NoCarsWaiting = false;
 198:Core/Src/Traffic_Light.c ****             if(!(is_car1() || is_car3())){
 593              		.loc 1 198 31 discriminator 1 view .LVU174
 594 003a FFF7FEFF 		bl	is_car3
 595              	.LVL14:
 596              		.loc 1 198 16 discriminator 1 view .LVU175
 597 003e 0028     		cmp	r0, #0
 598 0040 40F0E380 		bne	.L41
 199:Core/Src/Traffic_Light.c ****                 NCWaitingState = G2;
 599              		.loc 1 199 17 is_stmt 1 view .LVU176
 600              		.loc 1 199 32 is_stmt 0 view .LVU177
 601 0044 294B     		ldr	r3, .L96+8
 602 0046 0122     		movs	r2, #1
 603 0048 1A70     		strb	r2, [r3]
 200:Core/Src/Traffic_Light.c ****                 checkAndChangeTL();
 604              		.loc 1 200 17 is_stmt 1 view .LVU178
 605 004a FFF7FEFF 		bl	checkAndChangeTL
 606              	.LVL15:
 201:Core/Src/Traffic_Light.c ****                 TLRedWaitTime = 0;
 607              		.loc 1 201 17 view .LVU179
 608              		.loc 1 201 31 is_stmt 0 view .LVU180
 609 004e 284B     		ldr	r3, .L96+12
 610 0050 0022     		movs	r2, #0
 611 0052 1A70     		strb	r2, [r3]
 612 0054 D9E0     		b	.L41
 613              	.L45:
 202:Core/Src/Traffic_Light.c ****             }
 203:Core/Src/Traffic_Light.c ****        }
 204:Core/Src/Traffic_Light.c **** 
 205:Core/Src/Traffic_Light.c ****        if((is_car4() || is_car2()) && (is_car1() || is_car3())){
 206:Core/Src/Traffic_Light.c ****             checkAndChangeTL();
 207:Core/Src/Traffic_Light.c ****             if(TLRedWaitTime == 0){
 208:Core/Src/Traffic_Light.c ****                 TLRedWaitTime = redDelayMax;
ARM GAS  C:\Users\ehgre\AppData\Local\Temp\ccwqnhSc.s 			page 17


 209:Core/Src/Traffic_Light.c ****             }
 210:Core/Src/Traffic_Light.c ****        }
 211:Core/Src/Traffic_Light.c **** 
 212:Core/Src/Traffic_Light.c ****        if(NoCarsWaiting){
 213:Core/Src/Traffic_Light.c ****             checkAndChangeTL();
 214:Core/Src/Traffic_Light.c ****             if(NCWaitingDelay == 0){
 215:Core/Src/Traffic_Light.c ****                 NCWaitingDelay = greenDelay;
 216:Core/Src/Traffic_Light.c ****             }
 217:Core/Src/Traffic_Light.c ****             HAL_GPIO_WritePin(USR_LED2_GPIO_Port, USR_LED2_Pin, GPIO_PIN_SET);
 218:Core/Src/Traffic_Light.c ****        }else{
 219:Core/Src/Traffic_Light.c ****             HAL_GPIO_WritePin(USR_LED2_GPIO_Port, USR_LED2_Pin, GPIO_PIN_RESET);
 614              		.loc 1 219 13 is_stmt 1 view .LVU181
 615 0056 0022     		movs	r2, #0
 616 0058 4FF40041 		mov	r1, #32768
 617 005c 2548     		ldr	r0, .L96+16
 618 005e FFF7FEFF 		bl	HAL_GPIO_WritePin
 619              	.LVL16:
 220:Core/Src/Traffic_Light.c ****             NCWaitingDelay = 0;
 620              		.loc 1 220 13 view .LVU182
 621              		.loc 1 220 28 is_stmt 0 view .LVU183
 622 0062 0024     		movs	r4, #0
 623 0064 244B     		ldr	r3, .L96+20
 624 0066 1C70     		strb	r4, [r3]
 221:Core/Src/Traffic_Light.c ****             Show_G1Bar(true, 0);
 625              		.loc 1 221 13 is_stmt 1 view .LVU184
 626 0068 2146     		mov	r1, r4
 627 006a 0120     		movs	r0, #1
 628 006c FFF7FEFF 		bl	Show_G1Bar
 629              	.LVL17:
 222:Core/Src/Traffic_Light.c ****             Show_G2Bar(true, 0);
 630              		.loc 1 222 13 view .LVU185
 631 0070 2146     		mov	r1, r4
 632 0072 0120     		movs	r0, #1
 633 0074 FFF7FEFF 		bl	Show_G2Bar
 634              	.LVL18:
 635 0078 EEE0     		b	.L47
 636              	.L92:
 223:Core/Src/Traffic_Light.c ****        }
 224:Core/Src/Traffic_Light.c **** 
 225:Core/Src/Traffic_Light.c ****        if(is_pl1() && (CW2 == PLRed)){
 226:Core/Src/Traffic_Light.c ****             CW1 = PLBlue;
 227:Core/Src/Traffic_Light.c ****             PLBlueDelay = pedestrianDelay;
 228:Core/Src/Traffic_Light.c ****         }
 229:Core/Src/Traffic_Light.c **** 
 230:Core/Src/Traffic_Light.c ****         if(is_pl2() && (CW1 == PLRed)){
 231:Core/Src/Traffic_Light.c ****             CW2 = PLBlue;
 232:Core/Src/Traffic_Light.c ****             PLBlueDelay = pedestrianDelay;
 233:Core/Src/Traffic_Light.c ****         }
 234:Core/Src/Traffic_Light.c **** 
 235:Core/Src/Traffic_Light.c ****         switch (C1.light){
 236:Core/Src/Traffic_Light.c ****             case TLGreen:
 237:Core/Src/Traffic_Light.c ****                 if((TLYellowDelay > 0) && (!TL1_isGreen(bits))){
 238:Core/Src/Traffic_Light.c ****                     bits = TL1_Green(bits, false);
 637              		.loc 1 238 21 view .LVU186
 638              		.loc 1 238 28 is_stmt 0 view .LVU187
 639 007a 1B4C     		ldr	r4, .L96+4
 640 007c 0021     		movs	r1, #0
ARM GAS  C:\Users\ehgre\AppData\Local\Temp\ccwqnhSc.s 			page 18


 641 007e 2068     		ldr	r0, [r4]
 642 0080 FFF7FEFF 		bl	TL1_Green
 643              	.LVL19:
 644              		.loc 1 238 26 view .LVU188
 645 0084 2060     		str	r0, [r4]
 239:Core/Src/Traffic_Light.c ****                     bits = TL1_Red(bits, true);
 646              		.loc 1 239 21 is_stmt 1 view .LVU189
 647              		.loc 1 239 28 is_stmt 0 view .LVU190
 648 0086 0121     		movs	r1, #1
 649 0088 FFF7FEFF 		bl	TL1_Red
 650              	.LVL20:
 651              		.loc 1 239 26 view .LVU191
 652 008c 2060     		str	r0, [r4]
 240:Core/Src/Traffic_Light.c ****                     bits = TL1_Yellow(bits, true);
 653              		.loc 1 240 21 is_stmt 1 view .LVU192
 654              		.loc 1 240 28 is_stmt 0 view .LVU193
 655 008e 0121     		movs	r1, #1
 656 0090 FFF7FEFF 		bl	TL1_Yellow
 657              	.LVL21:
 658              		.loc 1 240 26 view .LVU194
 659 0094 2060     		str	r0, [r4]
 660 0096 16E1     		b	.L51
 661              	.L50:
 241:Core/Src/Traffic_Light.c ****                 }else{
 242:Core/Src/Traffic_Light.c ****                     bits = TL1_Green(bits, true);
 243:Core/Src/Traffic_Light.c ****                     bits = TL1_Red(bits, false);
 244:Core/Src/Traffic_Light.c ****                     bits = TL1_Yellow(bits, false);
 245:Core/Src/Traffic_Light.c ****                 }
 246:Core/Src/Traffic_Light.c ****                 break;
 247:Core/Src/Traffic_Light.c ****             case TLRed:
 248:Core/Src/Traffic_Light.c ****                 if((TLYellowDelay > 0) && (!TL1_isRed(bits))){
 662              		.loc 1 248 17 is_stmt 1 view .LVU195
 663              		.loc 1 248 35 is_stmt 0 view .LVU196
 664 0098 184B     		ldr	r3, .L96+24
 665 009a 1B78     		ldrb	r3, [r3]	@ zero_extendqisi2
 666              		.loc 1 248 19 view .LVU197
 667 009c 23B1     		cbz	r3, .L53
 668              		.loc 1 248 45 discriminator 1 view .LVU198
 669 009e 124B     		ldr	r3, .L96+4
 670 00a0 1868     		ldr	r0, [r3]
 671 00a2 FFF7FEFF 		bl	TL1_isRed
 672              	.LVL22:
 673              		.loc 1 248 40 discriminator 1 view .LVU199
 674 00a6 70B1     		cbz	r0, .L85
 675              	.L53:
 249:Core/Src/Traffic_Light.c ****                     bits = TL1_Green(bits, false);
 250:Core/Src/Traffic_Light.c ****                     bits = TL1_Red(bits, false);
 251:Core/Src/Traffic_Light.c ****                     bits = TL1_Yellow(bits, true);
 252:Core/Src/Traffic_Light.c ****                 }else{
 253:Core/Src/Traffic_Light.c ****                     bits = TL1_Green(bits, false);
 676              		.loc 1 253 21 is_stmt 1 view .LVU200
 677              		.loc 1 253 28 is_stmt 0 view .LVU201
 678 00a8 0F4C     		ldr	r4, .L96+4
 679 00aa 0021     		movs	r1, #0
 680 00ac 2068     		ldr	r0, [r4]
 681 00ae FFF7FEFF 		bl	TL1_Green
 682              	.LVL23:
ARM GAS  C:\Users\ehgre\AppData\Local\Temp\ccwqnhSc.s 			page 19


 683              		.loc 1 253 26 view .LVU202
 684 00b2 2060     		str	r0, [r4]
 254:Core/Src/Traffic_Light.c ****                     bits = TL1_Red(bits, true);
 685              		.loc 1 254 21 is_stmt 1 view .LVU203
 686              		.loc 1 254 28 is_stmt 0 view .LVU204
 687 00b4 0121     		movs	r1, #1
 688 00b6 FFF7FEFF 		bl	TL1_Red
 689              	.LVL24:
 690              		.loc 1 254 26 view .LVU205
 691 00ba 2060     		str	r0, [r4]
 255:Core/Src/Traffic_Light.c ****                     bits = TL1_Yellow(bits, false);
 692              		.loc 1 255 21 is_stmt 1 view .LVU206
 693              		.loc 1 255 28 is_stmt 0 view .LVU207
 694 00bc 0021     		movs	r1, #0
 695 00be FFF7FEFF 		bl	TL1_Yellow
 696              	.LVL25:
 697              		.loc 1 255 26 view .LVU208
 698 00c2 2060     		str	r0, [r4]
 699 00c4 FFE0     		b	.L51
 700              	.L85:
 249:Core/Src/Traffic_Light.c ****                     bits = TL1_Green(bits, false);
 701              		.loc 1 249 21 is_stmt 1 view .LVU209
 249:Core/Src/Traffic_Light.c ****                     bits = TL1_Green(bits, false);
 702              		.loc 1 249 28 is_stmt 0 view .LVU210
 703 00c6 084C     		ldr	r4, .L96+4
 704 00c8 0021     		movs	r1, #0
 705 00ca 2068     		ldr	r0, [r4]
 706 00cc FFF7FEFF 		bl	TL1_Green
 707              	.LVL26:
 249:Core/Src/Traffic_Light.c ****                     bits = TL1_Green(bits, false);
 708              		.loc 1 249 26 view .LVU211
 709 00d0 2060     		str	r0, [r4]
 250:Core/Src/Traffic_Light.c ****                     bits = TL1_Yellow(bits, true);
 710              		.loc 1 250 21 is_stmt 1 view .LVU212
 250:Core/Src/Traffic_Light.c ****                     bits = TL1_Yellow(bits, true);
 711              		.loc 1 250 28 is_stmt 0 view .LVU213
 712 00d2 0021     		movs	r1, #0
 713 00d4 FFF7FEFF 		bl	TL1_Red
 714              	.LVL27:
 250:Core/Src/Traffic_Light.c ****                     bits = TL1_Yellow(bits, true);
 715              		.loc 1 250 26 view .LVU214
 716 00d8 2060     		str	r0, [r4]
 251:Core/Src/Traffic_Light.c ****                 }else{
 717              		.loc 1 251 21 is_stmt 1 view .LVU215
 251:Core/Src/Traffic_Light.c ****                 }else{
 718              		.loc 1 251 28 is_stmt 0 view .LVU216
 719 00da 0121     		movs	r1, #1
 720 00dc FFF7FEFF 		bl	TL1_Yellow
 721              	.LVL28:
 251:Core/Src/Traffic_Light.c ****                 }else{
 722              		.loc 1 251 26 view .LVU217
 723 00e0 2060     		str	r0, [r4]
 724 00e2 F0E0     		b	.L51
 725              	.L97:
 726              		.align	2
 727              	.L96:
 728 00e4 00000000 		.word	htim16
ARM GAS  C:\Users\ehgre\AppData\Local\Temp\ccwqnhSc.s 			page 20


 729 00e8 00000000 		.word	bits
 730 00ec 00000000 		.word	NCWaitingState
 731 00f0 00000000 		.word	TLRedWaitTime
 732 00f4 00040048 		.word	1207960576
 733 00f8 00000000 		.word	NCWaitingDelay
 734 00fc 00000000 		.word	TLYellowDelay
 735              	.L56:
 256:Core/Src/Traffic_Light.c ****                 }
 257:Core/Src/Traffic_Light.c ****                 break;
 258:Core/Src/Traffic_Light.c ****             default:
 259:Core/Src/Traffic_Light.c ****                 break;
 260:Core/Src/Traffic_Light.c ****         }
 261:Core/Src/Traffic_Light.c **** 
 262:Core/Src/Traffic_Light.c ****         switch (C2.light){
 263:Core/Src/Traffic_Light.c ****             case TLGreen:
 264:Core/Src/Traffic_Light.c ****                 if((TLYellowDelay > 0) && (!TL2_isGreen(bits))){
 265:Core/Src/Traffic_Light.c ****                     bits = TL2_Green(bits, false);
 266:Core/Src/Traffic_Light.c ****                     bits = TL2_Red(bits, true);
 267:Core/Src/Traffic_Light.c ****                     bits = TL2_Yellow(bits, true);
 268:Core/Src/Traffic_Light.c ****                 }else{
 269:Core/Src/Traffic_Light.c ****                     bits = TL2_Green(bits, true);
 736              		.loc 1 269 21 is_stmt 1 view .LVU218
 737              		.loc 1 269 28 is_stmt 0 view .LVU219
 738 0100 9C4C     		ldr	r4, .L98
 739 0102 0121     		movs	r1, #1
 740 0104 2068     		ldr	r0, [r4]
 741 0106 FFF7FEFF 		bl	TL2_Green
 742              	.LVL29:
 743              		.loc 1 269 26 view .LVU220
 744 010a 2060     		str	r0, [r4]
 270:Core/Src/Traffic_Light.c ****                     bits = TL2_Red(bits, false);
 745              		.loc 1 270 21 is_stmt 1 view .LVU221
 746              		.loc 1 270 28 is_stmt 0 view .LVU222
 747 010c 0021     		movs	r1, #0
 748 010e FFF7FEFF 		bl	TL2_Red
 749              	.LVL30:
 750              		.loc 1 270 26 view .LVU223
 751 0112 2060     		str	r0, [r4]
 271:Core/Src/Traffic_Light.c ****                     bits = TL2_Yellow(bits, false);
 752              		.loc 1 271 21 is_stmt 1 view .LVU224
 753              		.loc 1 271 28 is_stmt 0 view .LVU225
 754 0114 0021     		movs	r1, #0
 755 0116 FFF7FEFF 		bl	TL2_Yellow
 756              	.LVL31:
 757              		.loc 1 271 26 view .LVU226
 758 011a 2060     		str	r0, [r4]
 759              	.L55:
 272:Core/Src/Traffic_Light.c ****                 }
 273:Core/Src/Traffic_Light.c ****                 break;
 274:Core/Src/Traffic_Light.c ****             case TLRed:
 275:Core/Src/Traffic_Light.c ****                 if((TLYellowDelay > 0) && (!TL2_isRed(bits))){
 276:Core/Src/Traffic_Light.c ****                     bits = TL2_Green(bits, false);
 277:Core/Src/Traffic_Light.c ****                     bits = TL2_Red(bits, false);
 278:Core/Src/Traffic_Light.c ****                     bits = TL2_Yellow(bits, true);
 279:Core/Src/Traffic_Light.c ****                 }else{
 280:Core/Src/Traffic_Light.c ****                     bits = TL2_Green(bits, false);
 281:Core/Src/Traffic_Light.c ****                     bits = TL2_Red(bits, true);
ARM GAS  C:\Users\ehgre\AppData\Local\Temp\ccwqnhSc.s 			page 21


 282:Core/Src/Traffic_Light.c ****                     bits = TL2_Yellow(bits, false);
 283:Core/Src/Traffic_Light.c ****                 }
 284:Core/Src/Traffic_Light.c ****                 break;
 285:Core/Src/Traffic_Light.c ****             default:
 286:Core/Src/Traffic_Light.c ****                 break;
 287:Core/Src/Traffic_Light.c ****         }
 288:Core/Src/Traffic_Light.c **** 
 289:Core/Src/Traffic_Light.c ****         switch (C3.light){
 760              		.loc 1 289 9 is_stmt 1 view .LVU227
 761              		.loc 1 289 19 is_stmt 0 view .LVU228
 762 011c 964B     		ldr	r3, .L98+4
 763 011e 1B79     		ldrb	r3, [r3, #4]	@ zero_extendqisi2
 764              		.loc 1 289 9 view .LVU229
 765 0120 002B     		cmp	r3, #0
 766 0122 00F04381 		beq	.L58
 767 0126 012B     		cmp	r3, #1
 768 0128 17D1     		bne	.L59
 290:Core/Src/Traffic_Light.c ****             case TLGreen:
 291:Core/Src/Traffic_Light.c ****                 if((TLYellowDelay > 0) && (!TL3_isGreen(bits))){
 769              		.loc 1 291 17 is_stmt 1 view .LVU230
 770              		.loc 1 291 35 is_stmt 0 view .LVU231
 771 012a 944B     		ldr	r3, .L98+8
 772 012c 1B78     		ldrb	r3, [r3]	@ zero_extendqisi2
 773              		.loc 1 291 19 view .LVU232
 774 012e 33B1     		cbz	r3, .L60
 775              		.loc 1 291 45 discriminator 1 view .LVU233
 776 0130 904B     		ldr	r3, .L98
 777 0132 1868     		ldr	r0, [r3]
 778 0134 FFF7FEFF 		bl	TL3_isGreen
 779              	.LVL32:
 780              		.loc 1 291 40 discriminator 1 view .LVU234
 781 0138 0028     		cmp	r0, #0
 782 013a 00F00B81 		beq	.L86
 783              	.L60:
 292:Core/Src/Traffic_Light.c ****                     bits = TL3_Green(bits, false);
 293:Core/Src/Traffic_Light.c ****                     bits = TL3_Red(bits, true);
 294:Core/Src/Traffic_Light.c ****                     bits = TL3_Yellow(bits, true);
 295:Core/Src/Traffic_Light.c ****                 }else{
 296:Core/Src/Traffic_Light.c ****                     bits = TL3_Green(bits, true);
 784              		.loc 1 296 21 is_stmt 1 view .LVU235
 785              		.loc 1 296 28 is_stmt 0 view .LVU236
 786 013e 8D4C     		ldr	r4, .L98
 787 0140 0121     		movs	r1, #1
 788 0142 2068     		ldr	r0, [r4]
 789 0144 FFF7FEFF 		bl	TL3_Green
 790              	.LVL33:
 791              		.loc 1 296 26 view .LVU237
 792 0148 2060     		str	r0, [r4]
 297:Core/Src/Traffic_Light.c ****                     bits = TL3_Red(bits, false);
 793              		.loc 1 297 21 is_stmt 1 view .LVU238
 794              		.loc 1 297 28 is_stmt 0 view .LVU239
 795 014a 0021     		movs	r1, #0
 796 014c FFF7FEFF 		bl	TL3_Red
 797              	.LVL34:
 798              		.loc 1 297 26 view .LVU240
 799 0150 2060     		str	r0, [r4]
 298:Core/Src/Traffic_Light.c ****                     bits = TL3_Yellow(bits, false);
ARM GAS  C:\Users\ehgre\AppData\Local\Temp\ccwqnhSc.s 			page 22


 800              		.loc 1 298 21 is_stmt 1 view .LVU241
 801              		.loc 1 298 28 is_stmt 0 view .LVU242
 802 0152 0021     		movs	r1, #0
 803 0154 FFF7FEFF 		bl	TL3_Yellow
 804              	.LVL35:
 805              		.loc 1 298 26 view .LVU243
 806 0158 2060     		str	r0, [r4]
 807              	.L59:
 299:Core/Src/Traffic_Light.c ****                 }
 300:Core/Src/Traffic_Light.c ****                 break;
 301:Core/Src/Traffic_Light.c ****             case TLRed:
 302:Core/Src/Traffic_Light.c ****                 if((TLYellowDelay > 0) && (!TL3_isRed(bits))){
 303:Core/Src/Traffic_Light.c ****                     bits = TL3_Green(bits, false);
 304:Core/Src/Traffic_Light.c ****                     bits = TL3_Red(bits, false);
 305:Core/Src/Traffic_Light.c ****                     bits = TL3_Yellow(bits, true);
 306:Core/Src/Traffic_Light.c ****                 }else{
 307:Core/Src/Traffic_Light.c ****                     bits = TL3_Green(bits, false);
 308:Core/Src/Traffic_Light.c ****                     bits = TL3_Red(bits, true);
 309:Core/Src/Traffic_Light.c ****                     bits = TL3_Yellow(bits, false);
 310:Core/Src/Traffic_Light.c ****                 }
 311:Core/Src/Traffic_Light.c ****                 break;
 312:Core/Src/Traffic_Light.c ****             default:
 313:Core/Src/Traffic_Light.c ****                 break;
 314:Core/Src/Traffic_Light.c ****         }
 315:Core/Src/Traffic_Light.c **** 
 316:Core/Src/Traffic_Light.c ****         switch (C4.light){
 808              		.loc 1 316 9 is_stmt 1 view .LVU244
 809              		.loc 1 316 19 is_stmt 0 view .LVU245
 810 015a 894B     		ldr	r3, .L98+12
 811 015c 1B79     		ldrb	r3, [r3, #4]	@ zero_extendqisi2
 812              		.loc 1 316 9 view .LVU246
 813 015e 002B     		cmp	r3, #0
 814 0160 00F05981 		beq	.L62
 815 0164 012B     		cmp	r3, #1
 816 0166 17D1     		bne	.L63
 317:Core/Src/Traffic_Light.c ****             case TLGreen:
 318:Core/Src/Traffic_Light.c ****                 if((TLYellowDelay > 0) && (!TL4_isGreen(bits))){
 817              		.loc 1 318 17 is_stmt 1 view .LVU247
 818              		.loc 1 318 35 is_stmt 0 view .LVU248
 819 0168 844B     		ldr	r3, .L98+8
 820 016a 1B78     		ldrb	r3, [r3]	@ zero_extendqisi2
 821              		.loc 1 318 19 view .LVU249
 822 016c 33B1     		cbz	r3, .L64
 823              		.loc 1 318 45 discriminator 1 view .LVU250
 824 016e 814B     		ldr	r3, .L98
 825 0170 1868     		ldr	r0, [r3]
 826 0172 FFF7FEFF 		bl	TL4_isGreen
 827              	.LVL36:
 828              		.loc 1 318 40 discriminator 1 view .LVU251
 829 0176 0028     		cmp	r0, #0
 830 0178 00F03E81 		beq	.L87
 831              	.L64:
 319:Core/Src/Traffic_Light.c ****                     bits = TL4_Green(bits, false);
 320:Core/Src/Traffic_Light.c ****                     bits = TL4_Red(bits, true);
 321:Core/Src/Traffic_Light.c ****                     bits = TL4_Yellow(bits, true);
 322:Core/Src/Traffic_Light.c ****                 }else{
 323:Core/Src/Traffic_Light.c ****                     bits = TL4_Green(bits, true);
ARM GAS  C:\Users\ehgre\AppData\Local\Temp\ccwqnhSc.s 			page 23


 832              		.loc 1 323 21 is_stmt 1 view .LVU252
 833              		.loc 1 323 28 is_stmt 0 view .LVU253
 834 017c 7D4C     		ldr	r4, .L98
 835 017e 0121     		movs	r1, #1
 836 0180 2068     		ldr	r0, [r4]
 837 0182 FFF7FEFF 		bl	TL4_Green
 838              	.LVL37:
 839              		.loc 1 323 26 view .LVU254
 840 0186 2060     		str	r0, [r4]
 324:Core/Src/Traffic_Light.c ****                     bits = TL4_Red(bits, false);
 841              		.loc 1 324 21 is_stmt 1 view .LVU255
 842              		.loc 1 324 28 is_stmt 0 view .LVU256
 843 0188 0021     		movs	r1, #0
 844 018a FFF7FEFF 		bl	TL4_Red
 845              	.LVL38:
 846              		.loc 1 324 26 view .LVU257
 847 018e 2060     		str	r0, [r4]
 325:Core/Src/Traffic_Light.c ****                     bits = TL4_Yellow(bits, false);
 848              		.loc 1 325 21 is_stmt 1 view .LVU258
 849              		.loc 1 325 28 is_stmt 0 view .LVU259
 850 0190 0021     		movs	r1, #0
 851 0192 FFF7FEFF 		bl	TL4_Yellow
 852              	.LVL39:
 853              		.loc 1 325 26 view .LVU260
 854 0196 2060     		str	r0, [r4]
 855              	.L63:
 326:Core/Src/Traffic_Light.c ****                 }
 327:Core/Src/Traffic_Light.c ****                 break;
 328:Core/Src/Traffic_Light.c ****             case TLRed:
 329:Core/Src/Traffic_Light.c ****                 if((TLYellowDelay > 0)  && (!TL4_isRed(bits))){
 330:Core/Src/Traffic_Light.c ****                     bits = TL4_Green(bits, false);
 331:Core/Src/Traffic_Light.c ****                     bits = TL4_Red(bits, false);
 332:Core/Src/Traffic_Light.c ****                     bits = TL4_Yellow(bits, true);
 333:Core/Src/Traffic_Light.c ****                 }else{
 334:Core/Src/Traffic_Light.c ****                     bits = TL4_Green(bits, false);
 335:Core/Src/Traffic_Light.c ****                     bits = TL4_Red(bits, true);
 336:Core/Src/Traffic_Light.c ****                     bits = TL4_Yellow(bits, false);
 337:Core/Src/Traffic_Light.c ****                 }
 338:Core/Src/Traffic_Light.c ****                 break;
 339:Core/Src/Traffic_Light.c ****             default:
 340:Core/Src/Traffic_Light.c ****                 break;
 341:Core/Src/Traffic_Light.c ****         }
 342:Core/Src/Traffic_Light.c **** 
 343:Core/Src/Traffic_Light.c ****         switch (CW1){
 856              		.loc 1 343 9 is_stmt 1 view .LVU261
 857 0198 7A4B     		ldr	r3, .L98+16
 858 019a 1B78     		ldrb	r3, [r3]	@ zero_extendqisi2
 859 019c 012B     		cmp	r3, #1
 860 019e 00F06081 		beq	.L66
 861 01a2 022B     		cmp	r3, #2
 862 01a4 00F08C81 		beq	.L67
 863 01a8 002B     		cmp	r3, #0
 864 01aa 00F0AA81 		beq	.L88
 865              	.L69:
 344:Core/Src/Traffic_Light.c ****             case PLGreen:
 345:Core/Src/Traffic_Light.c ****                 if((C1.light != TLRed) || (C3.light != TLRed) || (C4.light != TLRed)){
 346:Core/Src/Traffic_Light.c ****                     checkAndChangeTL();
ARM GAS  C:\Users\ehgre\AppData\Local\Temp\ccwqnhSc.s 			page 24


 347:Core/Src/Traffic_Light.c ****                     TLYellowDelay = orangeDelay;
 348:Core/Src/Traffic_Light.c ****                 }else{
 349:Core/Src/Traffic_Light.c ****                     if(TLYellowDelay == 0){
 350:Core/Src/Traffic_Light.c ****                         if(PLGreenDelay > 0){
 351:Core/Src/Traffic_Light.c ****                             bits = PL1_Green(bits, true);
 352:Core/Src/Traffic_Light.c ****                             bits = PL1_Red(bits, false);
 353:Core/Src/Traffic_Light.c ****                         }else{
 354:Core/Src/Traffic_Light.c ****                             CW1 = PLRed;
 355:Core/Src/Traffic_Light.c ****                             bits = PL1_Green(bits, false);
 356:Core/Src/Traffic_Light.c ****                             bits = PL1_Red(bits, true);
 357:Core/Src/Traffic_Light.c ****                         }
 358:Core/Src/Traffic_Light.c ****                     }
 359:Core/Src/Traffic_Light.c ****                 }
 360:Core/Src/Traffic_Light.c ****                 break;
 361:Core/Src/Traffic_Light.c ****             case PLBlue:
 362:Core/Src/Traffic_Light.c ****                 if(PLBlueDelay > 0){
 363:Core/Src/Traffic_Light.c ****                     if(BlueOn){
 364:Core/Src/Traffic_Light.c ****                         bits = PL1_Blue(bits, true);
 365:Core/Src/Traffic_Light.c ****                     }else{
 366:Core/Src/Traffic_Light.c ****                         bits = PL1_Blue(bits, false);
 367:Core/Src/Traffic_Light.c ****                     }
 368:Core/Src/Traffic_Light.c ****                 }else{
 369:Core/Src/Traffic_Light.c ****                     CW1 = PLGreen;
 370:Core/Src/Traffic_Light.c ****                     PLGreenDelay = walkingDelay;
 371:Core/Src/Traffic_Light.c ****                     bits = PL1_Blue(bits, false);
 372:Core/Src/Traffic_Light.c ****                 }
 373:Core/Src/Traffic_Light.c ****                 break;
 374:Core/Src/Traffic_Light.c ****             case PLRed:
 375:Core/Src/Traffic_Light.c ****                 bits = PL1_Red(bits,true);
 376:Core/Src/Traffic_Light.c ****                 bits = PL1_Green(bits,false);
 377:Core/Src/Traffic_Light.c ****                 break;
 378:Core/Src/Traffic_Light.c ****             default:
 379:Core/Src/Traffic_Light.c ****                 break;
 380:Core/Src/Traffic_Light.c ****         }
 381:Core/Src/Traffic_Light.c **** 
 382:Core/Src/Traffic_Light.c ****         switch (CW2){
 866              		.loc 1 382 9 view .LVU262
 867 01ae 764B     		ldr	r3, .L98+20
 868 01b0 1B78     		ldrb	r3, [r3]	@ zero_extendqisi2
 869 01b2 012B     		cmp	r3, #1
 870 01b4 00F0B081 		beq	.L75
 871 01b8 022B     		cmp	r3, #2
 872 01ba 00F0DC81 		beq	.L76
 873 01be 002B     		cmp	r3, #0
 874 01c0 00F0FA81 		beq	.L89
 875              	.L37:
 170:Core/Src/Traffic_Light.c **** 
 876              		.loc 1 170 5 view .LVU263
 172:Core/Src/Traffic_Light.c **** 
 877              		.loc 1 172 9 view .LVU264
 172:Core/Src/Traffic_Light.c **** 
 878              		.loc 1 172 22 is_stmt 0 view .LVU265
 879 01c4 FFF7FEFF 		bl	getPotiPercent
 880              	.LVL40:
 172:Core/Src/Traffic_Light.c **** 
 881              		.loc 1 172 20 view .LVU266
 882 01c8 704B     		ldr	r3, .L98+24
ARM GAS  C:\Users\ehgre\AppData\Local\Temp\ccwqnhSc.s 			page 25


 883 01ca 1870     		strb	r0, [r3]
 174:Core/Src/Traffic_Light.c **** 
 884              		.loc 1 174 9 is_stmt 1 view .LVU267
 174:Core/Src/Traffic_Light.c **** 
 885              		.loc 1 174 23 is_stmt 0 view .LVU268
 886 01cc 704B     		ldr	r3, .L98+28
 887 01ce 0122     		movs	r2, #1
 888 01d0 1A70     		strb	r2, [r3]
 187:Core/Src/Traffic_Light.c ****             NoCarsWaiting = false;
 889              		.loc 1 187 8 is_stmt 1 view .LVU269
 187:Core/Src/Traffic_Light.c ****             NoCarsWaiting = false;
 890              		.loc 1 187 11 is_stmt 0 view .LVU270
 891 01d2 FFF7FEFF 		bl	is_car3
 892              	.LVL41:
 187:Core/Src/Traffic_Light.c ****             NoCarsWaiting = false;
 893              		.loc 1 187 10 view .LVU271
 894 01d6 10B9     		cbnz	r0, .L38
 187:Core/Src/Traffic_Light.c ****             NoCarsWaiting = false;
 895              		.loc 1 187 24 discriminator 1 view .LVU272
 896 01d8 FFF7FEFF 		bl	is_car1
 897              	.LVL42:
 187:Core/Src/Traffic_Light.c ****             NoCarsWaiting = false;
 898              		.loc 1 187 21 discriminator 1 view .LVU273
 899 01dc 38B1     		cbz	r0, .L39
 900              	.L38:
 188:Core/Src/Traffic_Light.c ****             if(!(is_car4() || is_car2())){
 901              		.loc 1 188 13 is_stmt 1 view .LVU274
 188:Core/Src/Traffic_Light.c ****             if(!(is_car4() || is_car2())){
 902              		.loc 1 188 27 is_stmt 0 view .LVU275
 903 01de 6C4B     		ldr	r3, .L98+28
 904 01e0 0022     		movs	r2, #0
 905 01e2 1A70     		strb	r2, [r3]
 189:Core/Src/Traffic_Light.c ****                 NCWaitingState = G1;
 906              		.loc 1 189 13 is_stmt 1 view .LVU276
 189:Core/Src/Traffic_Light.c ****                 NCWaitingState = G1;
 907              		.loc 1 189 18 is_stmt 0 view .LVU277
 908 01e4 FFF7FEFF 		bl	is_car4
 909              	.LVL43:
 189:Core/Src/Traffic_Light.c ****                 NCWaitingState = G1;
 910              		.loc 1 189 15 view .LVU278
 911 01e8 0028     		cmp	r0, #0
 912 01ea 3FF419AF 		beq	.L90
 913              	.L39:
 196:Core/Src/Traffic_Light.c ****             NoCarsWaiting = false;
 914              		.loc 1 196 8 is_stmt 1 view .LVU279
 196:Core/Src/Traffic_Light.c ****             NoCarsWaiting = false;
 915              		.loc 1 196 11 is_stmt 0 view .LVU280
 916 01ee FFF7FEFF 		bl	is_car4
 917              	.LVL44:
 196:Core/Src/Traffic_Light.c ****             NoCarsWaiting = false;
 918              		.loc 1 196 10 view .LVU281
 919 01f2 10B9     		cbnz	r0, .L40
 196:Core/Src/Traffic_Light.c ****             NoCarsWaiting = false;
 920              		.loc 1 196 24 discriminator 1 view .LVU282
 921 01f4 FFF7FEFF 		bl	is_car2
 922              	.LVL45:
 196:Core/Src/Traffic_Light.c ****             NoCarsWaiting = false;
ARM GAS  C:\Users\ehgre\AppData\Local\Temp\ccwqnhSc.s 			page 26


 923              		.loc 1 196 21 discriminator 1 view .LVU283
 924 01f8 38B1     		cbz	r0, .L41
 925              	.L40:
 197:Core/Src/Traffic_Light.c ****             if(!(is_car1() || is_car3())){
 926              		.loc 1 197 13 is_stmt 1 view .LVU284
 197:Core/Src/Traffic_Light.c ****             if(!(is_car1() || is_car3())){
 927              		.loc 1 197 27 is_stmt 0 view .LVU285
 928 01fa 654B     		ldr	r3, .L98+28
 929 01fc 0022     		movs	r2, #0
 930 01fe 1A70     		strb	r2, [r3]
 198:Core/Src/Traffic_Light.c ****                 NCWaitingState = G2;
 931              		.loc 1 198 13 is_stmt 1 view .LVU286
 198:Core/Src/Traffic_Light.c ****                 NCWaitingState = G2;
 932              		.loc 1 198 18 is_stmt 0 view .LVU287
 933 0200 FFF7FEFF 		bl	is_car1
 934              	.LVL46:
 198:Core/Src/Traffic_Light.c ****                 NCWaitingState = G2;
 935              		.loc 1 198 15 view .LVU288
 936 0204 0028     		cmp	r0, #0
 937 0206 3FF418AF 		beq	.L91
 938              	.L41:
 205:Core/Src/Traffic_Light.c ****             checkAndChangeTL();
 939              		.loc 1 205 8 is_stmt 1 view .LVU289
 205:Core/Src/Traffic_Light.c ****             checkAndChangeTL();
 940              		.loc 1 205 12 is_stmt 0 view .LVU290
 941 020a FFF7FEFF 		bl	is_car4
 942              	.LVL47:
 205:Core/Src/Traffic_Light.c ****             checkAndChangeTL();
 943              		.loc 1 205 10 view .LVU291
 944 020e 10B9     		cbnz	r0, .L42
 205:Core/Src/Traffic_Light.c ****             checkAndChangeTL();
 945              		.loc 1 205 25 discriminator 2 view .LVU292
 946 0210 FFF7FEFF 		bl	is_car2
 947              	.LVL48:
 205:Core/Src/Traffic_Light.c ****             checkAndChangeTL();
 948              		.loc 1 205 22 discriminator 2 view .LVU293
 949 0214 68B1     		cbz	r0, .L43
 950              	.L42:
 205:Core/Src/Traffic_Light.c ****             checkAndChangeTL();
 951              		.loc 1 205 40 discriminator 3 view .LVU294
 952 0216 FFF7FEFF 		bl	is_car1
 953              	.LVL49:
 205:Core/Src/Traffic_Light.c ****             checkAndChangeTL();
 954              		.loc 1 205 36 discriminator 3 view .LVU295
 955 021a 10B9     		cbnz	r0, .L44
 205:Core/Src/Traffic_Light.c ****             checkAndChangeTL();
 956              		.loc 1 205 53 discriminator 4 view .LVU296
 957 021c FFF7FEFF 		bl	is_car3
 958              	.LVL50:
 205:Core/Src/Traffic_Light.c ****             checkAndChangeTL();
 959              		.loc 1 205 50 discriminator 4 view .LVU297
 960 0220 38B1     		cbz	r0, .L43
 961              	.L44:
 206:Core/Src/Traffic_Light.c ****             if(TLRedWaitTime == 0){
 962              		.loc 1 206 13 is_stmt 1 view .LVU298
 963 0222 FFF7FEFF 		bl	checkAndChangeTL
 964              	.LVL51:
ARM GAS  C:\Users\ehgre\AppData\Local\Temp\ccwqnhSc.s 			page 27


 207:Core/Src/Traffic_Light.c ****                 TLRedWaitTime = redDelayMax;
 965              		.loc 1 207 13 view .LVU299
 207:Core/Src/Traffic_Light.c ****                 TLRedWaitTime = redDelayMax;
 966              		.loc 1 207 30 is_stmt 0 view .LVU300
 967 0226 5B4B     		ldr	r3, .L98+32
 968 0228 1B78     		ldrb	r3, [r3]	@ zero_extendqisi2
 207:Core/Src/Traffic_Light.c ****                 TLRedWaitTime = redDelayMax;
 969              		.loc 1 207 15 view .LVU301
 970 022a 13B9     		cbnz	r3, .L43
 208:Core/Src/Traffic_Light.c ****             }
 971              		.loc 1 208 17 is_stmt 1 view .LVU302
 208:Core/Src/Traffic_Light.c ****             }
 972              		.loc 1 208 31 is_stmt 0 view .LVU303
 973 022c 594B     		ldr	r3, .L98+32
 974 022e 0722     		movs	r2, #7
 975 0230 1A70     		strb	r2, [r3]
 976              	.L43:
 212:Core/Src/Traffic_Light.c ****             checkAndChangeTL();
 977              		.loc 1 212 8 is_stmt 1 view .LVU304
 212:Core/Src/Traffic_Light.c ****             checkAndChangeTL();
 978              		.loc 1 212 11 is_stmt 0 view .LVU305
 979 0232 574B     		ldr	r3, .L98+28
 980 0234 1B78     		ldrb	r3, [r3]	@ zero_extendqisi2
 212:Core/Src/Traffic_Light.c ****             checkAndChangeTL();
 981              		.loc 1 212 10 view .LVU306
 982 0236 002B     		cmp	r3, #0
 983 0238 3FF40DAF 		beq	.L45
 213:Core/Src/Traffic_Light.c ****             if(NCWaitingDelay == 0){
 984              		.loc 1 213 13 is_stmt 1 view .LVU307
 985 023c FFF7FEFF 		bl	checkAndChangeTL
 986              	.LVL52:
 214:Core/Src/Traffic_Light.c ****                 NCWaitingDelay = greenDelay;
 987              		.loc 1 214 13 view .LVU308
 214:Core/Src/Traffic_Light.c ****                 NCWaitingDelay = greenDelay;
 988              		.loc 1 214 31 is_stmt 0 view .LVU309
 989 0240 554B     		ldr	r3, .L98+36
 990 0242 1B78     		ldrb	r3, [r3]	@ zero_extendqisi2
 214:Core/Src/Traffic_Light.c ****                 NCWaitingDelay = greenDelay;
 991              		.loc 1 214 15 view .LVU310
 992 0244 13B9     		cbnz	r3, .L46
 215:Core/Src/Traffic_Light.c ****             }
 993              		.loc 1 215 17 is_stmt 1 view .LVU311
 215:Core/Src/Traffic_Light.c ****             }
 994              		.loc 1 215 32 is_stmt 0 view .LVU312
 995 0246 544B     		ldr	r3, .L98+36
 996 0248 0722     		movs	r2, #7
 997 024a 1A70     		strb	r2, [r3]
 998              	.L46:
 217:Core/Src/Traffic_Light.c ****        }else{
 999              		.loc 1 217 13 is_stmt 1 view .LVU313
 1000 024c 0122     		movs	r2, #1
 1001 024e 4FF40041 		mov	r1, #32768
 1002 0252 5248     		ldr	r0, .L98+40
 1003 0254 FFF7FEFF 		bl	HAL_GPIO_WritePin
 1004              	.LVL53:
 1005              	.L47:
 225:Core/Src/Traffic_Light.c ****             CW1 = PLBlue;
ARM GAS  C:\Users\ehgre\AppData\Local\Temp\ccwqnhSc.s 			page 28


 1006              		.loc 1 225 8 view .LVU314
 225:Core/Src/Traffic_Light.c ****             CW1 = PLBlue;
 1007              		.loc 1 225 11 is_stmt 0 view .LVU315
 1008 0258 FFF7FEFF 		bl	is_pl1
 1009              	.LVL54:
 225:Core/Src/Traffic_Light.c ****             CW1 = PLBlue;
 1010              		.loc 1 225 10 view .LVU316
 1011 025c 40B1     		cbz	r0, .L48
 225:Core/Src/Traffic_Light.c ****             CW1 = PLBlue;
 1012              		.loc 1 225 28 discriminator 1 view .LVU317
 1013 025e 4A4B     		ldr	r3, .L98+20
 1014 0260 1B78     		ldrb	r3, [r3]	@ zero_extendqisi2
 225:Core/Src/Traffic_Light.c ****             CW1 = PLBlue;
 1015              		.loc 1 225 20 discriminator 1 view .LVU318
 1016 0262 2BB9     		cbnz	r3, .L48
 226:Core/Src/Traffic_Light.c ****             PLBlueDelay = pedestrianDelay;
 1017              		.loc 1 226 13 is_stmt 1 view .LVU319
 226:Core/Src/Traffic_Light.c ****             PLBlueDelay = pedestrianDelay;
 1018              		.loc 1 226 17 is_stmt 0 view .LVU320
 1019 0264 474B     		ldr	r3, .L98+16
 1020 0266 0222     		movs	r2, #2
 1021 0268 1A70     		strb	r2, [r3]
 227:Core/Src/Traffic_Light.c ****         }
 1022              		.loc 1 227 13 is_stmt 1 view .LVU321
 227:Core/Src/Traffic_Light.c ****         }
 1023              		.loc 1 227 25 is_stmt 0 view .LVU322
 1024 026a 4D4B     		ldr	r3, .L98+44
 1025 026c 0522     		movs	r2, #5
 1026 026e 1A70     		strb	r2, [r3]
 1027              	.L48:
 230:Core/Src/Traffic_Light.c ****             CW2 = PLBlue;
 1028              		.loc 1 230 9 is_stmt 1 view .LVU323
 230:Core/Src/Traffic_Light.c ****             CW2 = PLBlue;
 1029              		.loc 1 230 12 is_stmt 0 view .LVU324
 1030 0270 FFF7FEFF 		bl	is_pl2
 1031              	.LVL55:
 230:Core/Src/Traffic_Light.c ****             CW2 = PLBlue;
 1032              		.loc 1 230 11 view .LVU325
 1033 0274 40B1     		cbz	r0, .L49
 230:Core/Src/Traffic_Light.c ****             CW2 = PLBlue;
 1034              		.loc 1 230 29 discriminator 1 view .LVU326
 1035 0276 434B     		ldr	r3, .L98+16
 1036 0278 1B78     		ldrb	r3, [r3]	@ zero_extendqisi2
 230:Core/Src/Traffic_Light.c ****             CW2 = PLBlue;
 1037              		.loc 1 230 21 discriminator 1 view .LVU327
 1038 027a 2BB9     		cbnz	r3, .L49
 231:Core/Src/Traffic_Light.c ****             PLBlueDelay = pedestrianDelay;
 1039              		.loc 1 231 13 is_stmt 1 view .LVU328
 231:Core/Src/Traffic_Light.c ****             PLBlueDelay = pedestrianDelay;
 1040              		.loc 1 231 17 is_stmt 0 view .LVU329
 1041 027c 424B     		ldr	r3, .L98+20
 1042 027e 0222     		movs	r2, #2
 1043 0280 1A70     		strb	r2, [r3]
 232:Core/Src/Traffic_Light.c ****         }
 1044              		.loc 1 232 13 is_stmt 1 view .LVU330
 232:Core/Src/Traffic_Light.c ****         }
 1045              		.loc 1 232 25 is_stmt 0 view .LVU331
ARM GAS  C:\Users\ehgre\AppData\Local\Temp\ccwqnhSc.s 			page 29


 1046 0282 474B     		ldr	r3, .L98+44
 1047 0284 0522     		movs	r2, #5
 1048 0286 1A70     		strb	r2, [r3]
 1049              	.L49:
 235:Core/Src/Traffic_Light.c ****             case TLGreen:
 1050              		.loc 1 235 9 is_stmt 1 view .LVU332
 235:Core/Src/Traffic_Light.c ****             case TLGreen:
 1051              		.loc 1 235 19 is_stmt 0 view .LVU333
 1052 0288 464B     		ldr	r3, .L98+48
 1053 028a 1B79     		ldrb	r3, [r3, #4]	@ zero_extendqisi2
 235:Core/Src/Traffic_Light.c ****             case TLGreen:
 1054              		.loc 1 235 9 view .LVU334
 1055 028c 002B     		cmp	r3, #0
 1056 028e 3FF403AF 		beq	.L50
 1057 0292 012B     		cmp	r3, #1
 1058 0294 17D1     		bne	.L51
 237:Core/Src/Traffic_Light.c ****                     bits = TL1_Green(bits, false);
 1059              		.loc 1 237 17 is_stmt 1 view .LVU335
 237:Core/Src/Traffic_Light.c ****                     bits = TL1_Green(bits, false);
 1060              		.loc 1 237 35 is_stmt 0 view .LVU336
 1061 0296 394B     		ldr	r3, .L98+8
 1062 0298 1B78     		ldrb	r3, [r3]	@ zero_extendqisi2
 237:Core/Src/Traffic_Light.c ****                     bits = TL1_Green(bits, false);
 1063              		.loc 1 237 19 view .LVU337
 1064 029a 33B1     		cbz	r3, .L52
 237:Core/Src/Traffic_Light.c ****                     bits = TL1_Green(bits, false);
 1065              		.loc 1 237 45 discriminator 1 view .LVU338
 1066 029c 354B     		ldr	r3, .L98
 1067 029e 1868     		ldr	r0, [r3]
 1068 02a0 FFF7FEFF 		bl	TL1_isGreen
 1069              	.LVL56:
 237:Core/Src/Traffic_Light.c ****                     bits = TL1_Green(bits, false);
 1070              		.loc 1 237 40 discriminator 1 view .LVU339
 1071 02a4 0028     		cmp	r0, #0
 1072 02a6 3FF4E8AE 		beq	.L92
 1073              	.L52:
 242:Core/Src/Traffic_Light.c ****                     bits = TL1_Red(bits, false);
 1074              		.loc 1 242 21 is_stmt 1 view .LVU340
 242:Core/Src/Traffic_Light.c ****                     bits = TL1_Red(bits, false);
 1075              		.loc 1 242 28 is_stmt 0 view .LVU341
 1076 02aa 324C     		ldr	r4, .L98
 1077 02ac 0121     		movs	r1, #1
 1078 02ae 2068     		ldr	r0, [r4]
 1079 02b0 FFF7FEFF 		bl	TL1_Green
 1080              	.LVL57:
 242:Core/Src/Traffic_Light.c ****                     bits = TL1_Red(bits, false);
 1081              		.loc 1 242 26 view .LVU342
 1082 02b4 2060     		str	r0, [r4]
 243:Core/Src/Traffic_Light.c ****                     bits = TL1_Yellow(bits, false);
 1083              		.loc 1 243 21 is_stmt 1 view .LVU343
 243:Core/Src/Traffic_Light.c ****                     bits = TL1_Yellow(bits, false);
 1084              		.loc 1 243 28 is_stmt 0 view .LVU344
 1085 02b6 0021     		movs	r1, #0
 1086 02b8 FFF7FEFF 		bl	TL1_Red
 1087              	.LVL58:
 243:Core/Src/Traffic_Light.c ****                     bits = TL1_Yellow(bits, false);
 1088              		.loc 1 243 26 view .LVU345
ARM GAS  C:\Users\ehgre\AppData\Local\Temp\ccwqnhSc.s 			page 30


 1089 02bc 2060     		str	r0, [r4]
 244:Core/Src/Traffic_Light.c ****                 }
 1090              		.loc 1 244 21 is_stmt 1 view .LVU346
 244:Core/Src/Traffic_Light.c ****                 }
 1091              		.loc 1 244 28 is_stmt 0 view .LVU347
 1092 02be 0021     		movs	r1, #0
 1093 02c0 FFF7FEFF 		bl	TL1_Yellow
 1094              	.LVL59:
 244:Core/Src/Traffic_Light.c ****                 }
 1095              		.loc 1 244 26 view .LVU348
 1096 02c4 2060     		str	r0, [r4]
 1097              	.L51:
 262:Core/Src/Traffic_Light.c ****             case TLGreen:
 1098              		.loc 1 262 9 is_stmt 1 view .LVU349
 262:Core/Src/Traffic_Light.c ****             case TLGreen:
 1099              		.loc 1 262 19 is_stmt 0 view .LVU350
 1100 02c6 384B     		ldr	r3, .L98+52
 1101 02c8 1B79     		ldrb	r3, [r3, #4]	@ zero_extendqisi2
 262:Core/Src/Traffic_Light.c ****             case TLGreen:
 1102              		.loc 1 262 9 view .LVU351
 1103 02ca EBB1     		cbz	r3, .L54
 1104 02cc 012B     		cmp	r3, #1
 1105 02ce 7FF425AF 		bne	.L55
 264:Core/Src/Traffic_Light.c ****                     bits = TL2_Green(bits, false);
 1106              		.loc 1 264 17 is_stmt 1 view .LVU352
 264:Core/Src/Traffic_Light.c ****                     bits = TL2_Green(bits, false);
 1107              		.loc 1 264 35 is_stmt 0 view .LVU353
 1108 02d2 2A4B     		ldr	r3, .L98+8
 1109 02d4 1B78     		ldrb	r3, [r3]	@ zero_extendqisi2
 264:Core/Src/Traffic_Light.c ****                     bits = TL2_Green(bits, false);
 1110              		.loc 1 264 19 view .LVU354
 1111 02d6 002B     		cmp	r3, #0
 1112 02d8 3FF412AF 		beq	.L56
 264:Core/Src/Traffic_Light.c ****                     bits = TL2_Green(bits, false);
 1113              		.loc 1 264 45 discriminator 1 view .LVU355
 1114 02dc 254B     		ldr	r3, .L98
 1115 02de 1868     		ldr	r0, [r3]
 1116 02e0 FFF7FEFF 		bl	TL2_isGreen
 1117              	.LVL60:
 264:Core/Src/Traffic_Light.c ****                     bits = TL2_Green(bits, false);
 1118              		.loc 1 264 40 discriminator 1 view .LVU356
 1119 02e4 0028     		cmp	r0, #0
 1120 02e6 7FF40BAF 		bne	.L56
 265:Core/Src/Traffic_Light.c ****                     bits = TL2_Red(bits, true);
 1121              		.loc 1 265 21 is_stmt 1 view .LVU357
 265:Core/Src/Traffic_Light.c ****                     bits = TL2_Red(bits, true);
 1122              		.loc 1 265 28 is_stmt 0 view .LVU358
 1123 02ea 224C     		ldr	r4, .L98
 1124 02ec 0021     		movs	r1, #0
 1125 02ee 2068     		ldr	r0, [r4]
 1126 02f0 FFF7FEFF 		bl	TL2_Green
 1127              	.LVL61:
 265:Core/Src/Traffic_Light.c ****                     bits = TL2_Red(bits, true);
 1128              		.loc 1 265 26 view .LVU359
 1129 02f4 2060     		str	r0, [r4]
 266:Core/Src/Traffic_Light.c ****                     bits = TL2_Yellow(bits, true);
 1130              		.loc 1 266 21 is_stmt 1 view .LVU360
ARM GAS  C:\Users\ehgre\AppData\Local\Temp\ccwqnhSc.s 			page 31


 266:Core/Src/Traffic_Light.c ****                     bits = TL2_Yellow(bits, true);
 1131              		.loc 1 266 28 is_stmt 0 view .LVU361
 1132 02f6 0121     		movs	r1, #1
 1133 02f8 FFF7FEFF 		bl	TL2_Red
 1134              	.LVL62:
 266:Core/Src/Traffic_Light.c ****                     bits = TL2_Yellow(bits, true);
 1135              		.loc 1 266 26 view .LVU362
 1136 02fc 2060     		str	r0, [r4]
 267:Core/Src/Traffic_Light.c ****                 }else{
 1137              		.loc 1 267 21 is_stmt 1 view .LVU363
 267:Core/Src/Traffic_Light.c ****                 }else{
 1138              		.loc 1 267 28 is_stmt 0 view .LVU364
 1139 02fe 0121     		movs	r1, #1
 1140 0300 FFF7FEFF 		bl	TL2_Yellow
 1141              	.LVL63:
 267:Core/Src/Traffic_Light.c ****                 }else{
 1142              		.loc 1 267 26 view .LVU365
 1143 0304 2060     		str	r0, [r4]
 1144 0306 09E7     		b	.L55
 1145              	.L54:
 275:Core/Src/Traffic_Light.c ****                     bits = TL2_Green(bits, false);
 1146              		.loc 1 275 17 is_stmt 1 view .LVU366
 275:Core/Src/Traffic_Light.c ****                     bits = TL2_Green(bits, false);
 1147              		.loc 1 275 35 is_stmt 0 view .LVU367
 1148 0308 1C4B     		ldr	r3, .L98+8
 1149 030a 1B78     		ldrb	r3, [r3]	@ zero_extendqisi2
 275:Core/Src/Traffic_Light.c ****                     bits = TL2_Green(bits, false);
 1150              		.loc 1 275 19 view .LVU368
 1151 030c 23B1     		cbz	r3, .L57
 275:Core/Src/Traffic_Light.c ****                     bits = TL2_Green(bits, false);
 1152              		.loc 1 275 45 discriminator 1 view .LVU369
 1153 030e 194B     		ldr	r3, .L98
 1154 0310 1868     		ldr	r0, [r3]
 1155 0312 FFF7FEFF 		bl	TL2_isRed
 1156              	.LVL64:
 275:Core/Src/Traffic_Light.c ****                     bits = TL2_Green(bits, false);
 1157              		.loc 1 275 40 discriminator 1 view .LVU370
 1158 0316 70B1     		cbz	r0, .L93
 1159              	.L57:
 280:Core/Src/Traffic_Light.c ****                     bits = TL2_Red(bits, true);
 1160              		.loc 1 280 21 is_stmt 1 view .LVU371
 280:Core/Src/Traffic_Light.c ****                     bits = TL2_Red(bits, true);
 1161              		.loc 1 280 28 is_stmt 0 view .LVU372
 1162 0318 164C     		ldr	r4, .L98
 1163 031a 0021     		movs	r1, #0
 1164 031c 2068     		ldr	r0, [r4]
 1165 031e FFF7FEFF 		bl	TL2_Green
 1166              	.LVL65:
 280:Core/Src/Traffic_Light.c ****                     bits = TL2_Red(bits, true);
 1167              		.loc 1 280 26 view .LVU373
 1168 0322 2060     		str	r0, [r4]
 281:Core/Src/Traffic_Light.c ****                     bits = TL2_Yellow(bits, false);
 1169              		.loc 1 281 21 is_stmt 1 view .LVU374
 281:Core/Src/Traffic_Light.c ****                     bits = TL2_Yellow(bits, false);
 1170              		.loc 1 281 28 is_stmt 0 view .LVU375
 1171 0324 0121     		movs	r1, #1
 1172 0326 FFF7FEFF 		bl	TL2_Red
ARM GAS  C:\Users\ehgre\AppData\Local\Temp\ccwqnhSc.s 			page 32


 1173              	.LVL66:
 281:Core/Src/Traffic_Light.c ****                     bits = TL2_Yellow(bits, false);
 1174              		.loc 1 281 26 view .LVU376
 1175 032a 2060     		str	r0, [r4]
 282:Core/Src/Traffic_Light.c ****                 }
 1176              		.loc 1 282 21 is_stmt 1 view .LVU377
 282:Core/Src/Traffic_Light.c ****                 }
 1177              		.loc 1 282 28 is_stmt 0 view .LVU378
 1178 032c 0021     		movs	r1, #0
 1179 032e FFF7FEFF 		bl	TL2_Yellow
 1180              	.LVL67:
 282:Core/Src/Traffic_Light.c ****                 }
 1181              		.loc 1 282 26 view .LVU379
 1182 0332 2060     		str	r0, [r4]
 1183 0334 F2E6     		b	.L55
 1184              	.L93:
 276:Core/Src/Traffic_Light.c ****                     bits = TL2_Red(bits, false);
 1185              		.loc 1 276 21 is_stmt 1 view .LVU380
 276:Core/Src/Traffic_Light.c ****                     bits = TL2_Red(bits, false);
 1186              		.loc 1 276 28 is_stmt 0 view .LVU381
 1187 0336 0F4C     		ldr	r4, .L98
 1188 0338 0021     		movs	r1, #0
 1189 033a 2068     		ldr	r0, [r4]
 1190 033c FFF7FEFF 		bl	TL2_Green
 1191              	.LVL68:
 276:Core/Src/Traffic_Light.c ****                     bits = TL2_Red(bits, false);
 1192              		.loc 1 276 26 view .LVU382
 1193 0340 2060     		str	r0, [r4]
 277:Core/Src/Traffic_Light.c ****                     bits = TL2_Yellow(bits, true);
 1194              		.loc 1 277 21 is_stmt 1 view .LVU383
 277:Core/Src/Traffic_Light.c ****                     bits = TL2_Yellow(bits, true);
 1195              		.loc 1 277 28 is_stmt 0 view .LVU384
 1196 0342 0021     		movs	r1, #0
 1197 0344 FFF7FEFF 		bl	TL2_Red
 1198              	.LVL69:
 277:Core/Src/Traffic_Light.c ****                     bits = TL2_Yellow(bits, true);
 1199              		.loc 1 277 26 view .LVU385
 1200 0348 2060     		str	r0, [r4]
 278:Core/Src/Traffic_Light.c ****                 }else{
 1201              		.loc 1 278 21 is_stmt 1 view .LVU386
 278:Core/Src/Traffic_Light.c ****                 }else{
 1202              		.loc 1 278 28 is_stmt 0 view .LVU387
 1203 034a 0121     		movs	r1, #1
 1204 034c FFF7FEFF 		bl	TL2_Yellow
 1205              	.LVL70:
 278:Core/Src/Traffic_Light.c ****                 }else{
 1206              		.loc 1 278 26 view .LVU388
 1207 0350 2060     		str	r0, [r4]
 1208 0352 E3E6     		b	.L55
 1209              	.L86:
 292:Core/Src/Traffic_Light.c ****                     bits = TL3_Red(bits, true);
 1210              		.loc 1 292 21 is_stmt 1 view .LVU389
 292:Core/Src/Traffic_Light.c ****                     bits = TL3_Red(bits, true);
 1211              		.loc 1 292 28 is_stmt 0 view .LVU390
 1212 0354 074C     		ldr	r4, .L98
 1213 0356 0021     		movs	r1, #0
 1214 0358 2068     		ldr	r0, [r4]
ARM GAS  C:\Users\ehgre\AppData\Local\Temp\ccwqnhSc.s 			page 33


 1215 035a FFF7FEFF 		bl	TL3_Green
 1216              	.LVL71:
 292:Core/Src/Traffic_Light.c ****                     bits = TL3_Red(bits, true);
 1217              		.loc 1 292 26 view .LVU391
 1218 035e 2060     		str	r0, [r4]
 293:Core/Src/Traffic_Light.c ****                     bits = TL3_Yellow(bits, true);
 1219              		.loc 1 293 21 is_stmt 1 view .LVU392
 293:Core/Src/Traffic_Light.c ****                     bits = TL3_Yellow(bits, true);
 1220              		.loc 1 293 28 is_stmt 0 view .LVU393
 1221 0360 0121     		movs	r1, #1
 1222 0362 FFF7FEFF 		bl	TL3_Red
 1223              	.LVL72:
 293:Core/Src/Traffic_Light.c ****                     bits = TL3_Yellow(bits, true);
 1224              		.loc 1 293 26 view .LVU394
 1225 0366 2060     		str	r0, [r4]
 294:Core/Src/Traffic_Light.c ****                 }else{
 1226              		.loc 1 294 21 is_stmt 1 view .LVU395
 294:Core/Src/Traffic_Light.c ****                 }else{
 1227              		.loc 1 294 28 is_stmt 0 view .LVU396
 1228 0368 0121     		movs	r1, #1
 1229 036a FFF7FEFF 		bl	TL3_Yellow
 1230              	.LVL73:
 294:Core/Src/Traffic_Light.c ****                 }else{
 1231              		.loc 1 294 26 view .LVU397
 1232 036e 2060     		str	r0, [r4]
 1233 0370 F3E6     		b	.L59
 1234              	.L99:
 1235 0372 00BF     		.align	2
 1236              	.L98:
 1237 0374 00000000 		.word	bits
 1238 0378 00000000 		.word	C3
 1239 037c 00000000 		.word	TLYellowDelay
 1240 0380 00000000 		.word	C4
 1241 0384 00000000 		.word	CW1
 1242 0388 00000000 		.word	CW2
 1243 038c 00000000 		.word	brightness
 1244 0390 00000000 		.word	NoCarsWaiting
 1245 0394 00000000 		.word	TLRedWaitTime
 1246 0398 00000000 		.word	NCWaitingDelay
 1247 039c 00040048 		.word	1207960576
 1248 03a0 00000000 		.word	PLBlueDelay
 1249 03a4 00000000 		.word	C1
 1250 03a8 00000000 		.word	C2
 1251              	.L58:
 302:Core/Src/Traffic_Light.c ****                     bits = TL3_Green(bits, false);
 1252              		.loc 1 302 17 is_stmt 1 view .LVU398
 302:Core/Src/Traffic_Light.c ****                     bits = TL3_Green(bits, false);
 1253              		.loc 1 302 35 is_stmt 0 view .LVU399
 1254 03ac 884B     		ldr	r3, .L100
 1255 03ae 1B78     		ldrb	r3, [r3]	@ zero_extendqisi2
 302:Core/Src/Traffic_Light.c ****                     bits = TL3_Green(bits, false);
 1256              		.loc 1 302 19 view .LVU400
 1257 03b0 23B1     		cbz	r3, .L61
 302:Core/Src/Traffic_Light.c ****                     bits = TL3_Green(bits, false);
 1258              		.loc 1 302 45 discriminator 1 view .LVU401
 1259 03b2 884B     		ldr	r3, .L100+4
 1260 03b4 1868     		ldr	r0, [r3]
ARM GAS  C:\Users\ehgre\AppData\Local\Temp\ccwqnhSc.s 			page 34


 1261 03b6 FFF7FEFF 		bl	TL3_isRed
 1262              	.LVL74:
 302:Core/Src/Traffic_Light.c ****                     bits = TL3_Green(bits, false);
 1263              		.loc 1 302 40 discriminator 1 view .LVU402
 1264 03ba 70B1     		cbz	r0, .L94
 1265              	.L61:
 307:Core/Src/Traffic_Light.c ****                     bits = TL3_Red(bits, true);
 1266              		.loc 1 307 21 is_stmt 1 view .LVU403
 307:Core/Src/Traffic_Light.c ****                     bits = TL3_Red(bits, true);
 1267              		.loc 1 307 28 is_stmt 0 view .LVU404
 1268 03bc 854C     		ldr	r4, .L100+4
 1269 03be 0021     		movs	r1, #0
 1270 03c0 2068     		ldr	r0, [r4]
 1271 03c2 FFF7FEFF 		bl	TL3_Green
 1272              	.LVL75:
 307:Core/Src/Traffic_Light.c ****                     bits = TL3_Red(bits, true);
 1273              		.loc 1 307 26 view .LVU405
 1274 03c6 2060     		str	r0, [r4]
 308:Core/Src/Traffic_Light.c ****                     bits = TL3_Yellow(bits, false);
 1275              		.loc 1 308 21 is_stmt 1 view .LVU406
 308:Core/Src/Traffic_Light.c ****                     bits = TL3_Yellow(bits, false);
 1276              		.loc 1 308 28 is_stmt 0 view .LVU407
 1277 03c8 0121     		movs	r1, #1
 1278 03ca FFF7FEFF 		bl	TL3_Red
 1279              	.LVL76:
 308:Core/Src/Traffic_Light.c ****                     bits = TL3_Yellow(bits, false);
 1280              		.loc 1 308 26 view .LVU408
 1281 03ce 2060     		str	r0, [r4]
 309:Core/Src/Traffic_Light.c ****                 }
 1282              		.loc 1 309 21 is_stmt 1 view .LVU409
 309:Core/Src/Traffic_Light.c ****                 }
 1283              		.loc 1 309 28 is_stmt 0 view .LVU410
 1284 03d0 0021     		movs	r1, #0
 1285 03d2 FFF7FEFF 		bl	TL3_Yellow
 1286              	.LVL77:
 309:Core/Src/Traffic_Light.c ****                 }
 1287              		.loc 1 309 26 view .LVU411
 1288 03d6 2060     		str	r0, [r4]
 1289 03d8 BFE6     		b	.L59
 1290              	.L94:
 303:Core/Src/Traffic_Light.c ****                     bits = TL3_Red(bits, false);
 1291              		.loc 1 303 21 is_stmt 1 view .LVU412
 303:Core/Src/Traffic_Light.c ****                     bits = TL3_Red(bits, false);
 1292              		.loc 1 303 28 is_stmt 0 view .LVU413
 1293 03da 7E4C     		ldr	r4, .L100+4
 1294 03dc 0021     		movs	r1, #0
 1295 03de 2068     		ldr	r0, [r4]
 1296 03e0 FFF7FEFF 		bl	TL3_Green
 1297              	.LVL78:
 303:Core/Src/Traffic_Light.c ****                     bits = TL3_Red(bits, false);
 1298              		.loc 1 303 26 view .LVU414
 1299 03e4 2060     		str	r0, [r4]
 304:Core/Src/Traffic_Light.c ****                     bits = TL3_Yellow(bits, true);
 1300              		.loc 1 304 21 is_stmt 1 view .LVU415
 304:Core/Src/Traffic_Light.c ****                     bits = TL3_Yellow(bits, true);
 1301              		.loc 1 304 28 is_stmt 0 view .LVU416
 1302 03e6 0021     		movs	r1, #0
ARM GAS  C:\Users\ehgre\AppData\Local\Temp\ccwqnhSc.s 			page 35


 1303 03e8 FFF7FEFF 		bl	TL3_Red
 1304              	.LVL79:
 304:Core/Src/Traffic_Light.c ****                     bits = TL3_Yellow(bits, true);
 1305              		.loc 1 304 26 view .LVU417
 1306 03ec 2060     		str	r0, [r4]
 305:Core/Src/Traffic_Light.c ****                 }else{
 1307              		.loc 1 305 21 is_stmt 1 view .LVU418
 305:Core/Src/Traffic_Light.c ****                 }else{
 1308              		.loc 1 305 28 is_stmt 0 view .LVU419
 1309 03ee 0121     		movs	r1, #1
 1310 03f0 FFF7FEFF 		bl	TL3_Yellow
 1311              	.LVL80:
 305:Core/Src/Traffic_Light.c ****                 }else{
 1312              		.loc 1 305 26 view .LVU420
 1313 03f4 2060     		str	r0, [r4]
 1314 03f6 B0E6     		b	.L59
 1315              	.L87:
 319:Core/Src/Traffic_Light.c ****                     bits = TL4_Red(bits, true);
 1316              		.loc 1 319 21 is_stmt 1 view .LVU421
 319:Core/Src/Traffic_Light.c ****                     bits = TL4_Red(bits, true);
 1317              		.loc 1 319 28 is_stmt 0 view .LVU422
 1318 03f8 764C     		ldr	r4, .L100+4
 1319 03fa 0021     		movs	r1, #0
 1320 03fc 2068     		ldr	r0, [r4]
 1321 03fe FFF7FEFF 		bl	TL4_Green
 1322              	.LVL81:
 319:Core/Src/Traffic_Light.c ****                     bits = TL4_Red(bits, true);
 1323              		.loc 1 319 26 view .LVU423
 1324 0402 2060     		str	r0, [r4]
 320:Core/Src/Traffic_Light.c ****                     bits = TL4_Yellow(bits, true);
 1325              		.loc 1 320 21 is_stmt 1 view .LVU424
 320:Core/Src/Traffic_Light.c ****                     bits = TL4_Yellow(bits, true);
 1326              		.loc 1 320 28 is_stmt 0 view .LVU425
 1327 0404 0121     		movs	r1, #1
 1328 0406 FFF7FEFF 		bl	TL4_Red
 1329              	.LVL82:
 320:Core/Src/Traffic_Light.c ****                     bits = TL4_Yellow(bits, true);
 1330              		.loc 1 320 26 view .LVU426
 1331 040a 2060     		str	r0, [r4]
 321:Core/Src/Traffic_Light.c ****                 }else{
 1332              		.loc 1 321 21 is_stmt 1 view .LVU427
 321:Core/Src/Traffic_Light.c ****                 }else{
 1333              		.loc 1 321 28 is_stmt 0 view .LVU428
 1334 040c 0121     		movs	r1, #1
 1335 040e FFF7FEFF 		bl	TL4_Yellow
 1336              	.LVL83:
 321:Core/Src/Traffic_Light.c ****                 }else{
 1337              		.loc 1 321 26 view .LVU429
 1338 0412 2060     		str	r0, [r4]
 1339 0414 C0E6     		b	.L63
 1340              	.L62:
 329:Core/Src/Traffic_Light.c ****                     bits = TL4_Green(bits, false);
 1341              		.loc 1 329 17 is_stmt 1 view .LVU430
 329:Core/Src/Traffic_Light.c ****                     bits = TL4_Green(bits, false);
 1342              		.loc 1 329 35 is_stmt 0 view .LVU431
 1343 0416 6E4B     		ldr	r3, .L100
 1344 0418 1B78     		ldrb	r3, [r3]	@ zero_extendqisi2
ARM GAS  C:\Users\ehgre\AppData\Local\Temp\ccwqnhSc.s 			page 36


 329:Core/Src/Traffic_Light.c ****                     bits = TL4_Green(bits, false);
 1345              		.loc 1 329 19 view .LVU432
 1346 041a 23B1     		cbz	r3, .L65
 329:Core/Src/Traffic_Light.c ****                     bits = TL4_Green(bits, false);
 1347              		.loc 1 329 46 discriminator 1 view .LVU433
 1348 041c 6D4B     		ldr	r3, .L100+4
 1349 041e 1868     		ldr	r0, [r3]
 1350 0420 FFF7FEFF 		bl	TL4_isRed
 1351              	.LVL84:
 329:Core/Src/Traffic_Light.c ****                     bits = TL4_Green(bits, false);
 1352              		.loc 1 329 41 discriminator 1 view .LVU434
 1353 0424 70B1     		cbz	r0, .L95
 1354              	.L65:
 334:Core/Src/Traffic_Light.c ****                     bits = TL4_Red(bits, true);
 1355              		.loc 1 334 21 is_stmt 1 view .LVU435
 334:Core/Src/Traffic_Light.c ****                     bits = TL4_Red(bits, true);
 1356              		.loc 1 334 28 is_stmt 0 view .LVU436
 1357 0426 6B4C     		ldr	r4, .L100+4
 1358 0428 0021     		movs	r1, #0
 1359 042a 2068     		ldr	r0, [r4]
 1360 042c FFF7FEFF 		bl	TL4_Green
 1361              	.LVL85:
 334:Core/Src/Traffic_Light.c ****                     bits = TL4_Red(bits, true);
 1362              		.loc 1 334 26 view .LVU437
 1363 0430 2060     		str	r0, [r4]
 335:Core/Src/Traffic_Light.c ****                     bits = TL4_Yellow(bits, false);
 1364              		.loc 1 335 21 is_stmt 1 view .LVU438
 335:Core/Src/Traffic_Light.c ****                     bits = TL4_Yellow(bits, false);
 1365              		.loc 1 335 28 is_stmt 0 view .LVU439
 1366 0432 0121     		movs	r1, #1
 1367 0434 FFF7FEFF 		bl	TL4_Red
 1368              	.LVL86:
 335:Core/Src/Traffic_Light.c ****                     bits = TL4_Yellow(bits, false);
 1369              		.loc 1 335 26 view .LVU440
 1370 0438 2060     		str	r0, [r4]
 336:Core/Src/Traffic_Light.c ****                 }
 1371              		.loc 1 336 21 is_stmt 1 view .LVU441
 336:Core/Src/Traffic_Light.c ****                 }
 1372              		.loc 1 336 28 is_stmt 0 view .LVU442
 1373 043a 0021     		movs	r1, #0
 1374 043c FFF7FEFF 		bl	TL4_Yellow
 1375              	.LVL87:
 336:Core/Src/Traffic_Light.c ****                 }
 1376              		.loc 1 336 26 view .LVU443
 1377 0440 2060     		str	r0, [r4]
 1378 0442 A9E6     		b	.L63
 1379              	.L95:
 330:Core/Src/Traffic_Light.c ****                     bits = TL4_Red(bits, false);
 1380              		.loc 1 330 21 is_stmt 1 view .LVU444
 330:Core/Src/Traffic_Light.c ****                     bits = TL4_Red(bits, false);
 1381              		.loc 1 330 28 is_stmt 0 view .LVU445
 1382 0444 634C     		ldr	r4, .L100+4
 1383 0446 0021     		movs	r1, #0
 1384 0448 2068     		ldr	r0, [r4]
 1385 044a FFF7FEFF 		bl	TL4_Green
 1386              	.LVL88:
 330:Core/Src/Traffic_Light.c ****                     bits = TL4_Red(bits, false);
ARM GAS  C:\Users\ehgre\AppData\Local\Temp\ccwqnhSc.s 			page 37


 1387              		.loc 1 330 26 view .LVU446
 1388 044e 2060     		str	r0, [r4]
 331:Core/Src/Traffic_Light.c ****                     bits = TL4_Yellow(bits, true);
 1389              		.loc 1 331 21 is_stmt 1 view .LVU447
 331:Core/Src/Traffic_Light.c ****                     bits = TL4_Yellow(bits, true);
 1390              		.loc 1 331 28 is_stmt 0 view .LVU448
 1391 0450 0021     		movs	r1, #0
 1392 0452 FFF7FEFF 		bl	TL4_Red
 1393              	.LVL89:
 331:Core/Src/Traffic_Light.c ****                     bits = TL4_Yellow(bits, true);
 1394              		.loc 1 331 26 view .LVU449
 1395 0456 2060     		str	r0, [r4]
 332:Core/Src/Traffic_Light.c ****                 }else{
 1396              		.loc 1 332 21 is_stmt 1 view .LVU450
 332:Core/Src/Traffic_Light.c ****                 }else{
 1397              		.loc 1 332 28 is_stmt 0 view .LVU451
 1398 0458 0121     		movs	r1, #1
 1399 045a FFF7FEFF 		bl	TL4_Yellow
 1400              	.LVL90:
 332:Core/Src/Traffic_Light.c ****                 }else{
 1401              		.loc 1 332 26 view .LVU452
 1402 045e 2060     		str	r0, [r4]
 1403 0460 9AE6     		b	.L63
 1404              	.L66:
 345:Core/Src/Traffic_Light.c ****                     checkAndChangeTL();
 1405              		.loc 1 345 17 is_stmt 1 view .LVU453
 345:Core/Src/Traffic_Light.c ****                     checkAndChangeTL();
 1406              		.loc 1 345 23 is_stmt 0 view .LVU454
 1407 0462 5D4B     		ldr	r3, .L100+8
 1408 0464 1B79     		ldrb	r3, [r3, #4]	@ zero_extendqisi2
 345:Core/Src/Traffic_Light.c ****                     checkAndChangeTL();
 1409              		.loc 1 345 19 view .LVU455
 1410 0466 2BB9     		cbnz	r3, .L70
 345:Core/Src/Traffic_Light.c ****                     checkAndChangeTL();
 1411              		.loc 1 345 46 discriminator 1 view .LVU456
 1412 0468 5C4B     		ldr	r3, .L100+12
 1413 046a 1B79     		ldrb	r3, [r3, #4]	@ zero_extendqisi2
 345:Core/Src/Traffic_Light.c ****                     checkAndChangeTL();
 1414              		.loc 1 345 40 discriminator 1 view .LVU457
 1415 046c 13B9     		cbnz	r3, .L70
 345:Core/Src/Traffic_Light.c ****                     checkAndChangeTL();
 1416              		.loc 1 345 69 discriminator 2 view .LVU458
 1417 046e 5C4B     		ldr	r3, .L100+16
 1418 0470 1B79     		ldrb	r3, [r3, #4]	@ zero_extendqisi2
 345:Core/Src/Traffic_Light.c ****                     checkAndChangeTL();
 1419              		.loc 1 345 63 discriminator 2 view .LVU459
 1420 0472 2BB1     		cbz	r3, .L71
 1421              	.L70:
 346:Core/Src/Traffic_Light.c ****                     TLYellowDelay = orangeDelay;
 1422              		.loc 1 346 21 is_stmt 1 view .LVU460
 1423 0474 FFF7FEFF 		bl	checkAndChangeTL
 1424              	.LVL91:
 347:Core/Src/Traffic_Light.c ****                 }else{
 1425              		.loc 1 347 21 view .LVU461
 347:Core/Src/Traffic_Light.c ****                 }else{
 1426              		.loc 1 347 35 is_stmt 0 view .LVU462
 1427 0478 554B     		ldr	r3, .L100
ARM GAS  C:\Users\ehgre\AppData\Local\Temp\ccwqnhSc.s 			page 38


 1428 047a 0122     		movs	r2, #1
 1429 047c 1A70     		strb	r2, [r3]
 1430 047e 96E6     		b	.L69
 1431              	.L71:
 349:Core/Src/Traffic_Light.c ****                         if(PLGreenDelay > 0){
 1432              		.loc 1 349 21 is_stmt 1 view .LVU463
 349:Core/Src/Traffic_Light.c ****                         if(PLGreenDelay > 0){
 1433              		.loc 1 349 38 is_stmt 0 view .LVU464
 1434 0480 534B     		ldr	r3, .L100
 1435 0482 1B78     		ldrb	r3, [r3]	@ zero_extendqisi2
 349:Core/Src/Traffic_Light.c ****                         if(PLGreenDelay > 0){
 1436              		.loc 1 349 23 view .LVU465
 1437 0484 002B     		cmp	r3, #0
 1438 0486 7FF492AE 		bne	.L69
 350:Core/Src/Traffic_Light.c ****                             bits = PL1_Green(bits, true);
 1439              		.loc 1 350 25 is_stmt 1 view .LVU466
 350:Core/Src/Traffic_Light.c ****                             bits = PL1_Green(bits, true);
 1440              		.loc 1 350 41 is_stmt 0 view .LVU467
 1441 048a 564B     		ldr	r3, .L100+20
 1442 048c 1B78     		ldrb	r3, [r3]	@ zero_extendqisi2
 350:Core/Src/Traffic_Light.c ****                             bits = PL1_Green(bits, true);
 1443              		.loc 1 350 27 view .LVU468
 1444 048e 53B1     		cbz	r3, .L72
 351:Core/Src/Traffic_Light.c ****                             bits = PL1_Red(bits, false);
 1445              		.loc 1 351 29 is_stmt 1 view .LVU469
 351:Core/Src/Traffic_Light.c ****                             bits = PL1_Red(bits, false);
 1446              		.loc 1 351 36 is_stmt 0 view .LVU470
 1447 0490 504C     		ldr	r4, .L100+4
 1448 0492 0121     		movs	r1, #1
 1449 0494 2068     		ldr	r0, [r4]
 1450 0496 FFF7FEFF 		bl	PL1_Green
 1451              	.LVL92:
 351:Core/Src/Traffic_Light.c ****                             bits = PL1_Red(bits, false);
 1452              		.loc 1 351 34 view .LVU471
 1453 049a 2060     		str	r0, [r4]
 352:Core/Src/Traffic_Light.c ****                         }else{
 1454              		.loc 1 352 29 is_stmt 1 view .LVU472
 352:Core/Src/Traffic_Light.c ****                         }else{
 1455              		.loc 1 352 36 is_stmt 0 view .LVU473
 1456 049c 0021     		movs	r1, #0
 1457 049e FFF7FEFF 		bl	PL1_Red
 1458              	.LVL93:
 352:Core/Src/Traffic_Light.c ****                         }else{
 1459              		.loc 1 352 34 view .LVU474
 1460 04a2 2060     		str	r0, [r4]
 1461 04a4 83E6     		b	.L69
 1462              	.L72:
 354:Core/Src/Traffic_Light.c ****                             bits = PL1_Green(bits, false);
 1463              		.loc 1 354 29 is_stmt 1 view .LVU475
 354:Core/Src/Traffic_Light.c ****                             bits = PL1_Green(bits, false);
 1464              		.loc 1 354 33 is_stmt 0 view .LVU476
 1465 04a6 0021     		movs	r1, #0
 1466 04a8 4F4B     		ldr	r3, .L100+24
 1467 04aa 1970     		strb	r1, [r3]
 355:Core/Src/Traffic_Light.c ****                             bits = PL1_Red(bits, true);
 1468              		.loc 1 355 29 is_stmt 1 view .LVU477
 355:Core/Src/Traffic_Light.c ****                             bits = PL1_Red(bits, true);
ARM GAS  C:\Users\ehgre\AppData\Local\Temp\ccwqnhSc.s 			page 39


 1469              		.loc 1 355 36 is_stmt 0 view .LVU478
 1470 04ac 494C     		ldr	r4, .L100+4
 1471 04ae 2068     		ldr	r0, [r4]
 1472 04b0 FFF7FEFF 		bl	PL1_Green
 1473              	.LVL94:
 355:Core/Src/Traffic_Light.c ****                             bits = PL1_Red(bits, true);
 1474              		.loc 1 355 34 view .LVU479
 1475 04b4 2060     		str	r0, [r4]
 356:Core/Src/Traffic_Light.c ****                         }
 1476              		.loc 1 356 29 is_stmt 1 view .LVU480
 356:Core/Src/Traffic_Light.c ****                         }
 1477              		.loc 1 356 36 is_stmt 0 view .LVU481
 1478 04b6 0121     		movs	r1, #1
 1479 04b8 FFF7FEFF 		bl	PL1_Red
 1480              	.LVL95:
 356:Core/Src/Traffic_Light.c ****                         }
 1481              		.loc 1 356 34 view .LVU482
 1482 04bc 2060     		str	r0, [r4]
 1483 04be 76E6     		b	.L69
 1484              	.L67:
 362:Core/Src/Traffic_Light.c ****                     if(BlueOn){
 1485              		.loc 1 362 17 is_stmt 1 view .LVU483
 362:Core/Src/Traffic_Light.c ****                     if(BlueOn){
 1486              		.loc 1 362 32 is_stmt 0 view .LVU484
 1487 04c0 4A4B     		ldr	r3, .L100+28
 1488 04c2 1B78     		ldrb	r3, [r3]	@ zero_extendqisi2
 362:Core/Src/Traffic_Light.c ****                     if(BlueOn){
 1489              		.loc 1 362 19 view .LVU485
 1490 04c4 83B1     		cbz	r3, .L73
 363:Core/Src/Traffic_Light.c ****                         bits = PL1_Blue(bits, true);
 1491              		.loc 1 363 21 is_stmt 1 view .LVU486
 363:Core/Src/Traffic_Light.c ****                         bits = PL1_Blue(bits, true);
 1492              		.loc 1 363 24 is_stmt 0 view .LVU487
 1493 04c6 4A4B     		ldr	r3, .L100+32
 1494 04c8 1B78     		ldrb	r3, [r3]	@ zero_extendqisi2
 363:Core/Src/Traffic_Light.c ****                         bits = PL1_Blue(bits, true);
 1495              		.loc 1 363 23 view .LVU488
 1496 04ca 33B1     		cbz	r3, .L74
 364:Core/Src/Traffic_Light.c ****                     }else{
 1497              		.loc 1 364 25 is_stmt 1 view .LVU489
 364:Core/Src/Traffic_Light.c ****                     }else{
 1498              		.loc 1 364 32 is_stmt 0 view .LVU490
 1499 04cc 414C     		ldr	r4, .L100+4
 1500 04ce 0121     		movs	r1, #1
 1501 04d0 2068     		ldr	r0, [r4]
 1502 04d2 FFF7FEFF 		bl	PL1_Blue
 1503              	.LVL96:
 364:Core/Src/Traffic_Light.c ****                     }else{
 1504              		.loc 1 364 30 view .LVU491
 1505 04d6 2060     		str	r0, [r4]
 1506 04d8 69E6     		b	.L69
 1507              	.L74:
 366:Core/Src/Traffic_Light.c ****                     }
 1508              		.loc 1 366 25 is_stmt 1 view .LVU492
 366:Core/Src/Traffic_Light.c ****                     }
 1509              		.loc 1 366 32 is_stmt 0 view .LVU493
 1510 04da 3E4C     		ldr	r4, .L100+4
ARM GAS  C:\Users\ehgre\AppData\Local\Temp\ccwqnhSc.s 			page 40


 1511 04dc 0021     		movs	r1, #0
 1512 04de 2068     		ldr	r0, [r4]
 1513 04e0 FFF7FEFF 		bl	PL1_Blue
 1514              	.LVL97:
 366:Core/Src/Traffic_Light.c ****                     }
 1515              		.loc 1 366 30 view .LVU494
 1516 04e4 2060     		str	r0, [r4]
 1517 04e6 62E6     		b	.L69
 1518              	.L73:
 369:Core/Src/Traffic_Light.c ****                     PLGreenDelay = walkingDelay;
 1519              		.loc 1 369 21 is_stmt 1 view .LVU495
 369:Core/Src/Traffic_Light.c ****                     PLGreenDelay = walkingDelay;
 1520              		.loc 1 369 25 is_stmt 0 view .LVU496
 1521 04e8 3F4B     		ldr	r3, .L100+24
 1522 04ea 0122     		movs	r2, #1
 1523 04ec 1A70     		strb	r2, [r3]
 370:Core/Src/Traffic_Light.c ****                     bits = PL1_Blue(bits, false);
 1524              		.loc 1 370 21 is_stmt 1 view .LVU497
 370:Core/Src/Traffic_Light.c ****                     bits = PL1_Blue(bits, false);
 1525              		.loc 1 370 34 is_stmt 0 view .LVU498
 1526 04ee 3D4B     		ldr	r3, .L100+20
 1527 04f0 0A22     		movs	r2, #10
 1528 04f2 1A70     		strb	r2, [r3]
 371:Core/Src/Traffic_Light.c ****                 }
 1529              		.loc 1 371 21 is_stmt 1 view .LVU499
 371:Core/Src/Traffic_Light.c ****                 }
 1530              		.loc 1 371 28 is_stmt 0 view .LVU500
 1531 04f4 374C     		ldr	r4, .L100+4
 1532 04f6 0021     		movs	r1, #0
 1533 04f8 2068     		ldr	r0, [r4]
 1534 04fa FFF7FEFF 		bl	PL1_Blue
 1535              	.LVL98:
 371:Core/Src/Traffic_Light.c ****                 }
 1536              		.loc 1 371 26 view .LVU501
 1537 04fe 2060     		str	r0, [r4]
 1538 0500 55E6     		b	.L69
 1539              	.L88:
 375:Core/Src/Traffic_Light.c ****                 bits = PL1_Green(bits,false);
 1540              		.loc 1 375 17 is_stmt 1 view .LVU502
 375:Core/Src/Traffic_Light.c ****                 bits = PL1_Green(bits,false);
 1541              		.loc 1 375 24 is_stmt 0 view .LVU503
 1542 0502 344C     		ldr	r4, .L100+4
 1543 0504 0121     		movs	r1, #1
 1544 0506 2068     		ldr	r0, [r4]
 1545 0508 FFF7FEFF 		bl	PL1_Red
 1546              	.LVL99:
 375:Core/Src/Traffic_Light.c ****                 bits = PL1_Green(bits,false);
 1547              		.loc 1 375 22 view .LVU504
 1548 050c 2060     		str	r0, [r4]
 376:Core/Src/Traffic_Light.c ****                 break;
 1549              		.loc 1 376 17 is_stmt 1 view .LVU505
 376:Core/Src/Traffic_Light.c ****                 break;
 1550              		.loc 1 376 24 is_stmt 0 view .LVU506
 1551 050e 0021     		movs	r1, #0
 1552 0510 FFF7FEFF 		bl	PL1_Green
 1553              	.LVL100:
 376:Core/Src/Traffic_Light.c ****                 break;
ARM GAS  C:\Users\ehgre\AppData\Local\Temp\ccwqnhSc.s 			page 41


 1554              		.loc 1 376 22 view .LVU507
 1555 0514 2060     		str	r0, [r4]
 377:Core/Src/Traffic_Light.c ****             default:
 1556              		.loc 1 377 17 is_stmt 1 view .LVU508
 1557 0516 4AE6     		b	.L69
 1558              	.L75:
 383:Core/Src/Traffic_Light.c ****             case PLGreen:
 384:Core/Src/Traffic_Light.c ****                 if((C4.light != TLRed) || (C2.light != TLRed) || (C3.light != TLRed)){
 1559              		.loc 1 384 17 view .LVU509
 1560              		.loc 1 384 23 is_stmt 0 view .LVU510
 1561 0518 314B     		ldr	r3, .L100+16
 1562 051a 1B79     		ldrb	r3, [r3, #4]	@ zero_extendqisi2
 1563              		.loc 1 384 19 view .LVU511
 1564 051c 2BB9     		cbnz	r3, .L79
 1565              		.loc 1 384 46 discriminator 1 view .LVU512
 1566 051e 354B     		ldr	r3, .L100+36
 1567 0520 1B79     		ldrb	r3, [r3, #4]	@ zero_extendqisi2
 1568              		.loc 1 384 40 discriminator 1 view .LVU513
 1569 0522 13B9     		cbnz	r3, .L79
 1570              		.loc 1 384 69 discriminator 2 view .LVU514
 1571 0524 2D4B     		ldr	r3, .L100+12
 1572 0526 1B79     		ldrb	r3, [r3, #4]	@ zero_extendqisi2
 1573              		.loc 1 384 63 discriminator 2 view .LVU515
 1574 0528 2BB1     		cbz	r3, .L80
 1575              	.L79:
 385:Core/Src/Traffic_Light.c ****                     checkAndChangeTL();
 1576              		.loc 1 385 21 is_stmt 1 view .LVU516
 1577 052a FFF7FEFF 		bl	checkAndChangeTL
 1578              	.LVL101:
 386:Core/Src/Traffic_Light.c ****                     TLYellowDelay = orangeDelay;
 1579              		.loc 1 386 21 view .LVU517
 1580              		.loc 1 386 35 is_stmt 0 view .LVU518
 1581 052e 284B     		ldr	r3, .L100
 1582 0530 0122     		movs	r2, #1
 1583 0532 1A70     		strb	r2, [r3]
 1584 0534 46E6     		b	.L37
 1585              	.L80:
 387:Core/Src/Traffic_Light.c ****                 }else{
 388:Core/Src/Traffic_Light.c ****                     if(TLYellowDelay == 0){
 1586              		.loc 1 388 21 is_stmt 1 view .LVU519
 1587              		.loc 1 388 38 is_stmt 0 view .LVU520
 1588 0536 264B     		ldr	r3, .L100
 1589 0538 1B78     		ldrb	r3, [r3]	@ zero_extendqisi2
 1590              		.loc 1 388 23 view .LVU521
 1591 053a 002B     		cmp	r3, #0
 1592 053c 7FF442AE 		bne	.L37
 389:Core/Src/Traffic_Light.c ****                         if(PLGreenDelay > 0){
 1593              		.loc 1 389 25 is_stmt 1 view .LVU522
 1594              		.loc 1 389 41 is_stmt 0 view .LVU523
 1595 0540 284B     		ldr	r3, .L100+20
 1596 0542 1B78     		ldrb	r3, [r3]	@ zero_extendqisi2
 1597              		.loc 1 389 27 view .LVU524
 1598 0544 53B1     		cbz	r3, .L81
 390:Core/Src/Traffic_Light.c ****                             bits = PL2_Green(bits, true);
 1599              		.loc 1 390 29 is_stmt 1 view .LVU525
 1600              		.loc 1 390 36 is_stmt 0 view .LVU526
 1601 0546 234C     		ldr	r4, .L100+4
ARM GAS  C:\Users\ehgre\AppData\Local\Temp\ccwqnhSc.s 			page 42


 1602 0548 0121     		movs	r1, #1
 1603 054a 2068     		ldr	r0, [r4]
 1604 054c FFF7FEFF 		bl	PL2_Green
 1605              	.LVL102:
 1606              		.loc 1 390 34 view .LVU527
 1607 0550 2060     		str	r0, [r4]
 391:Core/Src/Traffic_Light.c ****                             bits = PL2_Red(bits, false);
 1608              		.loc 1 391 29 is_stmt 1 view .LVU528
 1609              		.loc 1 391 36 is_stmt 0 view .LVU529
 1610 0552 0021     		movs	r1, #0
 1611 0554 FFF7FEFF 		bl	PL2_Red
 1612              	.LVL103:
 1613              		.loc 1 391 34 view .LVU530
 1614 0558 2060     		str	r0, [r4]
 1615 055a 33E6     		b	.L37
 1616              	.L81:
 392:Core/Src/Traffic_Light.c ****                         }else{
 393:Core/Src/Traffic_Light.c ****                             CW2 = PLRed;
 1617              		.loc 1 393 29 is_stmt 1 view .LVU531
 1618              		.loc 1 393 33 is_stmt 0 view .LVU532
 1619 055c 0021     		movs	r1, #0
 1620 055e 264B     		ldr	r3, .L100+40
 1621 0560 1970     		strb	r1, [r3]
 394:Core/Src/Traffic_Light.c ****                             bits = PL2_Green(bits, false);
 1622              		.loc 1 394 29 is_stmt 1 view .LVU533
 1623              		.loc 1 394 36 is_stmt 0 view .LVU534
 1624 0562 1C4C     		ldr	r4, .L100+4
 1625 0564 2068     		ldr	r0, [r4]
 1626 0566 FFF7FEFF 		bl	PL2_Green
 1627              	.LVL104:
 1628              		.loc 1 394 34 view .LVU535
 1629 056a 2060     		str	r0, [r4]
 395:Core/Src/Traffic_Light.c ****                             bits = PL2_Red(bits, true);
 1630              		.loc 1 395 29 is_stmt 1 view .LVU536
 1631              		.loc 1 395 36 is_stmt 0 view .LVU537
 1632 056c 0121     		movs	r1, #1
 1633 056e FFF7FEFF 		bl	PL2_Red
 1634              	.LVL105:
 1635              		.loc 1 395 34 view .LVU538
 1636 0572 2060     		str	r0, [r4]
 1637 0574 26E6     		b	.L37
 1638              	.L76:
 396:Core/Src/Traffic_Light.c ****                         }
 397:Core/Src/Traffic_Light.c ****                     }
 398:Core/Src/Traffic_Light.c ****                 }
 399:Core/Src/Traffic_Light.c ****                 break;
 400:Core/Src/Traffic_Light.c ****             case PLBlue:
 401:Core/Src/Traffic_Light.c ****                 if(PLBlueDelay > 0){
 1639              		.loc 1 401 17 is_stmt 1 view .LVU539
 1640              		.loc 1 401 32 is_stmt 0 view .LVU540
 1641 0576 1D4B     		ldr	r3, .L100+28
 1642 0578 1B78     		ldrb	r3, [r3]	@ zero_extendqisi2
 1643              		.loc 1 401 19 view .LVU541
 1644 057a 83B1     		cbz	r3, .L82
 402:Core/Src/Traffic_Light.c ****                     if(BlueOn){
 1645              		.loc 1 402 21 is_stmt 1 view .LVU542
 1646              		.loc 1 402 24 is_stmt 0 view .LVU543
ARM GAS  C:\Users\ehgre\AppData\Local\Temp\ccwqnhSc.s 			page 43


 1647 057c 1C4B     		ldr	r3, .L100+32
 1648 057e 1B78     		ldrb	r3, [r3]	@ zero_extendqisi2
 1649              		.loc 1 402 23 view .LVU544
 1650 0580 33B1     		cbz	r3, .L83
 403:Core/Src/Traffic_Light.c ****                         bits = PL2_Blue(bits, true);
 1651              		.loc 1 403 25 is_stmt 1 view .LVU545
 1652              		.loc 1 403 32 is_stmt 0 view .LVU546
 1653 0582 144C     		ldr	r4, .L100+4
 1654 0584 0121     		movs	r1, #1
 1655 0586 2068     		ldr	r0, [r4]
 1656 0588 FFF7FEFF 		bl	PL2_Blue
 1657              	.LVL106:
 1658              		.loc 1 403 30 view .LVU547
 1659 058c 2060     		str	r0, [r4]
 1660 058e 19E6     		b	.L37
 1661              	.L83:
 404:Core/Src/Traffic_Light.c ****                     }else{
 405:Core/Src/Traffic_Light.c ****                         bits = PL2_Blue(bits, false);
 1662              		.loc 1 405 25 is_stmt 1 view .LVU548
 1663              		.loc 1 405 32 is_stmt 0 view .LVU549
 1664 0590 104C     		ldr	r4, .L100+4
 1665 0592 0021     		movs	r1, #0
 1666 0594 2068     		ldr	r0, [r4]
 1667 0596 FFF7FEFF 		bl	PL2_Blue
 1668              	.LVL107:
 1669              		.loc 1 405 30 view .LVU550
 1670 059a 2060     		str	r0, [r4]
 1671 059c 12E6     		b	.L37
 1672              	.L82:
 406:Core/Src/Traffic_Light.c ****                     }
 407:Core/Src/Traffic_Light.c ****                 }else{
 408:Core/Src/Traffic_Light.c ****                     CW2 = PLGreen;
 1673              		.loc 1 408 21 is_stmt 1 view .LVU551
 1674              		.loc 1 408 25 is_stmt 0 view .LVU552
 1675 059e 164B     		ldr	r3, .L100+40
 1676 05a0 0122     		movs	r2, #1
 1677 05a2 1A70     		strb	r2, [r3]
 409:Core/Src/Traffic_Light.c ****                     PLGreenDelay = walkingDelay;
 1678              		.loc 1 409 21 is_stmt 1 view .LVU553
 1679              		.loc 1 409 34 is_stmt 0 view .LVU554
 1680 05a4 0F4B     		ldr	r3, .L100+20
 1681 05a6 0A22     		movs	r2, #10
 1682 05a8 1A70     		strb	r2, [r3]
 410:Core/Src/Traffic_Light.c ****                     bits = PL2_Blue(bits, false);
 1683              		.loc 1 410 21 is_stmt 1 view .LVU555
 1684              		.loc 1 410 28 is_stmt 0 view .LVU556
 1685 05aa 0A4C     		ldr	r4, .L100+4
 1686 05ac 0021     		movs	r1, #0
 1687 05ae 2068     		ldr	r0, [r4]
 1688 05b0 FFF7FEFF 		bl	PL2_Blue
 1689              	.LVL108:
 1690              		.loc 1 410 26 view .LVU557
 1691 05b4 2060     		str	r0, [r4]
 1692 05b6 05E6     		b	.L37
 1693              	.L89:
 411:Core/Src/Traffic_Light.c ****                 }
 412:Core/Src/Traffic_Light.c ****                 break;
ARM GAS  C:\Users\ehgre\AppData\Local\Temp\ccwqnhSc.s 			page 44


 413:Core/Src/Traffic_Light.c ****             case PLRed:
 414:Core/Src/Traffic_Light.c ****                 bits = PL2_Red(bits,true);
 1694              		.loc 1 414 17 is_stmt 1 view .LVU558
 1695              		.loc 1 414 24 is_stmt 0 view .LVU559
 1696 05b8 064C     		ldr	r4, .L100+4
 1697 05ba 0121     		movs	r1, #1
 1698 05bc 2068     		ldr	r0, [r4]
 1699 05be FFF7FEFF 		bl	PL2_Red
 1700              	.LVL109:
 1701              		.loc 1 414 22 view .LVU560
 1702 05c2 2060     		str	r0, [r4]
 415:Core/Src/Traffic_Light.c ****                 bits = PL2_Green(bits,false);
 1703              		.loc 1 415 17 is_stmt 1 view .LVU561
 1704              		.loc 1 415 24 is_stmt 0 view .LVU562
 1705 05c4 0021     		movs	r1, #0
 1706 05c6 FFF7FEFF 		bl	PL2_Green
 1707              	.LVL110:
 1708              		.loc 1 415 22 view .LVU563
 1709 05ca 2060     		str	r0, [r4]
 416:Core/Src/Traffic_Light.c ****                 break;
 1710              		.loc 1 416 17 is_stmt 1 view .LVU564
 1711 05cc FAE5     		b	.L37
 1712              	.L101:
 1713 05ce 00BF     		.align	2
 1714              	.L100:
 1715 05d0 00000000 		.word	TLYellowDelay
 1716 05d4 00000000 		.word	bits
 1717 05d8 00000000 		.word	C1
 1718 05dc 00000000 		.word	C3
 1719 05e0 00000000 		.word	C4
 1720 05e4 00000000 		.word	PLGreenDelay
 1721 05e8 00000000 		.word	CW1
 1722 05ec 00000000 		.word	PLBlueDelay
 1723 05f0 00000000 		.word	BlueOn
 1724 05f4 00000000 		.word	C2
 1725 05f8 00000000 		.word	CW2
 1726              		.cfi_endproc
 1727              	.LFE323:
 1729              		.section	.text.HAL_TIM_PeriodElapsedCallback,"ax",%progbits
 1730              		.align	1
 1731              		.global	HAL_TIM_PeriodElapsedCallback
 1732              		.syntax unified
 1733              		.thumb
 1734              		.thumb_func
 1736              	HAL_TIM_PeriodElapsedCallback:
 1737              	.LVL111:
 1738              	.LFB324:
 417:Core/Src/Traffic_Light.c ****             default:
 418:Core/Src/Traffic_Light.c ****                 break;
 419:Core/Src/Traffic_Light.c ****         }
 420:Core/Src/Traffic_Light.c ****     }
 421:Core/Src/Traffic_Light.c **** }
 422:Core/Src/Traffic_Light.c **** 
 423:Core/Src/Traffic_Light.c **** void HAL_TIM_PeriodElapsedCallback(TIM_HandleTypeDef *htim){
 1739              		.loc 1 423 60 view -0
 1740              		.cfi_startproc
 1741              		@ args = 0, pretend = 0, frame = 0
ARM GAS  C:\Users\ehgre\AppData\Local\Temp\ccwqnhSc.s 			page 45


 1742              		@ frame_needed = 0, uses_anonymous_args = 0
 1743              		.loc 1 423 60 is_stmt 0 view .LVU566
 1744 0000 08B5     		push	{r3, lr}
 1745              	.LCFI8:
 1746              		.cfi_def_cfa_offset 8
 1747              		.cfi_offset 3, -8
 1748              		.cfi_offset 14, -4
 424:Core/Src/Traffic_Light.c ****     if(htim == &htim16){
 1749              		.loc 1 424 5 is_stmt 1 view .LVU567
 1750              		.loc 1 424 7 is_stmt 0 view .LVU568
 1751 0002 A44B     		ldr	r3, .L137
 1752 0004 8342     		cmp	r3, r0
 1753 0006 00D0     		beq	.L132
 1754              	.LVL112:
 1755              	.L102:
 425:Core/Src/Traffic_Light.c ****         if(msTick >= 10000){ //1 second
 426:Core/Src/Traffic_Light.c **** 
 427:Core/Src/Traffic_Light.c ****             HAL_GPIO_TogglePin(USR_LED1_GPIO_Port, USR_LED1_Pin);
 428:Core/Src/Traffic_Light.c **** 
 429:Core/Src/Traffic_Light.c ****             if(TLYellowDelay > 0){
 430:Core/Src/Traffic_Light.c ****                 TLYellowDelay--;
 431:Core/Src/Traffic_Light.c ****             }
 432:Core/Src/Traffic_Light.c **** 
 433:Core/Src/Traffic_Light.c ****             if(NCWaitingDelay > 0){
 434:Core/Src/Traffic_Light.c ****                 if(TLYellowDelay == 0){
 435:Core/Src/Traffic_Light.c ****                     NCWaitingDelay--;
 436:Core/Src/Traffic_Light.c ****                 }
 437:Core/Src/Traffic_Light.c ****                 if(NCWaitingState == G1){
 438:Core/Src/Traffic_Light.c ****                     Show_G1Bar(true, (100 - ((NCWaitingDelay*100)/greenDelay)));
 439:Core/Src/Traffic_Light.c ****                     Show_G2Bar(true, 0);
 440:Core/Src/Traffic_Light.c ****                 }else{
 441:Core/Src/Traffic_Light.c ****                     Show_G2Bar(true, (100 - ((NCWaitingDelay*100)/greenDelay)));
 442:Core/Src/Traffic_Light.c ****                     Show_G1Bar(true, 0);
 443:Core/Src/Traffic_Light.c ****                 }
 444:Core/Src/Traffic_Light.c ****                 if(NCWaitingDelay == 0){
 445:Core/Src/Traffic_Light.c ****                     if(NCWaitingState == G1){
 446:Core/Src/Traffic_Light.c ****                         NCWaitingState = G2;
 447:Core/Src/Traffic_Light.c ****                     }else{
 448:Core/Src/Traffic_Light.c ****                         NCWaitingState = G1;
 449:Core/Src/Traffic_Light.c ****                     }
 450:Core/Src/Traffic_Light.c ****                 }
 451:Core/Src/Traffic_Light.c ****             }
 452:Core/Src/Traffic_Light.c **** 
 453:Core/Src/Traffic_Light.c ****             if(TLRedWaitTime > 0){
 454:Core/Src/Traffic_Light.c ****                 if(TLYellowDelay == 0){
 455:Core/Src/Traffic_Light.c ****                     TLRedWaitTime--;
 456:Core/Src/Traffic_Light.c ****                 }
 457:Core/Src/Traffic_Light.c ****                 if(NCWaitingState == G1){
 458:Core/Src/Traffic_Light.c ****                     Show_R2Bar(true, (100 - ((TLRedWaitTime*100)/redDelayMax)));
 459:Core/Src/Traffic_Light.c ****                     Show_R1Bar(true, 0);
 460:Core/Src/Traffic_Light.c ****                 }else{
 461:Core/Src/Traffic_Light.c ****                     Show_R1Bar(true, (100 - ((TLRedWaitTime*100)/redDelayMax)));
 462:Core/Src/Traffic_Light.c ****                     Show_R2Bar(true, 0);
 463:Core/Src/Traffic_Light.c ****                 }
 464:Core/Src/Traffic_Light.c ****                 if(TLRedWaitTime == 0){
 465:Core/Src/Traffic_Light.c ****                     if(NCWaitingState == G1){
 466:Core/Src/Traffic_Light.c ****                         NCWaitingState = G2;
ARM GAS  C:\Users\ehgre\AppData\Local\Temp\ccwqnhSc.s 			page 46


 467:Core/Src/Traffic_Light.c ****                     }else{
 468:Core/Src/Traffic_Light.c ****                         NCWaitingState = G1;
 469:Core/Src/Traffic_Light.c ****                     }
 470:Core/Src/Traffic_Light.c ****                 }
 471:Core/Src/Traffic_Light.c ****             }else{
 472:Core/Src/Traffic_Light.c ****                 Show_R1Bar(true, 0);
 473:Core/Src/Traffic_Light.c ****                 Show_R2Bar(true, 0);
 474:Core/Src/Traffic_Light.c ****             }
 475:Core/Src/Traffic_Light.c **** 
 476:Core/Src/Traffic_Light.c ****             if(PLBlueDelay > 0){
 477:Core/Src/Traffic_Light.c ****                 PLBlueDelay--;
 478:Core/Src/Traffic_Light.c ****                 if(CW1 == PLBlue){
 479:Core/Src/Traffic_Light.c ****                     Show_P1Bar(true, (100 - ((PLBlueDelay*100)/pedestrianDelay)));
 480:Core/Src/Traffic_Light.c ****                 }
 481:Core/Src/Traffic_Light.c ****                 if(CW2 == PLBlue){
 482:Core/Src/Traffic_Light.c ****                     Show_P2Bar(true, (100 - ((PLBlueDelay*100)/pedestrianDelay)));
 483:Core/Src/Traffic_Light.c ****                 }
 484:Core/Src/Traffic_Light.c ****             }else{
 485:Core/Src/Traffic_Light.c ****                 if(PLGreenDelay > 0){
 486:Core/Src/Traffic_Light.c ****                     PLGreenDelay--;
 487:Core/Src/Traffic_Light.c ****                     if(CW1 == PLGreen){
 488:Core/Src/Traffic_Light.c ****                         Show_W1Bar(true, (100 - ((PLGreenDelay*100)/walkingDelay)));
 489:Core/Src/Traffic_Light.c ****                     }
 490:Core/Src/Traffic_Light.c ****                     if(CW2 == PLGreen){
 491:Core/Src/Traffic_Light.c ****                         Show_W2Bar(true, (100 - ((PLGreenDelay*100)/walkingDelay)));
 492:Core/Src/Traffic_Light.c ****                     }
 493:Core/Src/Traffic_Light.c ****                 }else{
 494:Core/Src/Traffic_Light.c ****                     Show_W1Bar(true, 0);
 495:Core/Src/Traffic_Light.c ****                     Show_W2Bar(true, 0);
 496:Core/Src/Traffic_Light.c ****                 }
 497:Core/Src/Traffic_Light.c ****                 Show_P1Bar(true, 0);
 498:Core/Src/Traffic_Light.c ****                 Show_P2Bar(true, 0);
 499:Core/Src/Traffic_Light.c ****             }
 500:Core/Src/Traffic_Light.c **** 
 501:Core/Src/Traffic_Light.c ****             msTick = 1;
 502:Core/Src/Traffic_Light.c ****         }else{
 503:Core/Src/Traffic_Light.c ****             msTick++;
 504:Core/Src/Traffic_Light.c ****         }
 505:Core/Src/Traffic_Light.c **** 
 506:Core/Src/Traffic_Light.c ****         if(TickFlash >= (toggleFreq*10)){ //10 ms
 507:Core/Src/Traffic_Light.c ****             if(BlueOn){
 508:Core/Src/Traffic_Light.c ****                 BlueOn = false;
 509:Core/Src/Traffic_Light.c ****             }else{
 510:Core/Src/Traffic_Light.c ****                 BlueOn = true;
 511:Core/Src/Traffic_Light.c ****             }
 512:Core/Src/Traffic_Light.c ****             TickFlash = 1;
 513:Core/Src/Traffic_Light.c ****         }else{
 514:Core/Src/Traffic_Light.c ****             TickFlash++;
 515:Core/Src/Traffic_Light.c ****         }
 516:Core/Src/Traffic_Light.c **** 
 517:Core/Src/Traffic_Light.c ****         if(Tick >= 100){ //10 ms
 518:Core/Src/Traffic_Light.c ****             Tick = 1;
 519:Core/Src/Traffic_Light.c ****         }else{
 520:Core/Src/Traffic_Light.c ****             Tick++;
 521:Core/Src/Traffic_Light.c ****         }
 522:Core/Src/Traffic_Light.c **** 
 523:Core/Src/Traffic_Light.c ****         if(Tick > brightness){
ARM GAS  C:\Users\ehgre\AppData\Local\Temp\ccwqnhSc.s 			page 47


 524:Core/Src/Traffic_Light.c ****             HAL_GPIO_WritePin(Enable_595_GPIO_Port, Enable_595_Pin, GPIO_PIN_SET);
 525:Core/Src/Traffic_Light.c ****         }else{
 526:Core/Src/Traffic_Light.c ****             HAL_GPIO_WritePin(Enable_595_GPIO_Port, Enable_595_Pin, GPIO_PIN_RESET);
 527:Core/Src/Traffic_Light.c ****         }
 528:Core/Src/Traffic_Light.c **** 
 529:Core/Src/Traffic_Light.c ****     }
 530:Core/Src/Traffic_Light.c **** }...
 1756              		.loc 1 530 1 view .LVU569
 1757 0008 08BD     		pop	{r3, pc}
 1758              	.LVL113:
 1759              	.L132:
 425:Core/Src/Traffic_Light.c ****         if(msTick >= 10000){ //1 second
 1760              		.loc 1 425 9 is_stmt 1 view .LVU570
 425:Core/Src/Traffic_Light.c ****         if(msTick >= 10000){ //1 second
 1761              		.loc 1 425 19 is_stmt 0 view .LVU571
 1762 000a A34B     		ldr	r3, .L137+4
 1763 000c 1B88     		ldrh	r3, [r3]
 425:Core/Src/Traffic_Light.c ****         if(msTick >= 10000){ //1 second
 1764              		.loc 1 425 11 view .LVU572
 1765 000e 42F20F72 		movw	r2, #9999
 1766 0012 9342     		cmp	r3, r2
 1767 0014 28D8     		bhi	.L133
 503:Core/Src/Traffic_Light.c ****             msTick++;
 1768              		.loc 1 503 13 is_stmt 1 view .LVU573
 503:Core/Src/Traffic_Light.c ****             msTick++;
 1769              		.loc 1 503 19 is_stmt 0 view .LVU574
 1770 0016 0133     		adds	r3, r3, #1
 1771 0018 9F4A     		ldr	r2, .L137+4
 1772 001a 1380     		strh	r3, [r2]	@ movhi
 1773              	.LVL114:
 1774              	.L123:
 506:Core/Src/Traffic_Light.c ****         if(TickFlash >= (toggleFreq*10)){ //10 ms
 1775              		.loc 1 506 9 is_stmt 1 view .LVU575
 506:Core/Src/Traffic_Light.c ****         if(TickFlash >= (toggleFreq*10)){ //10 ms
 1776              		.loc 1 506 22 is_stmt 0 view .LVU576
 1777 001c 9F4B     		ldr	r3, .L137+8
 1778 001e 1B88     		ldrh	r3, [r3]
 506:Core/Src/Traffic_Light.c ****         if(TickFlash >= (toggleFreq*10)){ //10 ms
 1779              		.loc 1 506 11 view .LVU577
 1780 0020 B3F5FA6F 		cmp	r3, #2000
 1781 0024 C0F02781 		bcc	.L124
 507:Core/Src/Traffic_Light.c ****             if(BlueOn){
 1782              		.loc 1 507 13 is_stmt 1 view .LVU578
 507:Core/Src/Traffic_Light.c ****             if(BlueOn){
 1783              		.loc 1 507 16 is_stmt 0 view .LVU579
 1784 0028 9D4B     		ldr	r3, .L137+12
 1785 002a 1B78     		ldrb	r3, [r3]	@ zero_extendqisi2
 507:Core/Src/Traffic_Light.c ****             if(BlueOn){
 1786              		.loc 1 507 15 view .LVU580
 1787 002c 002B     		cmp	r3, #0
 1788 002e 00F01E81 		beq	.L125
 508:Core/Src/Traffic_Light.c ****                 BlueOn = false;
 1789              		.loc 1 508 17 is_stmt 1 view .LVU581
 508:Core/Src/Traffic_Light.c ****                 BlueOn = false;
 1790              		.loc 1 508 24 is_stmt 0 view .LVU582
 1791 0032 9B4B     		ldr	r3, .L137+12
 1792 0034 0022     		movs	r2, #0
ARM GAS  C:\Users\ehgre\AppData\Local\Temp\ccwqnhSc.s 			page 48


 1793 0036 1A70     		strb	r2, [r3]
 1794              	.L126:
 512:Core/Src/Traffic_Light.c ****             TickFlash = 1;
 1795              		.loc 1 512 13 is_stmt 1 view .LVU583
 512:Core/Src/Traffic_Light.c ****             TickFlash = 1;
 1796              		.loc 1 512 23 is_stmt 0 view .LVU584
 1797 0038 984B     		ldr	r3, .L137+8
 1798 003a 0122     		movs	r2, #1
 1799 003c 1A80     		strh	r2, [r3]	@ movhi
 1800              	.L127:
 517:Core/Src/Traffic_Light.c ****         if(Tick >= 100){ //10 ms
 1801              		.loc 1 517 9 is_stmt 1 view .LVU585
 517:Core/Src/Traffic_Light.c ****         if(Tick >= 100){ //10 ms
 1802              		.loc 1 517 17 is_stmt 0 view .LVU586
 1803 003e 994B     		ldr	r3, .L137+16
 1804 0040 1B78     		ldrb	r3, [r3]	@ zero_extendqisi2
 517:Core/Src/Traffic_Light.c ****         if(Tick >= 100){ //10 ms
 1805              		.loc 1 517 11 view .LVU587
 1806 0042 632B     		cmp	r3, #99
 1807 0044 40F21B81 		bls	.L128
 518:Core/Src/Traffic_Light.c ****             Tick = 1;
 1808              		.loc 1 518 13 is_stmt 1 view .LVU588
 518:Core/Src/Traffic_Light.c ****             Tick = 1;
 1809              		.loc 1 518 18 is_stmt 0 view .LVU589
 1810 0048 964B     		ldr	r3, .L137+16
 1811 004a 0122     		movs	r2, #1
 1812 004c 1A70     		strb	r2, [r3]
 1813              	.L129:
 523:Core/Src/Traffic_Light.c ****         if(Tick > brightness){
 1814              		.loc 1 523 9 is_stmt 1 view .LVU590
 523:Core/Src/Traffic_Light.c ****         if(Tick > brightness){
 1815              		.loc 1 523 17 is_stmt 0 view .LVU591
 1816 004e 954B     		ldr	r3, .L137+16
 1817 0050 1A78     		ldrb	r2, [r3]	@ zero_extendqisi2
 1818 0052 954B     		ldr	r3, .L137+20
 1819 0054 1B78     		ldrb	r3, [r3]	@ zero_extendqisi2
 523:Core/Src/Traffic_Light.c ****         if(Tick > brightness){
 1820              		.loc 1 523 11 view .LVU592
 1821 0056 9A42     		cmp	r2, r3
 1822 0058 40F21581 		bls	.L130
 524:Core/Src/Traffic_Light.c ****             HAL_GPIO_WritePin(Enable_595_GPIO_Port, Enable_595_Pin, GPIO_PIN_SET);
 1823              		.loc 1 524 13 is_stmt 1 view .LVU593
 1824 005c 0122     		movs	r2, #1
 1825 005e 8021     		movs	r1, #128
 1826 0060 9248     		ldr	r0, .L137+24
 1827 0062 FFF7FEFF 		bl	HAL_GPIO_WritePin
 1828              	.LVL115:
 1829 0066 CFE7     		b	.L102
 1830              	.LVL116:
 1831              	.L133:
 427:Core/Src/Traffic_Light.c ****             HAL_GPIO_TogglePin(USR_LED1_GPIO_Port, USR_LED1_Pin);
 1832              		.loc 1 427 13 view .LVU594
 1833 0068 0421     		movs	r1, #4
 1834 006a 9148     		ldr	r0, .L137+28
 1835              	.LVL117:
 427:Core/Src/Traffic_Light.c ****             HAL_GPIO_TogglePin(USR_LED1_GPIO_Port, USR_LED1_Pin);
 1836              		.loc 1 427 13 is_stmt 0 view .LVU595
ARM GAS  C:\Users\ehgre\AppData\Local\Temp\ccwqnhSc.s 			page 49


 1837 006c FFF7FEFF 		bl	HAL_GPIO_TogglePin
 1838              	.LVL118:
 429:Core/Src/Traffic_Light.c ****             if(TLYellowDelay > 0){
 1839              		.loc 1 429 13 is_stmt 1 view .LVU596
 429:Core/Src/Traffic_Light.c ****             if(TLYellowDelay > 0){
 1840              		.loc 1 429 30 is_stmt 0 view .LVU597
 1841 0070 904B     		ldr	r3, .L137+32
 1842 0072 1B78     		ldrb	r3, [r3]	@ zero_extendqisi2
 429:Core/Src/Traffic_Light.c ****             if(TLYellowDelay > 0){
 1843              		.loc 1 429 15 view .LVU598
 1844 0074 13B1     		cbz	r3, .L105
 430:Core/Src/Traffic_Light.c ****                 TLYellowDelay--;
 1845              		.loc 1 430 17 is_stmt 1 view .LVU599
 430:Core/Src/Traffic_Light.c ****                 TLYellowDelay--;
 1846              		.loc 1 430 30 is_stmt 0 view .LVU600
 1847 0076 013B     		subs	r3, r3, #1
 1848 0078 8E4A     		ldr	r2, .L137+32
 1849 007a 1370     		strb	r3, [r2]
 1850              	.L105:
 433:Core/Src/Traffic_Light.c ****             if(NCWaitingDelay > 0){
 1851              		.loc 1 433 13 is_stmt 1 view .LVU601
 433:Core/Src/Traffic_Light.c ****             if(NCWaitingDelay > 0){
 1852              		.loc 1 433 31 is_stmt 0 view .LVU602
 1853 007c 8E4B     		ldr	r3, .L137+36
 1854 007e 1B78     		ldrb	r3, [r3]	@ zero_extendqisi2
 433:Core/Src/Traffic_Light.c ****             if(NCWaitingDelay > 0){
 1855              		.loc 1 433 15 view .LVU603
 1856 0080 3BB3     		cbz	r3, .L106
 434:Core/Src/Traffic_Light.c ****                 if(TLYellowDelay == 0){
 1857              		.loc 1 434 17 is_stmt 1 view .LVU604
 434:Core/Src/Traffic_Light.c ****                 if(TLYellowDelay == 0){
 1858              		.loc 1 434 34 is_stmt 0 view .LVU605
 1859 0082 8C4A     		ldr	r2, .L137+32
 1860 0084 1278     		ldrb	r2, [r2]	@ zero_extendqisi2
 434:Core/Src/Traffic_Light.c ****                 if(TLYellowDelay == 0){
 1861              		.loc 1 434 19 view .LVU606
 1862 0086 12B9     		cbnz	r2, .L107
 435:Core/Src/Traffic_Light.c ****                     NCWaitingDelay--;
 1863              		.loc 1 435 21 is_stmt 1 view .LVU607
 435:Core/Src/Traffic_Light.c ****                     NCWaitingDelay--;
 1864              		.loc 1 435 35 is_stmt 0 view .LVU608
 1865 0088 013B     		subs	r3, r3, #1
 1866 008a 8B4A     		ldr	r2, .L137+36
 1867 008c 1370     		strb	r3, [r2]
 1868              	.L107:
 437:Core/Src/Traffic_Light.c ****                 if(NCWaitingState == G1){
 1869              		.loc 1 437 17 is_stmt 1 view .LVU609
 437:Core/Src/Traffic_Light.c ****                 if(NCWaitingState == G1){
 1870              		.loc 1 437 35 is_stmt 0 view .LVU610
 1871 008e 8B4B     		ldr	r3, .L137+40
 1872 0090 1B78     		ldrb	r3, [r3]	@ zero_extendqisi2
 437:Core/Src/Traffic_Light.c ****                 if(NCWaitingState == G1){
 1873              		.loc 1 437 19 view .LVU611
 1874 0092 002B     		cmp	r3, #0
 1875 0094 4AD1     		bne	.L108
 438:Core/Src/Traffic_Light.c ****                     Show_G1Bar(true, (100 - ((NCWaitingDelay*100)/greenDelay)));
 1876              		.loc 1 438 21 is_stmt 1 view .LVU612
ARM GAS  C:\Users\ehgre\AppData\Local\Temp\ccwqnhSc.s 			page 50


 438:Core/Src/Traffic_Light.c ****                     Show_G1Bar(true, (100 - ((NCWaitingDelay*100)/greenDelay)));
 1877              		.loc 1 438 61 is_stmt 0 view .LVU613
 1878 0096 884B     		ldr	r3, .L137+36
 1879 0098 1B78     		ldrb	r3, [r3]	@ zero_extendqisi2
 1880 009a 6422     		movs	r2, #100
 1881 009c 02FB03F3 		mul	r3, r2, r3
 438:Core/Src/Traffic_Light.c ****                     Show_G1Bar(true, (100 - ((NCWaitingDelay*100)/greenDelay)));
 1882              		.loc 1 438 66 view .LVU614
 1883 00a0 8749     		ldr	r1, .L137+44
 1884 00a2 81FB0321 		smull	r2, r1, r1, r3
 1885 00a6 1944     		add	r1, r1, r3
 1886 00a8 8910     		asrs	r1, r1, #2
 438:Core/Src/Traffic_Light.c ****                     Show_G1Bar(true, (100 - ((NCWaitingDelay*100)/greenDelay)));
 1887              		.loc 1 438 21 view .LVU615
 1888 00aa C1F16401 		rsb	r1, r1, #100
 1889 00ae C9B2     		uxtb	r1, r1
 1890 00b0 0120     		movs	r0, #1
 1891 00b2 FFF7FEFF 		bl	Show_G1Bar
 1892              	.LVL119:
 439:Core/Src/Traffic_Light.c ****                     Show_G2Bar(true, 0);
 1893              		.loc 1 439 21 is_stmt 1 view .LVU616
 1894 00b6 0021     		movs	r1, #0
 1895 00b8 0120     		movs	r0, #1
 1896 00ba FFF7FEFF 		bl	Show_G2Bar
 1897              	.LVL120:
 1898              	.L109:
 444:Core/Src/Traffic_Light.c ****                 if(NCWaitingDelay == 0){
 1899              		.loc 1 444 17 view .LVU617
 444:Core/Src/Traffic_Light.c ****                 if(NCWaitingDelay == 0){
 1900              		.loc 1 444 35 is_stmt 0 view .LVU618
 1901 00be 7E4B     		ldr	r3, .L137+36
 1902 00c0 1B78     		ldrb	r3, [r3]	@ zero_extendqisi2
 444:Core/Src/Traffic_Light.c ****                 if(NCWaitingDelay == 0){
 1903              		.loc 1 444 19 view .LVU619
 1904 00c2 33B9     		cbnz	r3, .L106
 445:Core/Src/Traffic_Light.c ****                     if(NCWaitingState == G1){
 1905              		.loc 1 445 21 is_stmt 1 view .LVU620
 445:Core/Src/Traffic_Light.c ****                     if(NCWaitingState == G1){
 1906              		.loc 1 445 39 is_stmt 0 view .LVU621
 1907 00c4 7D4B     		ldr	r3, .L137+40
 1908 00c6 1B78     		ldrb	r3, [r3]	@ zero_extendqisi2
 445:Core/Src/Traffic_Light.c ****                     if(NCWaitingState == G1){
 1909              		.loc 1 445 23 view .LVU622
 1910 00c8 002B     		cmp	r3, #0
 1911 00ca 44D1     		bne	.L110
 446:Core/Src/Traffic_Light.c ****                         NCWaitingState = G2;
 1912              		.loc 1 446 25 is_stmt 1 view .LVU623
 446:Core/Src/Traffic_Light.c ****                         NCWaitingState = G2;
 1913              		.loc 1 446 40 is_stmt 0 view .LVU624
 1914 00cc 7B4B     		ldr	r3, .L137+40
 1915 00ce 0122     		movs	r2, #1
 1916 00d0 1A70     		strb	r2, [r3]
 1917              	.L106:
 453:Core/Src/Traffic_Light.c ****             if(TLRedWaitTime > 0){
 1918              		.loc 1 453 13 is_stmt 1 view .LVU625
 453:Core/Src/Traffic_Light.c ****             if(TLRedWaitTime > 0){
 1919              		.loc 1 453 30 is_stmt 0 view .LVU626
ARM GAS  C:\Users\ehgre\AppData\Local\Temp\ccwqnhSc.s 			page 51


 1920 00d2 7C4B     		ldr	r3, .L137+48
 1921 00d4 1B78     		ldrb	r3, [r3]	@ zero_extendqisi2
 453:Core/Src/Traffic_Light.c ****             if(TLRedWaitTime > 0){
 1922              		.loc 1 453 15 view .LVU627
 1923 00d6 002B     		cmp	r3, #0
 1924 00d8 5AD0     		beq	.L111
 454:Core/Src/Traffic_Light.c ****                 if(TLYellowDelay == 0){
 1925              		.loc 1 454 17 is_stmt 1 view .LVU628
 454:Core/Src/Traffic_Light.c ****                 if(TLYellowDelay == 0){
 1926              		.loc 1 454 34 is_stmt 0 view .LVU629
 1927 00da 764A     		ldr	r2, .L137+32
 1928 00dc 1278     		ldrb	r2, [r2]	@ zero_extendqisi2
 454:Core/Src/Traffic_Light.c ****                 if(TLYellowDelay == 0){
 1929              		.loc 1 454 19 view .LVU630
 1930 00de 12B9     		cbnz	r2, .L112
 455:Core/Src/Traffic_Light.c ****                     TLRedWaitTime--;
 1931              		.loc 1 455 21 is_stmt 1 view .LVU631
 455:Core/Src/Traffic_Light.c ****                     TLRedWaitTime--;
 1932              		.loc 1 455 34 is_stmt 0 view .LVU632
 1933 00e0 013B     		subs	r3, r3, #1
 1934 00e2 784A     		ldr	r2, .L137+48
 1935 00e4 1370     		strb	r3, [r2]
 1936              	.L112:
 457:Core/Src/Traffic_Light.c ****                 if(NCWaitingState == G1){
 1937              		.loc 1 457 17 is_stmt 1 view .LVU633
 457:Core/Src/Traffic_Light.c ****                 if(NCWaitingState == G1){
 1938              		.loc 1 457 35 is_stmt 0 view .LVU634
 1939 00e6 754B     		ldr	r3, .L137+40
 1940 00e8 1B78     		ldrb	r3, [r3]	@ zero_extendqisi2
 457:Core/Src/Traffic_Light.c ****                 if(NCWaitingState == G1){
 1941              		.loc 1 457 19 view .LVU635
 1942 00ea 002B     		cmp	r3, #0
 1943 00ec 37D1     		bne	.L113
 458:Core/Src/Traffic_Light.c ****                     Show_R2Bar(true, (100 - ((TLRedWaitTime*100)/redDelayMax)));
 1944              		.loc 1 458 21 is_stmt 1 view .LVU636
 458:Core/Src/Traffic_Light.c ****                     Show_R2Bar(true, (100 - ((TLRedWaitTime*100)/redDelayMax)));
 1945              		.loc 1 458 60 is_stmt 0 view .LVU637
 1946 00ee 754B     		ldr	r3, .L137+48
 1947 00f0 1B78     		ldrb	r3, [r3]	@ zero_extendqisi2
 1948 00f2 6422     		movs	r2, #100
 1949 00f4 02FB03F3 		mul	r3, r2, r3
 458:Core/Src/Traffic_Light.c ****                     Show_R2Bar(true, (100 - ((TLRedWaitTime*100)/redDelayMax)));
 1950              		.loc 1 458 65 view .LVU638
 1951 00f8 7149     		ldr	r1, .L137+44
 1952 00fa 81FB0321 		smull	r2, r1, r1, r3
 1953 00fe 1944     		add	r1, r1, r3
 1954 0100 8910     		asrs	r1, r1, #2
 458:Core/Src/Traffic_Light.c ****                     Show_R2Bar(true, (100 - ((TLRedWaitTime*100)/redDelayMax)));
 1955              		.loc 1 458 21 view .LVU639
 1956 0102 C1F16401 		rsb	r1, r1, #100
 1957 0106 C9B2     		uxtb	r1, r1
 1958 0108 0120     		movs	r0, #1
 1959 010a FFF7FEFF 		bl	Show_R2Bar
 1960              	.LVL121:
 459:Core/Src/Traffic_Light.c ****                     Show_R1Bar(true, 0);
 1961              		.loc 1 459 21 is_stmt 1 view .LVU640
 1962 010e 0021     		movs	r1, #0
ARM GAS  C:\Users\ehgre\AppData\Local\Temp\ccwqnhSc.s 			page 52


 1963 0110 0120     		movs	r0, #1
 1964 0112 FFF7FEFF 		bl	Show_R1Bar
 1965              	.LVL122:
 1966              	.L114:
 464:Core/Src/Traffic_Light.c ****                 if(TLRedWaitTime == 0){
 1967              		.loc 1 464 17 view .LVU641
 464:Core/Src/Traffic_Light.c ****                 if(TLRedWaitTime == 0){
 1968              		.loc 1 464 34 is_stmt 0 view .LVU642
 1969 0116 6B4B     		ldr	r3, .L137+48
 1970 0118 1B78     		ldrb	r3, [r3]	@ zero_extendqisi2
 464:Core/Src/Traffic_Light.c ****                 if(TLRedWaitTime == 0){
 1971              		.loc 1 464 19 view .LVU643
 1972 011a 002B     		cmp	r3, #0
 1973 011c 40D1     		bne	.L115
 465:Core/Src/Traffic_Light.c ****                     if(NCWaitingState == G1){
 1974              		.loc 1 465 21 is_stmt 1 view .LVU644
 465:Core/Src/Traffic_Light.c ****                     if(NCWaitingState == G1){
 1975              		.loc 1 465 39 is_stmt 0 view .LVU645
 1976 011e 674B     		ldr	r3, .L137+40
 1977 0120 1B78     		ldrb	r3, [r3]	@ zero_extendqisi2
 465:Core/Src/Traffic_Light.c ****                     if(NCWaitingState == G1){
 1978              		.loc 1 465 23 view .LVU646
 1979 0122 8BBB     		cbnz	r3, .L116
 466:Core/Src/Traffic_Light.c ****                         NCWaitingState = G2;
 1980              		.loc 1 466 25 is_stmt 1 view .LVU647
 466:Core/Src/Traffic_Light.c ****                         NCWaitingState = G2;
 1981              		.loc 1 466 40 is_stmt 0 view .LVU648
 1982 0124 654B     		ldr	r3, .L137+40
 1983 0126 0122     		movs	r2, #1
 1984 0128 1A70     		strb	r2, [r3]
 1985 012a 39E0     		b	.L115
 1986              	.L108:
 441:Core/Src/Traffic_Light.c ****                     Show_G2Bar(true, (100 - ((NCWaitingDelay*100)/greenDelay)));
 1987              		.loc 1 441 21 is_stmt 1 view .LVU649
 441:Core/Src/Traffic_Light.c ****                     Show_G2Bar(true, (100 - ((NCWaitingDelay*100)/greenDelay)));
 1988              		.loc 1 441 61 is_stmt 0 view .LVU650
 1989 012c 624B     		ldr	r3, .L137+36
 1990 012e 1B78     		ldrb	r3, [r3]	@ zero_extendqisi2
 1991 0130 6422     		movs	r2, #100
 1992 0132 02FB03F3 		mul	r3, r2, r3
 441:Core/Src/Traffic_Light.c ****                     Show_G2Bar(true, (100 - ((NCWaitingDelay*100)/greenDelay)));
 1993              		.loc 1 441 66 view .LVU651
 1994 0136 6249     		ldr	r1, .L137+44
 1995 0138 81FB0321 		smull	r2, r1, r1, r3
 1996 013c 1944     		add	r1, r1, r3
 1997 013e 8910     		asrs	r1, r1, #2
 441:Core/Src/Traffic_Light.c ****                     Show_G2Bar(true, (100 - ((NCWaitingDelay*100)/greenDelay)));
 1998              		.loc 1 441 21 view .LVU652
 1999 0140 C1F16401 		rsb	r1, r1, #100
 2000 0144 C9B2     		uxtb	r1, r1
 2001 0146 0120     		movs	r0, #1
 2002 0148 FFF7FEFF 		bl	Show_G2Bar
 2003              	.LVL123:
 442:Core/Src/Traffic_Light.c ****                     Show_G1Bar(true, 0);
 2004              		.loc 1 442 21 is_stmt 1 view .LVU653
 2005 014c 0021     		movs	r1, #0
 2006 014e 0120     		movs	r0, #1
ARM GAS  C:\Users\ehgre\AppData\Local\Temp\ccwqnhSc.s 			page 53


 2007 0150 FFF7FEFF 		bl	Show_G1Bar
 2008              	.LVL124:
 2009 0154 B3E7     		b	.L109
 2010              	.L110:
 448:Core/Src/Traffic_Light.c ****                         NCWaitingState = G1;
 2011              		.loc 1 448 25 view .LVU654
 448:Core/Src/Traffic_Light.c ****                         NCWaitingState = G1;
 2012              		.loc 1 448 40 is_stmt 0 view .LVU655
 2013 0156 594B     		ldr	r3, .L137+40
 2014 0158 0022     		movs	r2, #0
 2015 015a 1A70     		strb	r2, [r3]
 2016 015c B9E7     		b	.L106
 2017              	.L113:
 461:Core/Src/Traffic_Light.c ****                     Show_R1Bar(true, (100 - ((TLRedWaitTime*100)/redDelayMax)));
 2018              		.loc 1 461 21 is_stmt 1 view .LVU656
 461:Core/Src/Traffic_Light.c ****                     Show_R1Bar(true, (100 - ((TLRedWaitTime*100)/redDelayMax)));
 2019              		.loc 1 461 60 is_stmt 0 view .LVU657
 2020 015e 594B     		ldr	r3, .L137+48
 2021 0160 1B78     		ldrb	r3, [r3]	@ zero_extendqisi2
 2022 0162 6422     		movs	r2, #100
 2023 0164 02FB03F3 		mul	r3, r2, r3
 461:Core/Src/Traffic_Light.c ****                     Show_R1Bar(true, (100 - ((TLRedWaitTime*100)/redDelayMax)));
 2024              		.loc 1 461 65 view .LVU658
 2025 0168 5549     		ldr	r1, .L137+44
 2026 016a 81FB0321 		smull	r2, r1, r1, r3
 2027 016e 1944     		add	r1, r1, r3
 2028 0170 8910     		asrs	r1, r1, #2
 461:Core/Src/Traffic_Light.c ****                     Show_R1Bar(true, (100 - ((TLRedWaitTime*100)/redDelayMax)));
 2029              		.loc 1 461 21 view .LVU659
 2030 0172 C1F16401 		rsb	r1, r1, #100
 2031 0176 C9B2     		uxtb	r1, r1
 2032 0178 0120     		movs	r0, #1
 2033 017a FFF7FEFF 		bl	Show_R1Bar
 2034              	.LVL125:
 462:Core/Src/Traffic_Light.c ****                     Show_R2Bar(true, 0);
 2035              		.loc 1 462 21 is_stmt 1 view .LVU660
 2036 017e 0021     		movs	r1, #0
 2037 0180 0120     		movs	r0, #1
 2038 0182 FFF7FEFF 		bl	Show_R2Bar
 2039              	.LVL126:
 2040 0186 C6E7     		b	.L114
 2041              	.L116:
 468:Core/Src/Traffic_Light.c ****                         NCWaitingState = G1;
 2042              		.loc 1 468 25 view .LVU661
 468:Core/Src/Traffic_Light.c ****                         NCWaitingState = G1;
 2043              		.loc 1 468 40 is_stmt 0 view .LVU662
 2044 0188 4C4B     		ldr	r3, .L137+40
 2045 018a 0022     		movs	r2, #0
 2046 018c 1A70     		strb	r2, [r3]
 2047 018e 07E0     		b	.L115
 2048              	.L111:
 472:Core/Src/Traffic_Light.c ****                 Show_R1Bar(true, 0);
 2049              		.loc 1 472 17 is_stmt 1 view .LVU663
 2050 0190 0021     		movs	r1, #0
 2051 0192 0120     		movs	r0, #1
 2052 0194 FFF7FEFF 		bl	Show_R1Bar
 2053              	.LVL127:
ARM GAS  C:\Users\ehgre\AppData\Local\Temp\ccwqnhSc.s 			page 54


 473:Core/Src/Traffic_Light.c ****                 Show_R2Bar(true, 0);
 2054              		.loc 1 473 17 view .LVU664
 2055 0198 0021     		movs	r1, #0
 2056 019a 0120     		movs	r0, #1
 2057 019c FFF7FEFF 		bl	Show_R2Bar
 2058              	.LVL128:
 2059              	.L115:
 476:Core/Src/Traffic_Light.c ****             if(PLBlueDelay > 0){
 2060              		.loc 1 476 13 view .LVU665
 476:Core/Src/Traffic_Light.c ****             if(PLBlueDelay > 0){
 2061              		.loc 1 476 28 is_stmt 0 view .LVU666
 2062 01a0 494B     		ldr	r3, .L137+52
 2063 01a2 1B78     		ldrb	r3, [r3]	@ zero_extendqisi2
 476:Core/Src/Traffic_Light.c ****             if(PLBlueDelay > 0){
 2064              		.loc 1 476 15 view .LVU667
 2065 01a4 2BB3     		cbz	r3, .L117
 477:Core/Src/Traffic_Light.c ****                 PLBlueDelay--;
 2066              		.loc 1 477 17 is_stmt 1 view .LVU668
 477:Core/Src/Traffic_Light.c ****                 PLBlueDelay--;
 2067              		.loc 1 477 28 is_stmt 0 view .LVU669
 2068 01a6 013B     		subs	r3, r3, #1
 2069 01a8 DBB2     		uxtb	r3, r3
 2070 01aa 474A     		ldr	r2, .L137+52
 2071 01ac 1370     		strb	r3, [r2]
 478:Core/Src/Traffic_Light.c ****                 if(CW1 == PLBlue){
 2072              		.loc 1 478 17 is_stmt 1 view .LVU670
 478:Core/Src/Traffic_Light.c ****                 if(CW1 == PLBlue){
 2073              		.loc 1 478 24 is_stmt 0 view .LVU671
 2074 01ae 474A     		ldr	r2, .L137+56
 2075 01b0 1278     		ldrb	r2, [r2]	@ zero_extendqisi2
 478:Core/Src/Traffic_Light.c ****                 if(CW1 == PLBlue){
 2076              		.loc 1 478 19 view .LVU672
 2077 01b2 022A     		cmp	r2, #2
 2078 01b4 11D0     		beq	.L134
 2079              	.L118:
 481:Core/Src/Traffic_Light.c ****                 if(CW2 == PLBlue){
 2080              		.loc 1 481 17 is_stmt 1 view .LVU673
 481:Core/Src/Traffic_Light.c ****                 if(CW2 == PLBlue){
 2081              		.loc 1 481 24 is_stmt 0 view .LVU674
 2082 01b6 464B     		ldr	r3, .L137+60
 2083 01b8 1B78     		ldrb	r3, [r3]	@ zero_extendqisi2
 481:Core/Src/Traffic_Light.c ****                 if(CW2 == PLBlue){
 2084              		.loc 1 481 19 view .LVU675
 2085 01ba 022B     		cmp	r3, #2
 2086 01bc 30D1     		bne	.L119
 482:Core/Src/Traffic_Light.c ****                     Show_P2Bar(true, (100 - ((PLBlueDelay*100)/pedestrianDelay)));
 2087              		.loc 1 482 21 is_stmt 1 view .LVU676
 2088 01be 424B     		ldr	r3, .L137+52
 2089 01c0 1B78     		ldrb	r3, [r3]	@ zero_extendqisi2
 2090 01c2 C3EB0312 		rsb	r2, r3, r3, lsl #4
 2091 01c6 C3EB8201 		rsb	r1, r3, r2, lsl #2
 2092 01ca 8900     		lsls	r1, r1, #2
 2093 01cc 6431     		adds	r1, r1, #100
 2094 01ce 01F0FC01 		and	r1, r1, #252
 2095 01d2 0120     		movs	r0, #1
 2096 01d4 FFF7FEFF 		bl	Show_P2Bar
 2097              	.LVL129:
ARM GAS  C:\Users\ehgre\AppData\Local\Temp\ccwqnhSc.s 			page 55


 2098 01d8 22E0     		b	.L119
 2099              	.L134:
 479:Core/Src/Traffic_Light.c ****                     Show_P1Bar(true, (100 - ((PLBlueDelay*100)/pedestrianDelay)));
 2100              		.loc 1 479 21 view .LVU677
 2101 01da C3EB0312 		rsb	r2, r3, r3, lsl #4
 2102 01de C3EB8201 		rsb	r1, r3, r2, lsl #2
 2103 01e2 8900     		lsls	r1, r1, #2
 2104 01e4 6431     		adds	r1, r1, #100
 2105 01e6 01F0FC01 		and	r1, r1, #252
 2106 01ea 0120     		movs	r0, #1
 2107 01ec FFF7FEFF 		bl	Show_P1Bar
 2108              	.LVL130:
 2109 01f0 E1E7     		b	.L118
 2110              	.L117:
 485:Core/Src/Traffic_Light.c ****                 if(PLGreenDelay > 0){
 2111              		.loc 1 485 17 view .LVU678
 485:Core/Src/Traffic_Light.c ****                 if(PLGreenDelay > 0){
 2112              		.loc 1 485 33 is_stmt 0 view .LVU679
 2113 01f2 384B     		ldr	r3, .L137+64
 2114 01f4 1B78     		ldrb	r3, [r3]	@ zero_extendqisi2
 485:Core/Src/Traffic_Light.c ****                 if(PLGreenDelay > 0){
 2115              		.loc 1 485 19 view .LVU680
 2116 01f6 8BB3     		cbz	r3, .L120
 486:Core/Src/Traffic_Light.c ****                     PLGreenDelay--;
 2117              		.loc 1 486 21 is_stmt 1 view .LVU681
 486:Core/Src/Traffic_Light.c ****                     PLGreenDelay--;
 2118              		.loc 1 486 33 is_stmt 0 view .LVU682
 2119 01f8 013B     		subs	r3, r3, #1
 2120 01fa DBB2     		uxtb	r3, r3
 2121 01fc 354A     		ldr	r2, .L137+64
 2122 01fe 1370     		strb	r3, [r2]
 487:Core/Src/Traffic_Light.c ****                     if(CW1 == PLGreen){
 2123              		.loc 1 487 21 is_stmt 1 view .LVU683
 487:Core/Src/Traffic_Light.c ****                     if(CW1 == PLGreen){
 2124              		.loc 1 487 28 is_stmt 0 view .LVU684
 2125 0200 324A     		ldr	r2, .L137+56
 2126 0202 1278     		ldrb	r2, [r2]	@ zero_extendqisi2
 487:Core/Src/Traffic_Light.c ****                     if(CW1 == PLGreen){
 2127              		.loc 1 487 23 view .LVU685
 2128 0204 012A     		cmp	r2, #1
 2129 0206 0FD0     		beq	.L135
 2130              	.L121:
 490:Core/Src/Traffic_Light.c ****                     if(CW2 == PLGreen){
 2131              		.loc 1 490 21 is_stmt 1 view .LVU686
 490:Core/Src/Traffic_Light.c ****                     if(CW2 == PLGreen){
 2132              		.loc 1 490 28 is_stmt 0 view .LVU687
 2133 0208 314B     		ldr	r3, .L137+60
 2134 020a 1B78     		ldrb	r3, [r3]	@ zero_extendqisi2
 490:Core/Src/Traffic_Light.c ****                     if(CW2 == PLGreen){
 2135              		.loc 1 490 23 view .LVU688
 2136 020c 012B     		cmp	r3, #1
 2137 020e 17D0     		beq	.L136
 2138              	.L122:
 497:Core/Src/Traffic_Light.c ****                 Show_P1Bar(true, 0);
 2139              		.loc 1 497 17 is_stmt 1 view .LVU689
 2140 0210 0021     		movs	r1, #0
 2141 0212 0120     		movs	r0, #1
ARM GAS  C:\Users\ehgre\AppData\Local\Temp\ccwqnhSc.s 			page 56


 2142 0214 FFF7FEFF 		bl	Show_P1Bar
 2143              	.LVL131:
 498:Core/Src/Traffic_Light.c ****                 Show_P2Bar(true, 0);
 2144              		.loc 1 498 17 view .LVU690
 2145 0218 0021     		movs	r1, #0
 2146 021a 0120     		movs	r0, #1
 2147 021c FFF7FEFF 		bl	Show_P2Bar
 2148              	.LVL132:
 2149              	.L119:
 501:Core/Src/Traffic_Light.c ****             msTick = 1;
 2150              		.loc 1 501 13 view .LVU691
 501:Core/Src/Traffic_Light.c ****             msTick = 1;
 2151              		.loc 1 501 20 is_stmt 0 view .LVU692
 2152 0220 1D4B     		ldr	r3, .L137+4
 2153 0222 0122     		movs	r2, #1
 2154 0224 1A80     		strh	r2, [r3]	@ movhi
 2155 0226 F9E6     		b	.L123
 2156              	.L135:
 488:Core/Src/Traffic_Light.c ****                         Show_W1Bar(true, (100 - ((PLGreenDelay*100)/walkingDelay)));
 2157              		.loc 1 488 25 is_stmt 1 view .LVU693
 2158 0228 C3EB4312 		rsb	r2, r3, r3, lsl #5
 2159 022c C3EB8201 		rsb	r1, r3, r2, lsl #2
 2160 0230 4900     		lsls	r1, r1, #1
 2161 0232 6431     		adds	r1, r1, #100
 2162 0234 01F0FE01 		and	r1, r1, #254
 2163 0238 0120     		movs	r0, #1
 2164 023a FFF7FEFF 		bl	Show_W1Bar
 2165              	.LVL133:
 2166 023e E3E7     		b	.L121
 2167              	.L136:
 491:Core/Src/Traffic_Light.c ****                         Show_W2Bar(true, (100 - ((PLGreenDelay*100)/walkingDelay)));
 2168              		.loc 1 491 25 view .LVU694
 2169 0240 244B     		ldr	r3, .L137+64
 2170 0242 1B78     		ldrb	r3, [r3]	@ zero_extendqisi2
 2171 0244 C3EB4312 		rsb	r2, r3, r3, lsl #5
 2172 0248 C3EB8201 		rsb	r1, r3, r2, lsl #2
 2173 024c 4900     		lsls	r1, r1, #1
 2174 024e 6431     		adds	r1, r1, #100
 2175 0250 01F0FE01 		and	r1, r1, #254
 2176 0254 0120     		movs	r0, #1
 2177 0256 FFF7FEFF 		bl	Show_W2Bar
 2178              	.LVL134:
 2179 025a D9E7     		b	.L122
 2180              	.L120:
 494:Core/Src/Traffic_Light.c ****                     Show_W1Bar(true, 0);
 2181              		.loc 1 494 21 view .LVU695
 2182 025c 0021     		movs	r1, #0
 2183 025e 0120     		movs	r0, #1
 2184 0260 FFF7FEFF 		bl	Show_W1Bar
 2185              	.LVL135:
 495:Core/Src/Traffic_Light.c ****                     Show_W2Bar(true, 0);
 2186              		.loc 1 495 21 view .LVU696
 2187 0264 0021     		movs	r1, #0
 2188 0266 0120     		movs	r0, #1
 2189 0268 FFF7FEFF 		bl	Show_W2Bar
 2190              	.LVL136:
 2191 026c D0E7     		b	.L122
ARM GAS  C:\Users\ehgre\AppData\Local\Temp\ccwqnhSc.s 			page 57


 2192              	.L125:
 510:Core/Src/Traffic_Light.c ****                 BlueOn = true;
 2193              		.loc 1 510 17 view .LVU697
 510:Core/Src/Traffic_Light.c ****                 BlueOn = true;
 2194              		.loc 1 510 24 is_stmt 0 view .LVU698
 2195 026e 0C4B     		ldr	r3, .L137+12
 2196 0270 0122     		movs	r2, #1
 2197 0272 1A70     		strb	r2, [r3]
 2198 0274 E0E6     		b	.L126
 2199              	.L124:
 514:Core/Src/Traffic_Light.c ****             TickFlash++;
 2200              		.loc 1 514 13 is_stmt 1 view .LVU699
 514:Core/Src/Traffic_Light.c ****             TickFlash++;
 2201              		.loc 1 514 22 is_stmt 0 view .LVU700
 2202 0276 0133     		adds	r3, r3, #1
 2203 0278 084A     		ldr	r2, .L137+8
 2204 027a 1380     		strh	r3, [r2]	@ movhi
 2205 027c DFE6     		b	.L127
 2206              	.L128:
 520:Core/Src/Traffic_Light.c ****             Tick++;
 2207              		.loc 1 520 13 is_stmt 1 view .LVU701
 520:Core/Src/Traffic_Light.c ****             Tick++;
 2208              		.loc 1 520 17 is_stmt 0 view .LVU702
 2209 027e 0133     		adds	r3, r3, #1
 2210 0280 084A     		ldr	r2, .L137+16
 2211 0282 1370     		strb	r3, [r2]
 2212 0284 E3E6     		b	.L129
 2213              	.L130:
 526:Core/Src/Traffic_Light.c ****             HAL_GPIO_WritePin(Enable_595_GPIO_Port, Enable_595_Pin, GPIO_PIN_RESET);
 2214              		.loc 1 526 13 is_stmt 1 view .LVU703
 2215 0286 0022     		movs	r2, #0
 2216 0288 8021     		movs	r1, #128
 2217 028a 0848     		ldr	r0, .L137+24
 2218 028c FFF7FEFF 		bl	HAL_GPIO_WritePin
 2219              	.LVL137:
 2220              		.loc 1 530 1 is_stmt 0 view .LVU704
 2221 0290 BAE6     		b	.L102
 2222              	.L138:
 2223 0292 00BF     		.align	2
 2224              	.L137:
 2225 0294 00000000 		.word	htim16
 2226 0298 00000000 		.word	msTick
 2227 029c 00000000 		.word	TickFlash
 2228 02a0 00000000 		.word	BlueOn
 2229 02a4 00000000 		.word	Tick
 2230 02a8 00000000 		.word	brightness
 2231 02ac 00080048 		.word	1207961600
 2232 02b0 00040048 		.word	1207960576
 2233 02b4 00000000 		.word	TLYellowDelay
 2234 02b8 00000000 		.word	NCWaitingDelay
 2235 02bc 00000000 		.word	NCWaitingState
 2236 02c0 93244992 		.word	-1840700269
 2237 02c4 00000000 		.word	TLRedWaitTime
 2238 02c8 00000000 		.word	PLBlueDelay
 2239 02cc 00000000 		.word	CW1
 2240 02d0 00000000 		.word	CW2
 2241 02d4 00000000 		.word	PLGreenDelay
ARM GAS  C:\Users\ehgre\AppData\Local\Temp\ccwqnhSc.s 			page 58


 2242              		.cfi_endproc
 2243              	.LFE324:
 2245              		.global	BlueOn
 2246              		.section	.bss.BlueOn,"aw",%nobits
 2249              	BlueOn:
 2250 0000 00       		.space	1
 2251              		.global	NoCarsWaiting
 2252              		.section	.data.NoCarsWaiting,"aw"
 2255              	NoCarsWaiting:
 2256 0000 01       		.byte	1
 2257              		.global	bits
 2258              		.section	.bss.bits,"aw",%nobits
 2259              		.align	2
 2262              	bits:
 2263 0000 00000000 		.space	4
 2264              		.global	Tick
 2265              		.section	.data.Tick,"aw"
 2268              	Tick:
 2269 0000 01       		.byte	1
 2270              		.global	TickFlash
 2271              		.section	.data.TickFlash,"aw"
 2272              		.align	1
 2275              	TickFlash:
 2276 0000 0100     		.short	1
 2277              		.global	msTick
 2278              		.section	.data.msTick,"aw"
 2279              		.align	1
 2282              	msTick:
 2283 0000 0100     		.short	1
 2284              		.global	NCWaitingDelay
 2285              		.section	.bss.NCWaitingDelay,"aw",%nobits
 2288              	NCWaitingDelay:
 2289 0000 00       		.space	1
 2290              		.global	TLRedWaitTime
 2291              		.section	.bss.TLRedWaitTime,"aw",%nobits
 2294              	TLRedWaitTime:
 2295 0000 00       		.space	1
 2296              		.global	TLYellowDelay
 2297              		.section	.bss.TLYellowDelay,"aw",%nobits
 2300              	TLYellowDelay:
 2301 0000 00       		.space	1
 2302              		.global	PLGreenDelay
 2303              		.section	.bss.PLGreenDelay,"aw",%nobits
 2306              	PLGreenDelay:
 2307 0000 00       		.space	1
 2308              		.global	PLBlueDelay
 2309              		.section	.bss.PLBlueDelay,"aw",%nobits
 2312              	PLBlueDelay:
 2313 0000 00       		.space	1
 2314              		.global	brightness
 2315              		.section	.bss.brightness,"aw",%nobits
 2318              	brightness:
 2319 0000 00       		.space	1
 2320              		.section	.bss.NCWaitingState,"aw",%nobits
 2323              	NCWaitingState:
 2324 0000 00       		.space	1
 2325              		.section	.bss.CW2,"aw",%nobits
ARM GAS  C:\Users\ehgre\AppData\Local\Temp\ccwqnhSc.s 			page 59


 2328              	CW2:
 2329 0000 00       		.space	1
 2330              		.section	.bss.CW1,"aw",%nobits
 2333              	CW1:
 2334 0000 00       		.space	1
 2335              		.global	C4
 2336              		.section	.bss.C4,"aw",%nobits
 2337              		.align	2
 2340              	C4:
 2341 0000 00000000 		.space	5
 2341      00
 2342              		.global	C3
 2343              		.section	.bss.C3,"aw",%nobits
 2344              		.align	2
 2347              	C3:
 2348 0000 00000000 		.space	5
 2348      00
 2349              		.global	C2
 2350              		.section	.bss.C2,"aw",%nobits
 2351              		.align	2
 2354              	C2:
 2355 0000 00000000 		.space	5
 2355      00
 2356              		.global	C1
 2357              		.section	.bss.C1,"aw",%nobits
 2358              		.align	2
 2361              	C1:
 2362 0000 00000000 		.space	5
 2362      00
 2363              		.text
 2364              	.Letext0:
 2365              		.file 2 "c:\\users\\ehgre\\desktop\\plugg\\inbyggda system\\tools\\arm-gnu-toolchain-12.2.mpacbti-
 2366              		.file 3 "c:\\users\\ehgre\\desktop\\plugg\\inbyggda system\\tools\\arm-gnu-toolchain-12.2.mpacbti-
 2367              		.file 4 "Drivers/CMSIS/Device/ST/STM32L4xx/Include/stm32l476xx.h"
 2368              		.file 5 "Drivers/STM32L4xx_HAL_Driver/Inc/stm32l4xx_hal_def.h"
 2369              		.file 6 "Drivers/STM32L4xx_HAL_Driver/Inc/stm32l4xx_hal_gpio.h"
 2370              		.file 7 "Drivers/STM32L4xx_HAL_Driver/Inc/stm32l4xx_hal_dma.h"
 2371              		.file 8 "Drivers/STM32L4xx_HAL_Driver/Inc/stm32l4xx_hal_tim.h"
 2372              		.file 9 "Core/Inc/light_logic.h"
 2373              		.file 10 "Core/Inc/tim.h"
 2374              		.file 11 "Core/Inc/OledDelayBars.h"
 2375              		.file 12 "Core/Inc/interactions.h"
 2376              		.file 13 "Core/Inc/potentiometer.h"
 2377              		.file 14 "c:\\users\\ehgre\\desktop\\plugg\\inbyggda system\\tools\\arm-gnu-toolchain-12.2.mpacbti
ARM GAS  C:\Users\ehgre\AppData\Local\Temp\ccwqnhSc.s 			page 60


DEFINED SYMBOLS
                            *ABS*:00000000 Traffic_Light.c
C:\Users\ehgre\AppData\Local\Temp\ccwqnhSc.s:21     .text.Init_States:00000000 $t
C:\Users\ehgre\AppData\Local\Temp\ccwqnhSc.s:27     .text.Init_States:00000000 Init_States
C:\Users\ehgre\AppData\Local\Temp\ccwqnhSc.s:91     .text.Init_States:0000003c $d
C:\Users\ehgre\AppData\Local\Temp\ccwqnhSc.s:2361   .bss.C1:00000000 C1
C:\Users\ehgre\AppData\Local\Temp\ccwqnhSc.s:2354   .bss.C2:00000000 C2
C:\Users\ehgre\AppData\Local\Temp\ccwqnhSc.s:2347   .bss.C3:00000000 C3
C:\Users\ehgre\AppData\Local\Temp\ccwqnhSc.s:2340   .bss.C4:00000000 C4
C:\Users\ehgre\AppData\Local\Temp\ccwqnhSc.s:2333   .bss.CW1:00000000 CW1
C:\Users\ehgre\AppData\Local\Temp\ccwqnhSc.s:2328   .bss.CW2:00000000 CW2
C:\Users\ehgre\AppData\Local\Temp\ccwqnhSc.s:2323   .bss.NCWaitingState:00000000 NCWaitingState
C:\Users\ehgre\AppData\Local\Temp\ccwqnhSc.s:106    .rodata.IsIllegalGreenState.str1.4:00000000 $d
C:\Users\ehgre\AppData\Local\Temp\ccwqnhSc.s:119    .text.IsIllegalGreenState:00000000 $t
C:\Users\ehgre\AppData\Local\Temp\ccwqnhSc.s:125    .text.IsIllegalGreenState:00000000 IsIllegalGreenState
C:\Users\ehgre\AppData\Local\Temp\ccwqnhSc.s:454    .text.IsIllegalGreenState:0000015c $d
C:\Users\ehgre\AppData\Local\Temp\ccwqnhSc.s:2300   .bss.TLYellowDelay:00000000 TLYellowDelay
C:\Users\ehgre\AppData\Local\Temp\ccwqnhSc.s:2282   .data.msTick:00000000 msTick
C:\Users\ehgre\AppData\Local\Temp\ccwqnhSc.s:471    .text.checkAndChangeTL:00000000 $t
C:\Users\ehgre\AppData\Local\Temp\ccwqnhSc.s:477    .text.checkAndChangeTL:00000000 checkAndChangeTL
C:\Users\ehgre\AppData\Local\Temp\ccwqnhSc.s:525    .text.checkAndChangeTL:00000034 $d
C:\Users\ehgre\AppData\Local\Temp\ccwqnhSc.s:533    .text.traffic_lights:00000000 $t
C:\Users\ehgre\AppData\Local\Temp\ccwqnhSc.s:539    .text.traffic_lights:00000000 traffic_lights
C:\Users\ehgre\AppData\Local\Temp\ccwqnhSc.s:728    .text.traffic_lights:000000e4 $d
C:\Users\ehgre\AppData\Local\Temp\ccwqnhSc.s:2262   .bss.bits:00000000 bits
C:\Users\ehgre\AppData\Local\Temp\ccwqnhSc.s:2294   .bss.TLRedWaitTime:00000000 TLRedWaitTime
C:\Users\ehgre\AppData\Local\Temp\ccwqnhSc.s:2288   .bss.NCWaitingDelay:00000000 NCWaitingDelay
C:\Users\ehgre\AppData\Local\Temp\ccwqnhSc.s:738    .text.traffic_lights:00000100 $t
C:\Users\ehgre\AppData\Local\Temp\ccwqnhSc.s:1237   .text.traffic_lights:00000374 $d
C:\Users\ehgre\AppData\Local\Temp\ccwqnhSc.s:2318   .bss.brightness:00000000 brightness
C:\Users\ehgre\AppData\Local\Temp\ccwqnhSc.s:2255   .data.NoCarsWaiting:00000000 NoCarsWaiting
C:\Users\ehgre\AppData\Local\Temp\ccwqnhSc.s:2312   .bss.PLBlueDelay:00000000 PLBlueDelay
C:\Users\ehgre\AppData\Local\Temp\ccwqnhSc.s:1254   .text.traffic_lights:000003ac $t
C:\Users\ehgre\AppData\Local\Temp\ccwqnhSc.s:1715   .text.traffic_lights:000005d0 $d
C:\Users\ehgre\AppData\Local\Temp\ccwqnhSc.s:2306   .bss.PLGreenDelay:00000000 PLGreenDelay
C:\Users\ehgre\AppData\Local\Temp\ccwqnhSc.s:2249   .bss.BlueOn:00000000 BlueOn
C:\Users\ehgre\AppData\Local\Temp\ccwqnhSc.s:1730   .text.HAL_TIM_PeriodElapsedCallback:00000000 $t
C:\Users\ehgre\AppData\Local\Temp\ccwqnhSc.s:1736   .text.HAL_TIM_PeriodElapsedCallback:00000000 HAL_TIM_PeriodElapsedCallback
C:\Users\ehgre\AppData\Local\Temp\ccwqnhSc.s:2225   .text.HAL_TIM_PeriodElapsedCallback:00000294 $d
C:\Users\ehgre\AppData\Local\Temp\ccwqnhSc.s:2275   .data.TickFlash:00000000 TickFlash
C:\Users\ehgre\AppData\Local\Temp\ccwqnhSc.s:2268   .data.Tick:00000000 Tick
C:\Users\ehgre\AppData\Local\Temp\ccwqnhSc.s:2250   .bss.BlueOn:00000000 $d
C:\Users\ehgre\AppData\Local\Temp\ccwqnhSc.s:2259   .bss.bits:00000000 $d
C:\Users\ehgre\AppData\Local\Temp\ccwqnhSc.s:2272   .data.TickFlash:00000000 $d
C:\Users\ehgre\AppData\Local\Temp\ccwqnhSc.s:2279   .data.msTick:00000000 $d
C:\Users\ehgre\AppData\Local\Temp\ccwqnhSc.s:2289   .bss.NCWaitingDelay:00000000 $d
C:\Users\ehgre\AppData\Local\Temp\ccwqnhSc.s:2295   .bss.TLRedWaitTime:00000000 $d
C:\Users\ehgre\AppData\Local\Temp\ccwqnhSc.s:2301   .bss.TLYellowDelay:00000000 $d
C:\Users\ehgre\AppData\Local\Temp\ccwqnhSc.s:2307   .bss.PLGreenDelay:00000000 $d
C:\Users\ehgre\AppData\Local\Temp\ccwqnhSc.s:2313   .bss.PLBlueDelay:00000000 $d
C:\Users\ehgre\AppData\Local\Temp\ccwqnhSc.s:2319   .bss.brightness:00000000 $d
C:\Users\ehgre\AppData\Local\Temp\ccwqnhSc.s:2324   .bss.NCWaitingState:00000000 $d
C:\Users\ehgre\AppData\Local\Temp\ccwqnhSc.s:2329   .bss.CW2:00000000 $d
C:\Users\ehgre\AppData\Local\Temp\ccwqnhSc.s:2334   .bss.CW1:00000000 $d
C:\Users\ehgre\AppData\Local\Temp\ccwqnhSc.s:2337   .bss.C4:00000000 $d
C:\Users\ehgre\AppData\Local\Temp\ccwqnhSc.s:2344   .bss.C3:00000000 $d
C:\Users\ehgre\AppData\Local\Temp\ccwqnhSc.s:2351   .bss.C2:00000000 $d
ARM GAS  C:\Users\ehgre\AppData\Local\Temp\ccwqnhSc.s 			page 61


C:\Users\ehgre\AppData\Local\Temp\ccwqnhSc.s:2358   .bss.C1:00000000 $d

UNDEFINED SYMBOLS
strcmp
HAL_TIM_Base_Start_IT
Show_All_DelayBars
Init_Task2
is_car2
is_car3
HAL_GPIO_WritePin
Show_G1Bar
Show_G2Bar
TL1_Green
TL1_Red
TL1_Yellow
TL1_isRed
htim16
TL2_Green
TL2_Red
TL2_Yellow
TL3_isGreen
TL3_Green
TL3_Red
TL3_Yellow
TL4_isGreen
TL4_Green
TL4_Red
TL4_Yellow
getPotiPercent
is_car1
is_car4
is_pl1
is_pl2
TL1_isGreen
TL2_isGreen
TL2_isRed
TL3_isRed
TL4_isRed
PL1_Green
PL1_Red
PL1_Blue
PL2_Green
PL2_Red
PL2_Blue
HAL_GPIO_TogglePin
Show_R2Bar
Show_R1Bar
Show_P2Bar
Show_P1Bar
Show_W1Bar
Show_W2Bar
