ARM GAS  C:\Users\ehgre\AppData\Local\Temp\cccn2f6p.s 			page 1


   1              		.cpu cortex-m4
   2              		.arch armv7e-m
   3              		.fpu fpv4-sp-d16
   4              		.eabi_attribute 27, 1
   5              		.eabi_attribute 28, 1
   6              		.eabi_attribute 20, 1
   7              		.eabi_attribute 21, 1
   8              		.eabi_attribute 23, 3
   9              		.eabi_attribute 24, 1
  10              		.eabi_attribute 25, 1
  11              		.eabi_attribute 26, 1
  12              		.eabi_attribute 30, 1
  13              		.eabi_attribute 34, 1
  14              		.eabi_attribute 18, 4
  15              		.file	"Traffic_Light.c"
  16              		.text
  17              	.Ltext0:
  18              		.cfi_sections	.debug_frame
  19              		.file 1 "Core/Src/Traffic_Light.c"
  20              		.section	.text.Init_States,"ax",%progbits
  21              		.align	1
  22              		.global	Init_States
  23              		.syntax unified
  24              		.thumb
  25              		.thumb_func
  27              	Init_States:
  28              	.LFB320:
   1:Core/Src/Traffic_Light.c **** #include <stdio.h>
   2:Core/Src/Traffic_Light.c **** #include <stdlib.h>
   3:Core/Src/Traffic_Light.c **** #include <stdbool.h>
   4:Core/Src/Traffic_Light.c **** 
   5:Core/Src/Traffic_Light.c **** #include "main.h"
   6:Core/Src/Traffic_Light.c **** #include "stm32l4xx_it.h"
   7:Core/Src/Traffic_Light.c **** #include "stm32l4xx_hal_conf.h"
   8:Core/Src/Traffic_Light.c **** #include "shift_register.h"
   9:Core/Src/Traffic_Light.c **** #include "light_logic.h"
  10:Core/Src/Traffic_Light.c **** #include "Traffic_Light.h"
  11:Core/Src/Traffic_Light.c **** #include "tim.h"
  12:Core/Src/Traffic_Light.c **** #include "interactions.h"
  13:Core/Src/Traffic_Light.c **** #include "OledDelayBars.h"
  14:Core/Src/Traffic_Light.c **** #include "potentiometer.h"
  15:Core/Src/Traffic_Light.c **** #include "math.h"
  16:Core/Src/Traffic_Light.c **** #include "ssd1306.h"
  17:Core/Src/Traffic_Light.c **** 
  18:Core/Src/Traffic_Light.c **** //In Miliseconds
  19:Core/Src/Traffic_Light.c **** #define toggleFreq 200 //Pedestrian blue light toggle frequency
  20:Core/Src/Traffic_Light.c **** 
  21:Core/Src/Traffic_Light.c **** //In Seconds
  22:Core/Src/Traffic_Light.c **** #define pedestrianDelay 5 //Pedestrian wait after press duration
  23:Core/Src/Traffic_Light.c **** #define walkingDelay 10 //Pedestrian green duration
  24:Core/Src/Traffic_Light.c **** #define orangeDelay 1 // TrafficLight Orange/Yellow state duration
  25:Core/Src/Traffic_Light.c **** #define greenDelay 5 // trafficlight direction change when no active cars duration
  26:Core/Src/Traffic_Light.c **** 
  27:Core/Src/Traffic_Light.c **** typedef enum{   
  28:Core/Src/Traffic_Light.c ****     PLRed,
  29:Core/Src/Traffic_Light.c ****     PLGreen,
  30:Core/Src/Traffic_Light.c ****     PLBlue
ARM GAS  C:\Users\ehgre\AppData\Local\Temp\cccn2f6p.s 			page 2


  31:Core/Src/Traffic_Light.c **** } crosswalk;
  32:Core/Src/Traffic_Light.c **** 
  33:Core/Src/Traffic_Light.c **** typedef enum{   
  34:Core/Src/Traffic_Light.c ****     TLRed,
  35:Core/Src/Traffic_Light.c ****     TLGreen
  36:Core/Src/Traffic_Light.c **** } crossing;
  37:Core/Src/Traffic_Light.c **** 
  38:Core/Src/Traffic_Light.c **** typedef enum{   
  39:Core/Src/Traffic_Light.c ****     G1,
  40:Core/Src/Traffic_Light.c ****     G2
  41:Core/Src/Traffic_Light.c **** } crossingSwitch;
  42:Core/Src/Traffic_Light.c **** 
  43:Core/Src/Traffic_Light.c **** static crossing C1, C2, C3, C4;
  44:Core/Src/Traffic_Light.c **** 
  45:Core/Src/Traffic_Light.c **** static crosswalk CW1, CW2;
  46:Core/Src/Traffic_Light.c **** 
  47:Core/Src/Traffic_Light.c **** static crossingSwitch NLWaitingState;
  48:Core/Src/Traffic_Light.c **** 
  49:Core/Src/Traffic_Light.c **** uint8_t brightness = 0;
  50:Core/Src/Traffic_Light.c **** 
  51:Core/Src/Traffic_Light.c **** uint8_t PLBlueDelay = 0;
  52:Core/Src/Traffic_Light.c **** 
  53:Core/Src/Traffic_Light.c **** uint8_t PLGreenDelay = 0;
  54:Core/Src/Traffic_Light.c **** 
  55:Core/Src/Traffic_Light.c **** uint8_t TLYellowDelay = 0;
  56:Core/Src/Traffic_Light.c **** 
  57:Core/Src/Traffic_Light.c **** uint8_t NLWaitingDelay = 0;
  58:Core/Src/Traffic_Light.c **** 
  59:Core/Src/Traffic_Light.c **** uint16_t msTick = 1;
  60:Core/Src/Traffic_Light.c **** 
  61:Core/Src/Traffic_Light.c **** uint8_t Tick = 1;
  62:Core/Src/Traffic_Light.c **** 
  63:Core/Src/Traffic_Light.c **** uint32_t bits = 0;
  64:Core/Src/Traffic_Light.c **** 
  65:Core/Src/Traffic_Light.c **** bool noLaneWaiting = true;
  66:Core/Src/Traffic_Light.c **** 
  67:Core/Src/Traffic_Light.c **** void Init_States(){
  29              		.loc 1 67 19 view -0
  30              		.cfi_startproc
  31              		@ args = 0, pretend = 0, frame = 0
  32              		@ frame_needed = 0, uses_anonymous_args = 0
  33              		@ link register save eliminated.
  68:Core/Src/Traffic_Light.c ****     C1 = TLRed;
  34              		.loc 1 68 5 view .LVU1
  35              		.loc 1 68 8 is_stmt 0 view .LVU2
  36 0000 0023     		movs	r3, #0
  37 0002 084A     		ldr	r2, .L2
  38 0004 1370     		strb	r3, [r2]
  69:Core/Src/Traffic_Light.c ****     C2 = TLGreen;
  39              		.loc 1 69 5 is_stmt 1 view .LVU3
  40              		.loc 1 69 8 is_stmt 0 view .LVU4
  41 0006 0122     		movs	r2, #1
  42 0008 0749     		ldr	r1, .L2+4
  43 000a 0A70     		strb	r2, [r1]
  70:Core/Src/Traffic_Light.c ****     C3 = TLRed;
  44              		.loc 1 70 5 is_stmt 1 view .LVU5
  45              		.loc 1 70 8 is_stmt 0 view .LVU6
ARM GAS  C:\Users\ehgre\AppData\Local\Temp\cccn2f6p.s 			page 3


  46 000c 0749     		ldr	r1, .L2+8
  47 000e 0B70     		strb	r3, [r1]
  71:Core/Src/Traffic_Light.c ****     C4 = TLGreen;
  48              		.loc 1 71 5 is_stmt 1 view .LVU7
  49              		.loc 1 71 8 is_stmt 0 view .LVU8
  50 0010 0749     		ldr	r1, .L2+12
  51 0012 0A70     		strb	r2, [r1]
  72:Core/Src/Traffic_Light.c ****     CW1 = PLRed;
  52              		.loc 1 72 5 is_stmt 1 view .LVU9
  53              		.loc 1 72 9 is_stmt 0 view .LVU10
  54 0014 074A     		ldr	r2, .L2+16
  55 0016 1370     		strb	r3, [r2]
  73:Core/Src/Traffic_Light.c ****     CW2 = PLRed;
  56              		.loc 1 73 5 is_stmt 1 view .LVU11
  57              		.loc 1 73 9 is_stmt 0 view .LVU12
  58 0018 074A     		ldr	r2, .L2+20
  59 001a 1370     		strb	r3, [r2]
  74:Core/Src/Traffic_Light.c ****     NLWaitingState = G1;
  60              		.loc 1 74 5 is_stmt 1 view .LVU13
  61              		.loc 1 74 20 is_stmt 0 view .LVU14
  62 001c 074A     		ldr	r2, .L2+24
  63 001e 1370     		strb	r3, [r2]
  75:Core/Src/Traffic_Light.c **** }
  64              		.loc 1 75 1 view .LVU15
  65 0020 7047     		bx	lr
  66              	.L3:
  67 0022 00BF     		.align	2
  68              	.L2:
  69 0024 00000000 		.word	C1
  70 0028 00000000 		.word	C2
  71 002c 00000000 		.word	C3
  72 0030 00000000 		.word	C4
  73 0034 00000000 		.word	CW1
  74 0038 00000000 		.word	CW2
  75 003c 00000000 		.word	NLWaitingState
  76              		.cfi_endproc
  77              	.LFE320:
  79              		.section	.text.traffic_lights,"ax",%progbits
  80              		.align	1
  81              		.global	traffic_lights
  82              		.syntax unified
  83              		.thumb
  84              		.thumb_func
  86              	traffic_lights:
  87              	.LFB321:
  76:Core/Src/Traffic_Light.c **** 
  77:Core/Src/Traffic_Light.c **** void traffic_lights(){
  88              		.loc 1 77 22 is_stmt 1 view -0
  89              		.cfi_startproc
  90              		@ Volatile: function does not return.
  91              		@ args = 0, pretend = 0, frame = 0
  92              		@ frame_needed = 0, uses_anonymous_args = 0
  93 0000 08B5     		push	{r3, lr}
  94              	.LCFI0:
  95              		.cfi_def_cfa_offset 8
  96              		.cfi_offset 3, -8
  97              		.cfi_offset 14, -4
ARM GAS  C:\Users\ehgre\AppData\Local\Temp\cccn2f6p.s 			page 4


  78:Core/Src/Traffic_Light.c ****     HAL_TIM_Base_Start_IT(&htim16);
  98              		.loc 1 78 5 view .LVU17
  99 0002 A548     		ldr	r0, .L58
 100 0004 FFF7FEFF 		bl	HAL_TIM_Base_Start_IT
 101              	.LVL0:
  79:Core/Src/Traffic_Light.c **** 
  80:Core/Src/Traffic_Light.c ****     Init_States();
 102              		.loc 1 80 5 view .LVU18
 103 0008 FFF7FEFF 		bl	Init_States
 104              	.LVL1:
  81:Core/Src/Traffic_Light.c **** 
  82:Core/Src/Traffic_Light.c ****     Show_All_DelayBars(true, 0);
 105              		.loc 1 82 5 view .LVU19
 106 000c 0021     		movs	r1, #0
 107 000e 0120     		movs	r0, #1
 108 0010 FFF7FEFF 		bl	Show_All_DelayBars
 109              	.LVL2:
  83:Core/Src/Traffic_Light.c **** 
  84:Core/Src/Traffic_Light.c ****     bits = Init_Task2(bits);
 110              		.loc 1 84 5 view .LVU20
 111              		.loc 1 84 12 is_stmt 0 view .LVU21
 112 0014 A14C     		ldr	r4, .L58+4
 113 0016 2068     		ldr	r0, [r4]
 114 0018 FFF7FEFF 		bl	Init_Task2
 115              	.LVL3:
 116              		.loc 1 84 10 view .LVU22
 117 001c 2060     		str	r0, [r4]
 118 001e A5E0     		b	.L5
 119              	.L12:
  85:Core/Src/Traffic_Light.c ****     while(1){
  86:Core/Src/Traffic_Light.c **** 
  87:Core/Src/Traffic_Light.c ****         brightness = getPotiPercent();
  88:Core/Src/Traffic_Light.c **** 
  89:Core/Src/Traffic_Light.c ****         noLaneWaiting = true;
  90:Core/Src/Traffic_Light.c **** 
  91:Core/Src/Traffic_Light.c ****         /* // Brightness OLED
  92:Core/Src/Traffic_Light.c ****         char strBri[20] = "Brightness ";
  93:Core/Src/Traffic_Light.c ****         char strBrValue[3] = "";
  94:Core/Src/Traffic_Light.c ****         itoa(brightness, strBrValue, 10);
  95:Core/Src/Traffic_Light.c ****         strcat(strBri, strBrValue);
  96:Core/Src/Traffic_Light.c ****         strcat(strBri, " ");
  97:Core/Src/Traffic_Light.c ****         ssd1306_SetCursor(2,0);
  98:Core/Src/Traffic_Light.c ****         ssd1306_WriteString(strBri, Font_7x10, White);
  99:Core/Src/Traffic_Light.c ****         ssd1306_UpdateScreen();
 100:Core/Src/Traffic_Light.c ****         */
 101:Core/Src/Traffic_Light.c **** 
 102:Core/Src/Traffic_Light.c ****        if(is_car1()){
 103:Core/Src/Traffic_Light.c ****             noLaneWaiting = false;
 104:Core/Src/Traffic_Light.c ****        }
 105:Core/Src/Traffic_Light.c **** 
 106:Core/Src/Traffic_Light.c ****        if(is_car2()){
 107:Core/Src/Traffic_Light.c ****             noLaneWaiting = false;
 108:Core/Src/Traffic_Light.c ****        }
 109:Core/Src/Traffic_Light.c **** 
 110:Core/Src/Traffic_Light.c ****        if(is_car3()){
 111:Core/Src/Traffic_Light.c ****             noLaneWaiting = false;
 112:Core/Src/Traffic_Light.c ****        }
ARM GAS  C:\Users\ehgre\AppData\Local\Temp\cccn2f6p.s 			page 5


 113:Core/Src/Traffic_Light.c **** 
 114:Core/Src/Traffic_Light.c ****        if(is_car4()){
 115:Core/Src/Traffic_Light.c ****             noLaneWaiting = false;
 116:Core/Src/Traffic_Light.c ****        }
 117:Core/Src/Traffic_Light.c **** 
 118:Core/Src/Traffic_Light.c ****        if(noLaneWaiting){
 119:Core/Src/Traffic_Light.c ****             if(NLWaitingDelay == 0){
 120:Core/Src/Traffic_Light.c ****                 NLWaitingDelay = greenDelay;
 121:Core/Src/Traffic_Light.c ****                 if(NLWaitingState == G1){
 122:Core/Src/Traffic_Light.c ****                     Show_G1Bar(true, 0);
 123:Core/Src/Traffic_Light.c ****                     NLWaitingState = G2;
 124:Core/Src/Traffic_Light.c ****                 }else{
 125:Core/Src/Traffic_Light.c ****                     Show_G2Bar(true, 0);
 120              		.loc 1 125 21 is_stmt 1 view .LVU23
 121 0020 0021     		movs	r1, #0
 122 0022 0120     		movs	r0, #1
 123 0024 FFF7FEFF 		bl	Show_G2Bar
 124              	.LVL4:
 126:Core/Src/Traffic_Light.c ****                     NLWaitingState = G1;
 125              		.loc 1 126 21 view .LVU24
 126              		.loc 1 126 36 is_stmt 0 view .LVU25
 127 0028 9D4B     		ldr	r3, .L58+8
 128 002a 0022     		movs	r2, #0
 129 002c 1A70     		strb	r2, [r3]
 130 002e D3E0     		b	.L11
 131              	.L10:
 127:Core/Src/Traffic_Light.c ****                 }
 128:Core/Src/Traffic_Light.c ****             }
 129:Core/Src/Traffic_Light.c ****             HAL_GPIO_WritePin(USR_LED2_GPIO_Port, USR_LED2_Pin, GPIO_PIN_SET);
 130:Core/Src/Traffic_Light.c ****        }else{
 131:Core/Src/Traffic_Light.c ****             HAL_GPIO_WritePin(USR_LED2_GPIO_Port, USR_LED2_Pin, GPIO_PIN_RESET);
 132              		.loc 1 131 13 is_stmt 1 view .LVU26
 133 0030 0022     		movs	r2, #0
 134 0032 4FF40041 		mov	r1, #32768
 135 0036 9B48     		ldr	r0, .L58+12
 136 0038 FFF7FEFF 		bl	HAL_GPIO_WritePin
 137              	.LVL5:
 138 003c D2E0     		b	.L13
 139              	.L54:
 132:Core/Src/Traffic_Light.c ****        }
 133:Core/Src/Traffic_Light.c **** 
 134:Core/Src/Traffic_Light.c ****        if(is_pl1() && (CW2 == PLRed)){
 135:Core/Src/Traffic_Light.c ****             CW1 = PLBlue;
 136:Core/Src/Traffic_Light.c ****             PLBlueDelay = pedestrianDelay;
 137:Core/Src/Traffic_Light.c ****         }
 138:Core/Src/Traffic_Light.c **** 
 139:Core/Src/Traffic_Light.c ****         if(is_pl2() && (CW1 == PLRed)){
 140:Core/Src/Traffic_Light.c ****             CW2 = PLBlue;
 141:Core/Src/Traffic_Light.c ****             PLBlueDelay = pedestrianDelay;
 142:Core/Src/Traffic_Light.c ****         }
 143:Core/Src/Traffic_Light.c **** 
 144:Core/Src/Traffic_Light.c ****         switch (C1){
 145:Core/Src/Traffic_Light.c ****             case TLGreen:
 146:Core/Src/Traffic_Light.c ****                 if((TLYellowDelay > 0) && (!TL1_isGreen(bits))){
 147:Core/Src/Traffic_Light.c ****                     bits = TL1_Green(bits, false);
 140              		.loc 1 147 21 view .LVU27
 141              		.loc 1 147 28 is_stmt 0 view .LVU28
ARM GAS  C:\Users\ehgre\AppData\Local\Temp\cccn2f6p.s 			page 6


 142 003e 974C     		ldr	r4, .L58+4
 143 0040 0021     		movs	r1, #0
 144 0042 2068     		ldr	r0, [r4]
 145 0044 FFF7FEFF 		bl	TL1_Green
 146              	.LVL6:
 147              		.loc 1 147 26 view .LVU29
 148 0048 2060     		str	r0, [r4]
 148:Core/Src/Traffic_Light.c ****                     bits = TL1_Red(bits, false);
 149              		.loc 1 148 21 is_stmt 1 view .LVU30
 150              		.loc 1 148 28 is_stmt 0 view .LVU31
 151 004a 0021     		movs	r1, #0
 152 004c FFF7FEFF 		bl	TL1_Red
 153              	.LVL7:
 154              		.loc 1 148 26 view .LVU32
 155 0050 2060     		str	r0, [r4]
 149:Core/Src/Traffic_Light.c ****                     bits = TL1_Yellow(bits, true);
 156              		.loc 1 149 21 is_stmt 1 view .LVU33
 157              		.loc 1 149 28 is_stmt 0 view .LVU34
 158 0052 0121     		movs	r1, #1
 159 0054 FFF7FEFF 		bl	TL1_Yellow
 160              	.LVL8:
 161              		.loc 1 149 26 view .LVU35
 162 0058 2060     		str	r0, [r4]
 163 005a FAE0     		b	.L17
 164              	.L16:
 150:Core/Src/Traffic_Light.c ****                 }else{
 151:Core/Src/Traffic_Light.c ****                     bits = TL1_Green(bits, false);
 152:Core/Src/Traffic_Light.c ****                     bits = TL1_Red(bits, true);
 153:Core/Src/Traffic_Light.c ****                     bits = TL1_Yellow(bits, false);
 154:Core/Src/Traffic_Light.c ****                 }
 155:Core/Src/Traffic_Light.c ****                 break;
 156:Core/Src/Traffic_Light.c ****             case TLRed:
 157:Core/Src/Traffic_Light.c ****                 if((TLYellowDelay > 0)  && (!TL1_isRed(bits))){
 165              		.loc 1 157 17 is_stmt 1 view .LVU36
 166              		.loc 1 157 35 is_stmt 0 view .LVU37
 167 005c 924B     		ldr	r3, .L58+16
 168 005e 1B78     		ldrb	r3, [r3]	@ zero_extendqisi2
 169              		.loc 1 157 19 view .LVU38
 170 0060 23B1     		cbz	r3, .L19
 171              		.loc 1 157 46 discriminator 1 view .LVU39
 172 0062 8E4B     		ldr	r3, .L58+4
 173 0064 1868     		ldr	r0, [r3]
 174 0066 FFF7FEFF 		bl	TL1_isRed
 175              	.LVL9:
 176              		.loc 1 157 41 discriminator 1 view .LVU40
 177 006a 70B1     		cbz	r0, .L49
 178              	.L19:
 158:Core/Src/Traffic_Light.c ****                     bits = TL1_Green(bits, false);
 159:Core/Src/Traffic_Light.c ****                     bits = TL1_Red(bits, false);
 160:Core/Src/Traffic_Light.c ****                     bits = TL1_Yellow(bits, true);
 161:Core/Src/Traffic_Light.c ****                 }else{
 162:Core/Src/Traffic_Light.c ****                     bits = TL1_Green(bits, false);
 179              		.loc 1 162 21 is_stmt 1 view .LVU41
 180              		.loc 1 162 28 is_stmt 0 view .LVU42
 181 006c 8B4C     		ldr	r4, .L58+4
 182 006e 0021     		movs	r1, #0
 183 0070 2068     		ldr	r0, [r4]
ARM GAS  C:\Users\ehgre\AppData\Local\Temp\cccn2f6p.s 			page 7


 184 0072 FFF7FEFF 		bl	TL1_Green
 185              	.LVL10:
 186              		.loc 1 162 26 view .LVU43
 187 0076 2060     		str	r0, [r4]
 163:Core/Src/Traffic_Light.c ****                     bits = TL1_Red(bits, true);
 188              		.loc 1 163 21 is_stmt 1 view .LVU44
 189              		.loc 1 163 28 is_stmt 0 view .LVU45
 190 0078 0121     		movs	r1, #1
 191 007a FFF7FEFF 		bl	TL1_Red
 192              	.LVL11:
 193              		.loc 1 163 26 view .LVU46
 194 007e 2060     		str	r0, [r4]
 164:Core/Src/Traffic_Light.c ****                     bits = TL1_Yellow(bits, false);
 195              		.loc 1 164 21 is_stmt 1 view .LVU47
 196              		.loc 1 164 28 is_stmt 0 view .LVU48
 197 0080 0021     		movs	r1, #0
 198 0082 FFF7FEFF 		bl	TL1_Yellow
 199              	.LVL12:
 200              		.loc 1 164 26 view .LVU49
 201 0086 2060     		str	r0, [r4]
 202 0088 E3E0     		b	.L17
 203              	.L49:
 158:Core/Src/Traffic_Light.c ****                     bits = TL1_Green(bits, false);
 204              		.loc 1 158 21 is_stmt 1 view .LVU50
 158:Core/Src/Traffic_Light.c ****                     bits = TL1_Green(bits, false);
 205              		.loc 1 158 28 is_stmt 0 view .LVU51
 206 008a 844C     		ldr	r4, .L58+4
 207 008c 0021     		movs	r1, #0
 208 008e 2068     		ldr	r0, [r4]
 209 0090 FFF7FEFF 		bl	TL1_Green
 210              	.LVL13:
 158:Core/Src/Traffic_Light.c ****                     bits = TL1_Green(bits, false);
 211              		.loc 1 158 26 view .LVU52
 212 0094 2060     		str	r0, [r4]
 159:Core/Src/Traffic_Light.c ****                     bits = TL1_Yellow(bits, true);
 213              		.loc 1 159 21 is_stmt 1 view .LVU53
 159:Core/Src/Traffic_Light.c ****                     bits = TL1_Yellow(bits, true);
 214              		.loc 1 159 28 is_stmt 0 view .LVU54
 215 0096 0021     		movs	r1, #0
 216 0098 FFF7FEFF 		bl	TL1_Red
 217              	.LVL14:
 159:Core/Src/Traffic_Light.c ****                     bits = TL1_Yellow(bits, true);
 218              		.loc 1 159 26 view .LVU55
 219 009c 2060     		str	r0, [r4]
 160:Core/Src/Traffic_Light.c ****                 }else{
 220              		.loc 1 160 21 is_stmt 1 view .LVU56
 160:Core/Src/Traffic_Light.c ****                 }else{
 221              		.loc 1 160 28 is_stmt 0 view .LVU57
 222 009e 0121     		movs	r1, #1
 223 00a0 FFF7FEFF 		bl	TL1_Yellow
 224              	.LVL15:
 160:Core/Src/Traffic_Light.c ****                 }else{
 225              		.loc 1 160 26 view .LVU58
 226 00a4 2060     		str	r0, [r4]
 227 00a6 D4E0     		b	.L17
 228              	.L22:
 165:Core/Src/Traffic_Light.c ****                 }
ARM GAS  C:\Users\ehgre\AppData\Local\Temp\cccn2f6p.s 			page 8


 166:Core/Src/Traffic_Light.c ****                 break;
 167:Core/Src/Traffic_Light.c ****             default:
 168:Core/Src/Traffic_Light.c ****                 break;
 169:Core/Src/Traffic_Light.c ****         }
 170:Core/Src/Traffic_Light.c **** 
 171:Core/Src/Traffic_Light.c ****         switch (C2){
 172:Core/Src/Traffic_Light.c ****             case TLGreen:
 173:Core/Src/Traffic_Light.c ****                 if((TLYellowDelay > 0)  && (!TL2_isGreen(bits))){
 174:Core/Src/Traffic_Light.c ****                     bits = TL2_Green(bits, false);
 175:Core/Src/Traffic_Light.c ****                     bits = TL2_Red(bits, false);
 176:Core/Src/Traffic_Light.c ****                     bits = TL2_Yellow(bits, true);
 177:Core/Src/Traffic_Light.c ****                 }else{
 178:Core/Src/Traffic_Light.c ****                     bits = TL2_Green(bits, true);
 229              		.loc 1 178 21 is_stmt 1 view .LVU59
 230              		.loc 1 178 28 is_stmt 0 view .LVU60
 231 00a8 7C4C     		ldr	r4, .L58+4
 232 00aa 0121     		movs	r1, #1
 233 00ac 2068     		ldr	r0, [r4]
 234 00ae FFF7FEFF 		bl	TL2_Green
 235              	.LVL16:
 236              		.loc 1 178 26 view .LVU61
 237 00b2 2060     		str	r0, [r4]
 179:Core/Src/Traffic_Light.c ****                     bits = TL2_Red(bits, false);
 238              		.loc 1 179 21 is_stmt 1 view .LVU62
 239              		.loc 1 179 28 is_stmt 0 view .LVU63
 240 00b4 0021     		movs	r1, #0
 241 00b6 FFF7FEFF 		bl	TL2_Red
 242              	.LVL17:
 243              		.loc 1 179 26 view .LVU64
 244 00ba 2060     		str	r0, [r4]
 180:Core/Src/Traffic_Light.c ****                     bits = TL2_Yellow(bits, false);
 245              		.loc 1 180 21 is_stmt 1 view .LVU65
 246              		.loc 1 180 28 is_stmt 0 view .LVU66
 247 00bc 0021     		movs	r1, #0
 248 00be FFF7FEFF 		bl	TL2_Yellow
 249              	.LVL18:
 250              		.loc 1 180 26 view .LVU67
 251 00c2 2060     		str	r0, [r4]
 252              	.L21:
 181:Core/Src/Traffic_Light.c ****                 }
 182:Core/Src/Traffic_Light.c ****                 break;
 183:Core/Src/Traffic_Light.c ****             case TLRed:
 184:Core/Src/Traffic_Light.c ****                 if((TLYellowDelay > 0)  && (!TL2_isRed(bits))){
 185:Core/Src/Traffic_Light.c ****                     bits = TL2_Green(bits, false);
 186:Core/Src/Traffic_Light.c ****                     bits = TL2_Red(bits, false);
 187:Core/Src/Traffic_Light.c ****                     bits = TL2_Yellow(bits, true);
 188:Core/Src/Traffic_Light.c ****                 }else{
 189:Core/Src/Traffic_Light.c ****                     bits = TL2_Green(bits, false);
 190:Core/Src/Traffic_Light.c ****                     bits = TL2_Red(bits, true);
 191:Core/Src/Traffic_Light.c ****                     bits = TL2_Yellow(bits, false);
 192:Core/Src/Traffic_Light.c ****                 }
 193:Core/Src/Traffic_Light.c ****                 break;
 194:Core/Src/Traffic_Light.c ****             default:
 195:Core/Src/Traffic_Light.c ****                 break;
 196:Core/Src/Traffic_Light.c ****         }
 197:Core/Src/Traffic_Light.c **** 
 198:Core/Src/Traffic_Light.c ****         switch (C3){
ARM GAS  C:\Users\ehgre\AppData\Local\Temp\cccn2f6p.s 			page 9


 253              		.loc 1 198 9 is_stmt 1 view .LVU68
 254 00c4 794B     		ldr	r3, .L58+20
 255 00c6 1B78     		ldrb	r3, [r3]	@ zero_extendqisi2
 256 00c8 002B     		cmp	r3, #0
 257 00ca 00F03881 		beq	.L24
 258 00ce 012B     		cmp	r3, #1
 259 00d0 17D1     		bne	.L25
 199:Core/Src/Traffic_Light.c ****             case TLGreen:
 200:Core/Src/Traffic_Light.c ****                 if((TLYellowDelay > 0)  && (!TL3_isGreen(bits))){
 260              		.loc 1 200 17 view .LVU69
 261              		.loc 1 200 35 is_stmt 0 view .LVU70
 262 00d2 754B     		ldr	r3, .L58+16
 263 00d4 1B78     		ldrb	r3, [r3]	@ zero_extendqisi2
 264              		.loc 1 200 19 view .LVU71
 265 00d6 33B1     		cbz	r3, .L26
 266              		.loc 1 200 46 discriminator 1 view .LVU72
 267 00d8 704B     		ldr	r3, .L58+4
 268 00da 1868     		ldr	r0, [r3]
 269 00dc FFF7FEFF 		bl	TL3_isGreen
 270              	.LVL19:
 271              		.loc 1 200 41 discriminator 1 view .LVU73
 272 00e0 0028     		cmp	r0, #0
 273 00e2 00F01D81 		beq	.L50
 274              	.L26:
 201:Core/Src/Traffic_Light.c ****                     bits = TL3_Green(bits, false);
 202:Core/Src/Traffic_Light.c ****                     bits = TL3_Red(bits, false);
 203:Core/Src/Traffic_Light.c ****                     bits = TL3_Yellow(bits, true);
 204:Core/Src/Traffic_Light.c ****                 }else{
 205:Core/Src/Traffic_Light.c ****                     bits = TL3_Green(bits, true);
 275              		.loc 1 205 21 is_stmt 1 view .LVU74
 276              		.loc 1 205 28 is_stmt 0 view .LVU75
 277 00e6 6D4C     		ldr	r4, .L58+4
 278 00e8 0121     		movs	r1, #1
 279 00ea 2068     		ldr	r0, [r4]
 280 00ec FFF7FEFF 		bl	TL3_Green
 281              	.LVL20:
 282              		.loc 1 205 26 view .LVU76
 283 00f0 2060     		str	r0, [r4]
 206:Core/Src/Traffic_Light.c ****                     bits = TL3_Red(bits, false);
 284              		.loc 1 206 21 is_stmt 1 view .LVU77
 285              		.loc 1 206 28 is_stmt 0 view .LVU78
 286 00f2 0021     		movs	r1, #0
 287 00f4 FFF7FEFF 		bl	TL3_Red
 288              	.LVL21:
 289              		.loc 1 206 26 view .LVU79
 290 00f8 2060     		str	r0, [r4]
 207:Core/Src/Traffic_Light.c ****                     bits = TL3_Yellow(bits, false);
 291              		.loc 1 207 21 is_stmt 1 view .LVU80
 292              		.loc 1 207 28 is_stmt 0 view .LVU81
 293 00fa 0021     		movs	r1, #0
 294 00fc FFF7FEFF 		bl	TL3_Yellow
 295              	.LVL22:
 296              		.loc 1 207 26 view .LVU82
 297 0100 2060     		str	r0, [r4]
 298              	.L25:
 208:Core/Src/Traffic_Light.c ****                 }
 209:Core/Src/Traffic_Light.c ****                 break;
ARM GAS  C:\Users\ehgre\AppData\Local\Temp\cccn2f6p.s 			page 10


 210:Core/Src/Traffic_Light.c ****             case TLRed:
 211:Core/Src/Traffic_Light.c ****                 if((TLYellowDelay > 0) && (!TL3_isRed(bits))){
 212:Core/Src/Traffic_Light.c ****                     bits = TL3_Green(bits, false);
 213:Core/Src/Traffic_Light.c ****                     bits = TL3_Red(bits, false);
 214:Core/Src/Traffic_Light.c ****                     bits = TL3_Yellow(bits, true);
 215:Core/Src/Traffic_Light.c ****                 }else{
 216:Core/Src/Traffic_Light.c ****                     bits = TL3_Green(bits, false);
 217:Core/Src/Traffic_Light.c ****                     bits = TL3_Red(bits, true);
 218:Core/Src/Traffic_Light.c ****                     bits = TL3_Yellow(bits, false);
 219:Core/Src/Traffic_Light.c ****                 }
 220:Core/Src/Traffic_Light.c ****                 break;
 221:Core/Src/Traffic_Light.c ****             default:
 222:Core/Src/Traffic_Light.c ****                 break;
 223:Core/Src/Traffic_Light.c ****         }
 224:Core/Src/Traffic_Light.c **** 
 225:Core/Src/Traffic_Light.c ****         switch (C4){
 299              		.loc 1 225 9 is_stmt 1 view .LVU83
 300 0102 6B4B     		ldr	r3, .L58+24
 301 0104 1B78     		ldrb	r3, [r3]	@ zero_extendqisi2
 302 0106 002B     		cmp	r3, #0
 303 0108 00F04E81 		beq	.L28
 304 010c 012B     		cmp	r3, #1
 305 010e 17D1     		bne	.L29
 226:Core/Src/Traffic_Light.c ****             case TLGreen:
 227:Core/Src/Traffic_Light.c ****                 if((TLYellowDelay > 0) && (!TL4_isGreen(bits))){
 306              		.loc 1 227 17 view .LVU84
 307              		.loc 1 227 35 is_stmt 0 view .LVU85
 308 0110 654B     		ldr	r3, .L58+16
 309 0112 1B78     		ldrb	r3, [r3]	@ zero_extendqisi2
 310              		.loc 1 227 19 view .LVU86
 311 0114 33B1     		cbz	r3, .L30
 312              		.loc 1 227 45 discriminator 1 view .LVU87
 313 0116 614B     		ldr	r3, .L58+4
 314 0118 1868     		ldr	r0, [r3]
 315 011a FFF7FEFF 		bl	TL4_isGreen
 316              	.LVL23:
 317              		.loc 1 227 40 discriminator 1 view .LVU88
 318 011e 0028     		cmp	r0, #0
 319 0120 00F03381 		beq	.L51
 320              	.L30:
 228:Core/Src/Traffic_Light.c ****                     bits = TL4_Green(bits, false);
 229:Core/Src/Traffic_Light.c ****                     bits = TL4_Red(bits, false);
 230:Core/Src/Traffic_Light.c ****                     bits = TL4_Yellow(bits, true);
 231:Core/Src/Traffic_Light.c ****                 }else{
 232:Core/Src/Traffic_Light.c ****                     bits = TL4_Green(bits, true);
 321              		.loc 1 232 21 is_stmt 1 view .LVU89
 322              		.loc 1 232 28 is_stmt 0 view .LVU90
 323 0124 5D4C     		ldr	r4, .L58+4
 324 0126 0121     		movs	r1, #1
 325 0128 2068     		ldr	r0, [r4]
 326 012a FFF7FEFF 		bl	TL4_Green
 327              	.LVL24:
 328              		.loc 1 232 26 view .LVU91
 329 012e 2060     		str	r0, [r4]
 233:Core/Src/Traffic_Light.c ****                     bits = TL4_Red(bits, false);
 330              		.loc 1 233 21 is_stmt 1 view .LVU92
 331              		.loc 1 233 28 is_stmt 0 view .LVU93
ARM GAS  C:\Users\ehgre\AppData\Local\Temp\cccn2f6p.s 			page 11


 332 0130 0021     		movs	r1, #0
 333 0132 FFF7FEFF 		bl	TL4_Red
 334              	.LVL25:
 335              		.loc 1 233 26 view .LVU94
 336 0136 2060     		str	r0, [r4]
 234:Core/Src/Traffic_Light.c ****                     bits = TL4_Yellow(bits, false);
 337              		.loc 1 234 21 is_stmt 1 view .LVU95
 338              		.loc 1 234 28 is_stmt 0 view .LVU96
 339 0138 0021     		movs	r1, #0
 340 013a FFF7FEFF 		bl	TL4_Yellow
 341              	.LVL26:
 342              		.loc 1 234 26 view .LVU97
 343 013e 2060     		str	r0, [r4]
 344              	.L29:
 235:Core/Src/Traffic_Light.c ****                 }
 236:Core/Src/Traffic_Light.c ****                 break;
 237:Core/Src/Traffic_Light.c ****             case TLRed:
 238:Core/Src/Traffic_Light.c ****                 if((TLYellowDelay > 0)  && (!TL4_isRed(bits))){
 239:Core/Src/Traffic_Light.c ****                     bits = TL4_Green(bits, false);
 240:Core/Src/Traffic_Light.c ****                     bits = TL4_Red(bits, false);
 241:Core/Src/Traffic_Light.c ****                     bits = TL4_Yellow(bits, true);
 242:Core/Src/Traffic_Light.c ****                 }else{
 243:Core/Src/Traffic_Light.c ****                     bits = TL4_Green(bits, false);
 244:Core/Src/Traffic_Light.c ****                     bits = TL4_Red(bits, true);
 245:Core/Src/Traffic_Light.c ****                     bits = TL4_Yellow(bits, false);
 246:Core/Src/Traffic_Light.c ****                 }
 247:Core/Src/Traffic_Light.c ****                 break;
 248:Core/Src/Traffic_Light.c ****             default:
 249:Core/Src/Traffic_Light.c ****                 break;
 250:Core/Src/Traffic_Light.c ****         }
 251:Core/Src/Traffic_Light.c **** 
 252:Core/Src/Traffic_Light.c ****         switch (CW1){
 345              		.loc 1 252 9 is_stmt 1 view .LVU98
 346 0140 5C4B     		ldr	r3, .L58+28
 347 0142 1B78     		ldrb	r3, [r3]	@ zero_extendqisi2
 348 0144 012B     		cmp	r3, #1
 349 0146 00F05581 		beq	.L32
 350 014a 022B     		cmp	r3, #2
 351 014c 00F08681 		beq	.L33
 352 0150 002B     		cmp	r3, #0
 353 0152 00F0A781 		beq	.L52
 354              	.L35:
 253:Core/Src/Traffic_Light.c ****             case PLGreen:
 254:Core/Src/Traffic_Light.c ****                 if((C1 != TLRed) || (C3 != TLRed) || (C4 != TLRed)){
 255:Core/Src/Traffic_Light.c ****                     C1 = TLRed;
 256:Core/Src/Traffic_Light.c ****                     C3 = TLRed;
 257:Core/Src/Traffic_Light.c ****                     C4 = TLRed;
 258:Core/Src/Traffic_Light.c ****                     TLYellowDelay = orangeDelay+1;
 259:Core/Src/Traffic_Light.c ****                 }else{
 260:Core/Src/Traffic_Light.c ****                     if(TLYellowDelay == 0){
 261:Core/Src/Traffic_Light.c ****                         if(PLGreenDelay > 0){
 262:Core/Src/Traffic_Light.c ****                             bits = PL1_Green(bits, true);
 263:Core/Src/Traffic_Light.c ****                             bits = PL1_Red(bits, false);
 264:Core/Src/Traffic_Light.c ****                         }else{
 265:Core/Src/Traffic_Light.c ****                             CW1 = PLRed;
 266:Core/Src/Traffic_Light.c ****                             bits = PL1_Green(bits, false);
 267:Core/Src/Traffic_Light.c ****                             bits = PL1_Red(bits, true);
ARM GAS  C:\Users\ehgre\AppData\Local\Temp\cccn2f6p.s 			page 12


 268:Core/Src/Traffic_Light.c ****                         }
 269:Core/Src/Traffic_Light.c ****                     }
 270:Core/Src/Traffic_Light.c ****                 }
 271:Core/Src/Traffic_Light.c ****                 break;
 272:Core/Src/Traffic_Light.c ****             case PLBlue:
 273:Core/Src/Traffic_Light.c ****                 if(PLBlueDelay > 0){
 274:Core/Src/Traffic_Light.c ****                     if((msTick % (uint16_t)(toggleFreq*10)) == 0){
 275:Core/Src/Traffic_Light.c ****                         bits = PL1_Blue_Toggle(bits);
 276:Core/Src/Traffic_Light.c ****                     }
 277:Core/Src/Traffic_Light.c ****                 }else{
 278:Core/Src/Traffic_Light.c ****                     CW1 = PLGreen;
 279:Core/Src/Traffic_Light.c ****                     PLGreenDelay = walkingDelay;
 280:Core/Src/Traffic_Light.c ****                     bits = PL1_Blue(bits, false);
 281:Core/Src/Traffic_Light.c ****                 }
 282:Core/Src/Traffic_Light.c ****                 break;
 283:Core/Src/Traffic_Light.c ****             case PLRed:
 284:Core/Src/Traffic_Light.c ****                 bits = PL1_Red(bits,true);
 285:Core/Src/Traffic_Light.c ****                 bits = PL1_Green(bits,false);
 286:Core/Src/Traffic_Light.c ****                 break;
 287:Core/Src/Traffic_Light.c ****             default:
 288:Core/Src/Traffic_Light.c ****                 break;
 289:Core/Src/Traffic_Light.c ****         }
 290:Core/Src/Traffic_Light.c **** 
 291:Core/Src/Traffic_Light.c ****         switch (CW2){
 355              		.loc 1 291 9 view .LVU99
 356 0156 584B     		ldr	r3, .L58+32
 357 0158 1B78     		ldrb	r3, [r3]	@ zero_extendqisi2
 358 015a 012B     		cmp	r3, #1
 359 015c 00F0AD81 		beq	.L40
 360 0160 022B     		cmp	r3, #2
 361 0162 00F0F781 		beq	.L41
 362 0166 002B     		cmp	r3, #0
 363 0168 00F01882 		beq	.L53
 364              	.L5:
  85:Core/Src/Traffic_Light.c **** 
 365              		.loc 1 85 5 view .LVU100
  87:Core/Src/Traffic_Light.c **** 
 366              		.loc 1 87 9 view .LVU101
  87:Core/Src/Traffic_Light.c **** 
 367              		.loc 1 87 22 is_stmt 0 view .LVU102
 368 016c FFF7FEFF 		bl	getPotiPercent
 369              	.LVL27:
  87:Core/Src/Traffic_Light.c **** 
 370              		.loc 1 87 20 view .LVU103
 371 0170 524B     		ldr	r3, .L58+36
 372 0172 1870     		strb	r0, [r3]
  89:Core/Src/Traffic_Light.c **** 
 373              		.loc 1 89 9 is_stmt 1 view .LVU104
  89:Core/Src/Traffic_Light.c **** 
 374              		.loc 1 89 23 is_stmt 0 view .LVU105
 375 0174 524B     		ldr	r3, .L58+40
 376 0176 0122     		movs	r2, #1
 377 0178 1A70     		strb	r2, [r3]
 102:Core/Src/Traffic_Light.c ****             noLaneWaiting = false;
 378              		.loc 1 102 8 is_stmt 1 view .LVU106
 102:Core/Src/Traffic_Light.c ****             noLaneWaiting = false;
 379              		.loc 1 102 11 is_stmt 0 view .LVU107
ARM GAS  C:\Users\ehgre\AppData\Local\Temp\cccn2f6p.s 			page 13


 380 017a FFF7FEFF 		bl	is_car1
 381              	.LVL28:
 102:Core/Src/Traffic_Light.c ****             noLaneWaiting = false;
 382              		.loc 1 102 10 view .LVU108
 383 017e 10B1     		cbz	r0, .L6
 103:Core/Src/Traffic_Light.c ****        }
 384              		.loc 1 103 13 is_stmt 1 view .LVU109
 103:Core/Src/Traffic_Light.c ****        }
 385              		.loc 1 103 27 is_stmt 0 view .LVU110
 386 0180 4F4B     		ldr	r3, .L58+40
 387 0182 0022     		movs	r2, #0
 388 0184 1A70     		strb	r2, [r3]
 389              	.L6:
 106:Core/Src/Traffic_Light.c ****             noLaneWaiting = false;
 390              		.loc 1 106 8 is_stmt 1 view .LVU111
 106:Core/Src/Traffic_Light.c ****             noLaneWaiting = false;
 391              		.loc 1 106 11 is_stmt 0 view .LVU112
 392 0186 FFF7FEFF 		bl	is_car2
 393              	.LVL29:
 106:Core/Src/Traffic_Light.c ****             noLaneWaiting = false;
 394              		.loc 1 106 10 view .LVU113
 395 018a 10B1     		cbz	r0, .L7
 107:Core/Src/Traffic_Light.c ****        }
 396              		.loc 1 107 13 is_stmt 1 view .LVU114
 107:Core/Src/Traffic_Light.c ****        }
 397              		.loc 1 107 27 is_stmt 0 view .LVU115
 398 018c 4C4B     		ldr	r3, .L58+40
 399 018e 0022     		movs	r2, #0
 400 0190 1A70     		strb	r2, [r3]
 401              	.L7:
 110:Core/Src/Traffic_Light.c ****             noLaneWaiting = false;
 402              		.loc 1 110 8 is_stmt 1 view .LVU116
 110:Core/Src/Traffic_Light.c ****             noLaneWaiting = false;
 403              		.loc 1 110 11 is_stmt 0 view .LVU117
 404 0192 FFF7FEFF 		bl	is_car3
 405              	.LVL30:
 110:Core/Src/Traffic_Light.c ****             noLaneWaiting = false;
 406              		.loc 1 110 10 view .LVU118
 407 0196 10B1     		cbz	r0, .L8
 111:Core/Src/Traffic_Light.c ****        }
 408              		.loc 1 111 13 is_stmt 1 view .LVU119
 111:Core/Src/Traffic_Light.c ****        }
 409              		.loc 1 111 27 is_stmt 0 view .LVU120
 410 0198 494B     		ldr	r3, .L58+40
 411 019a 0022     		movs	r2, #0
 412 019c 1A70     		strb	r2, [r3]
 413              	.L8:
 114:Core/Src/Traffic_Light.c ****             noLaneWaiting = false;
 414              		.loc 1 114 8 is_stmt 1 view .LVU121
 114:Core/Src/Traffic_Light.c ****             noLaneWaiting = false;
 415              		.loc 1 114 11 is_stmt 0 view .LVU122
 416 019e FFF7FEFF 		bl	is_car4
 417              	.LVL31:
 114:Core/Src/Traffic_Light.c ****             noLaneWaiting = false;
 418              		.loc 1 114 10 view .LVU123
 419 01a2 10B1     		cbz	r0, .L9
 115:Core/Src/Traffic_Light.c ****        }
ARM GAS  C:\Users\ehgre\AppData\Local\Temp\cccn2f6p.s 			page 14


 420              		.loc 1 115 13 is_stmt 1 view .LVU124
 115:Core/Src/Traffic_Light.c ****        }
 421              		.loc 1 115 27 is_stmt 0 view .LVU125
 422 01a4 464B     		ldr	r3, .L58+40
 423 01a6 0022     		movs	r2, #0
 424 01a8 1A70     		strb	r2, [r3]
 425              	.L9:
 118:Core/Src/Traffic_Light.c ****             if(NLWaitingDelay == 0){
 426              		.loc 1 118 8 is_stmt 1 view .LVU126
 118:Core/Src/Traffic_Light.c ****             if(NLWaitingDelay == 0){
 427              		.loc 1 118 11 is_stmt 0 view .LVU127
 428 01aa 454B     		ldr	r3, .L58+40
 429 01ac 1B78     		ldrb	r3, [r3]	@ zero_extendqisi2
 118:Core/Src/Traffic_Light.c ****             if(NLWaitingDelay == 0){
 430              		.loc 1 118 10 view .LVU128
 431 01ae 002B     		cmp	r3, #0
 432 01b0 3FF43EAF 		beq	.L10
 119:Core/Src/Traffic_Light.c ****                 NLWaitingDelay = greenDelay;
 433              		.loc 1 119 13 is_stmt 1 view .LVU129
 119:Core/Src/Traffic_Light.c ****                 NLWaitingDelay = greenDelay;
 434              		.loc 1 119 31 is_stmt 0 view .LVU130
 435 01b4 434B     		ldr	r3, .L58+44
 436 01b6 1B78     		ldrb	r3, [r3]	@ zero_extendqisi2
 119:Core/Src/Traffic_Light.c ****                 NLWaitingDelay = greenDelay;
 437              		.loc 1 119 15 view .LVU131
 438 01b8 73B9     		cbnz	r3, .L11
 120:Core/Src/Traffic_Light.c ****                 if(NLWaitingState == G1){
 439              		.loc 1 120 17 is_stmt 1 view .LVU132
 120:Core/Src/Traffic_Light.c ****                 if(NLWaitingState == G1){
 440              		.loc 1 120 32 is_stmt 0 view .LVU133
 441 01ba 424B     		ldr	r3, .L58+44
 442 01bc 0522     		movs	r2, #5
 443 01be 1A70     		strb	r2, [r3]
 121:Core/Src/Traffic_Light.c ****                     Show_G1Bar(true, 0);
 444              		.loc 1 121 17 is_stmt 1 view .LVU134
 121:Core/Src/Traffic_Light.c ****                     Show_G1Bar(true, 0);
 445              		.loc 1 121 35 is_stmt 0 view .LVU135
 446 01c0 374B     		ldr	r3, .L58+8
 447 01c2 1B78     		ldrb	r3, [r3]	@ zero_extendqisi2
 121:Core/Src/Traffic_Light.c ****                     Show_G1Bar(true, 0);
 448              		.loc 1 121 19 view .LVU136
 449 01c4 002B     		cmp	r3, #0
 450 01c6 7FF42BAF 		bne	.L12
 122:Core/Src/Traffic_Light.c ****                     NLWaitingState = G2;
 451              		.loc 1 122 21 is_stmt 1 view .LVU137
 452 01ca 0021     		movs	r1, #0
 453 01cc 0120     		movs	r0, #1
 454 01ce FFF7FEFF 		bl	Show_G1Bar
 455              	.LVL32:
 123:Core/Src/Traffic_Light.c ****                 }else{
 456              		.loc 1 123 21 view .LVU138
 123:Core/Src/Traffic_Light.c ****                 }else{
 457              		.loc 1 123 36 is_stmt 0 view .LVU139
 458 01d2 334B     		ldr	r3, .L58+8
 459 01d4 0122     		movs	r2, #1
 460 01d6 1A70     		strb	r2, [r3]
 461              	.L11:
ARM GAS  C:\Users\ehgre\AppData\Local\Temp\cccn2f6p.s 			page 15


 129:Core/Src/Traffic_Light.c ****        }else{
 462              		.loc 1 129 13 is_stmt 1 view .LVU140
 463 01d8 0122     		movs	r2, #1
 464 01da 4FF40041 		mov	r1, #32768
 465 01de 3148     		ldr	r0, .L58+12
 466 01e0 FFF7FEFF 		bl	HAL_GPIO_WritePin
 467              	.LVL33:
 468              	.L13:
 134:Core/Src/Traffic_Light.c ****             CW1 = PLBlue;
 469              		.loc 1 134 8 view .LVU141
 134:Core/Src/Traffic_Light.c ****             CW1 = PLBlue;
 470              		.loc 1 134 11 is_stmt 0 view .LVU142
 471 01e4 FFF7FEFF 		bl	is_pl1
 472              	.LVL34:
 134:Core/Src/Traffic_Light.c ****             CW1 = PLBlue;
 473              		.loc 1 134 10 view .LVU143
 474 01e8 40B1     		cbz	r0, .L14
 134:Core/Src/Traffic_Light.c ****             CW1 = PLBlue;
 475              		.loc 1 134 28 discriminator 1 view .LVU144
 476 01ea 334B     		ldr	r3, .L58+32
 477 01ec 1B78     		ldrb	r3, [r3]	@ zero_extendqisi2
 134:Core/Src/Traffic_Light.c ****             CW1 = PLBlue;
 478              		.loc 1 134 20 discriminator 1 view .LVU145
 479 01ee 2BB9     		cbnz	r3, .L14
 135:Core/Src/Traffic_Light.c ****             PLBlueDelay = pedestrianDelay;
 480              		.loc 1 135 13 is_stmt 1 view .LVU146
 135:Core/Src/Traffic_Light.c ****             PLBlueDelay = pedestrianDelay;
 481              		.loc 1 135 17 is_stmt 0 view .LVU147
 482 01f0 304B     		ldr	r3, .L58+28
 483 01f2 0222     		movs	r2, #2
 484 01f4 1A70     		strb	r2, [r3]
 136:Core/Src/Traffic_Light.c ****         }
 485              		.loc 1 136 13 is_stmt 1 view .LVU148
 136:Core/Src/Traffic_Light.c ****         }
 486              		.loc 1 136 25 is_stmt 0 view .LVU149
 487 01f6 344B     		ldr	r3, .L58+48
 488 01f8 0522     		movs	r2, #5
 489 01fa 1A70     		strb	r2, [r3]
 490              	.L14:
 139:Core/Src/Traffic_Light.c ****             CW2 = PLBlue;
 491              		.loc 1 139 9 is_stmt 1 view .LVU150
 139:Core/Src/Traffic_Light.c ****             CW2 = PLBlue;
 492              		.loc 1 139 12 is_stmt 0 view .LVU151
 493 01fc FFF7FEFF 		bl	is_pl2
 494              	.LVL35:
 139:Core/Src/Traffic_Light.c ****             CW2 = PLBlue;
 495              		.loc 1 139 11 view .LVU152
 496 0200 40B1     		cbz	r0, .L15
 139:Core/Src/Traffic_Light.c ****             CW2 = PLBlue;
 497              		.loc 1 139 29 discriminator 1 view .LVU153
 498 0202 2C4B     		ldr	r3, .L58+28
 499 0204 1B78     		ldrb	r3, [r3]	@ zero_extendqisi2
 139:Core/Src/Traffic_Light.c ****             CW2 = PLBlue;
 500              		.loc 1 139 21 discriminator 1 view .LVU154
 501 0206 2BB9     		cbnz	r3, .L15
 140:Core/Src/Traffic_Light.c ****             PLBlueDelay = pedestrianDelay;
 502              		.loc 1 140 13 is_stmt 1 view .LVU155
ARM GAS  C:\Users\ehgre\AppData\Local\Temp\cccn2f6p.s 			page 16


 140:Core/Src/Traffic_Light.c ****             PLBlueDelay = pedestrianDelay;
 503              		.loc 1 140 17 is_stmt 0 view .LVU156
 504 0208 2B4B     		ldr	r3, .L58+32
 505 020a 0222     		movs	r2, #2
 506 020c 1A70     		strb	r2, [r3]
 141:Core/Src/Traffic_Light.c ****         }
 507              		.loc 1 141 13 is_stmt 1 view .LVU157
 141:Core/Src/Traffic_Light.c ****         }
 508              		.loc 1 141 25 is_stmt 0 view .LVU158
 509 020e 2E4B     		ldr	r3, .L58+48
 510 0210 0522     		movs	r2, #5
 511 0212 1A70     		strb	r2, [r3]
 512              	.L15:
 144:Core/Src/Traffic_Light.c ****             case TLGreen:
 513              		.loc 1 144 9 is_stmt 1 view .LVU159
 514 0214 2D4B     		ldr	r3, .L58+52
 515 0216 1B78     		ldrb	r3, [r3]	@ zero_extendqisi2
 516 0218 002B     		cmp	r3, #0
 517 021a 3FF41FAF 		beq	.L16
 518 021e 012B     		cmp	r3, #1
 519 0220 17D1     		bne	.L17
 146:Core/Src/Traffic_Light.c ****                     bits = TL1_Green(bits, false);
 520              		.loc 1 146 17 view .LVU160
 146:Core/Src/Traffic_Light.c ****                     bits = TL1_Green(bits, false);
 521              		.loc 1 146 35 is_stmt 0 view .LVU161
 522 0222 214B     		ldr	r3, .L58+16
 523 0224 1B78     		ldrb	r3, [r3]	@ zero_extendqisi2
 146:Core/Src/Traffic_Light.c ****                     bits = TL1_Green(bits, false);
 524              		.loc 1 146 19 view .LVU162
 525 0226 33B1     		cbz	r3, .L18
 146:Core/Src/Traffic_Light.c ****                     bits = TL1_Green(bits, false);
 526              		.loc 1 146 45 discriminator 1 view .LVU163
 527 0228 1C4B     		ldr	r3, .L58+4
 528 022a 1868     		ldr	r0, [r3]
 529 022c FFF7FEFF 		bl	TL1_isGreen
 530              	.LVL36:
 146:Core/Src/Traffic_Light.c ****                     bits = TL1_Green(bits, false);
 531              		.loc 1 146 40 discriminator 1 view .LVU164
 532 0230 0028     		cmp	r0, #0
 533 0232 3FF404AF 		beq	.L54
 534              	.L18:
 151:Core/Src/Traffic_Light.c ****                     bits = TL1_Red(bits, true);
 535              		.loc 1 151 21 is_stmt 1 view .LVU165
 151:Core/Src/Traffic_Light.c ****                     bits = TL1_Red(bits, true);
 536              		.loc 1 151 28 is_stmt 0 view .LVU166
 537 0236 194C     		ldr	r4, .L58+4
 538 0238 0021     		movs	r1, #0
 539 023a 2068     		ldr	r0, [r4]
 540 023c FFF7FEFF 		bl	TL1_Green
 541              	.LVL37:
 151:Core/Src/Traffic_Light.c ****                     bits = TL1_Red(bits, true);
 542              		.loc 1 151 26 view .LVU167
 543 0240 2060     		str	r0, [r4]
 152:Core/Src/Traffic_Light.c ****                     bits = TL1_Yellow(bits, false);
 544              		.loc 1 152 21 is_stmt 1 view .LVU168
 152:Core/Src/Traffic_Light.c ****                     bits = TL1_Yellow(bits, false);
 545              		.loc 1 152 28 is_stmt 0 view .LVU169
ARM GAS  C:\Users\ehgre\AppData\Local\Temp\cccn2f6p.s 			page 17


 546 0242 0121     		movs	r1, #1
 547 0244 FFF7FEFF 		bl	TL1_Red
 548              	.LVL38:
 152:Core/Src/Traffic_Light.c ****                     bits = TL1_Yellow(bits, false);
 549              		.loc 1 152 26 view .LVU170
 550 0248 2060     		str	r0, [r4]
 153:Core/Src/Traffic_Light.c ****                 }
 551              		.loc 1 153 21 is_stmt 1 view .LVU171
 153:Core/Src/Traffic_Light.c ****                 }
 552              		.loc 1 153 28 is_stmt 0 view .LVU172
 553 024a 0021     		movs	r1, #0
 554 024c FFF7FEFF 		bl	TL1_Yellow
 555              	.LVL39:
 153:Core/Src/Traffic_Light.c ****                 }
 556              		.loc 1 153 26 view .LVU173
 557 0250 2060     		str	r0, [r4]
 558              	.L17:
 171:Core/Src/Traffic_Light.c ****             case TLGreen:
 559              		.loc 1 171 9 is_stmt 1 view .LVU174
 560 0252 1F4B     		ldr	r3, .L58+56
 561 0254 1B78     		ldrb	r3, [r3]	@ zero_extendqisi2
 562 0256 002B     		cmp	r3, #0
 563 0258 3CD0     		beq	.L20
 564 025a 012B     		cmp	r3, #1
 565 025c 7FF432AF 		bne	.L21
 173:Core/Src/Traffic_Light.c ****                     bits = TL2_Green(bits, false);
 566              		.loc 1 173 17 view .LVU175
 173:Core/Src/Traffic_Light.c ****                     bits = TL2_Green(bits, false);
 567              		.loc 1 173 35 is_stmt 0 view .LVU176
 568 0260 114B     		ldr	r3, .L58+16
 569 0262 1B78     		ldrb	r3, [r3]	@ zero_extendqisi2
 173:Core/Src/Traffic_Light.c ****                     bits = TL2_Green(bits, false);
 570              		.loc 1 173 19 view .LVU177
 571 0264 002B     		cmp	r3, #0
 572 0266 3FF41FAF 		beq	.L22
 173:Core/Src/Traffic_Light.c ****                     bits = TL2_Green(bits, false);
 573              		.loc 1 173 46 discriminator 1 view .LVU178
 574 026a 0C4B     		ldr	r3, .L58+4
 575 026c 1868     		ldr	r0, [r3]
 576 026e FFF7FEFF 		bl	TL2_isGreen
 577              	.LVL40:
 173:Core/Src/Traffic_Light.c ****                     bits = TL2_Green(bits, false);
 578              		.loc 1 173 41 discriminator 1 view .LVU179
 579 0272 0028     		cmp	r0, #0
 580 0274 7FF418AF 		bne	.L22
 174:Core/Src/Traffic_Light.c ****                     bits = TL2_Red(bits, false);
 581              		.loc 1 174 21 is_stmt 1 view .LVU180
 174:Core/Src/Traffic_Light.c ****                     bits = TL2_Red(bits, false);
 582              		.loc 1 174 28 is_stmt 0 view .LVU181
 583 0278 084C     		ldr	r4, .L58+4
 584 027a 0021     		movs	r1, #0
 585 027c 2068     		ldr	r0, [r4]
 586 027e FFF7FEFF 		bl	TL2_Green
 587              	.LVL41:
 174:Core/Src/Traffic_Light.c ****                     bits = TL2_Red(bits, false);
 588              		.loc 1 174 26 view .LVU182
 589 0282 2060     		str	r0, [r4]
ARM GAS  C:\Users\ehgre\AppData\Local\Temp\cccn2f6p.s 			page 18


 175:Core/Src/Traffic_Light.c ****                     bits = TL2_Yellow(bits, true);
 590              		.loc 1 175 21 is_stmt 1 view .LVU183
 175:Core/Src/Traffic_Light.c ****                     bits = TL2_Yellow(bits, true);
 591              		.loc 1 175 28 is_stmt 0 view .LVU184
 592 0284 0021     		movs	r1, #0
 593 0286 FFF7FEFF 		bl	TL2_Red
 594              	.LVL42:
 175:Core/Src/Traffic_Light.c ****                     bits = TL2_Yellow(bits, true);
 595              		.loc 1 175 26 view .LVU185
 596 028a 2060     		str	r0, [r4]
 176:Core/Src/Traffic_Light.c ****                 }else{
 597              		.loc 1 176 21 is_stmt 1 view .LVU186
 176:Core/Src/Traffic_Light.c ****                 }else{
 598              		.loc 1 176 28 is_stmt 0 view .LVU187
 599 028c 0121     		movs	r1, #1
 600 028e FFF7FEFF 		bl	TL2_Yellow
 601              	.LVL43:
 176:Core/Src/Traffic_Light.c ****                 }else{
 602              		.loc 1 176 26 view .LVU188
 603 0292 2060     		str	r0, [r4]
 604 0294 16E7     		b	.L21
 605              	.L59:
 606 0296 00BF     		.align	2
 607              	.L58:
 608 0298 00000000 		.word	htim16
 609 029c 00000000 		.word	bits
 610 02a0 00000000 		.word	NLWaitingState
 611 02a4 00040048 		.word	1207960576
 612 02a8 00000000 		.word	TLYellowDelay
 613 02ac 00000000 		.word	C3
 614 02b0 00000000 		.word	C4
 615 02b4 00000000 		.word	CW1
 616 02b8 00000000 		.word	CW2
 617 02bc 00000000 		.word	brightness
 618 02c0 00000000 		.word	noLaneWaiting
 619 02c4 00000000 		.word	NLWaitingDelay
 620 02c8 00000000 		.word	PLBlueDelay
 621 02cc 00000000 		.word	C1
 622 02d0 00000000 		.word	C2
 623              	.L20:
 184:Core/Src/Traffic_Light.c ****                     bits = TL2_Green(bits, false);
 624              		.loc 1 184 17 is_stmt 1 view .LVU189
 184:Core/Src/Traffic_Light.c ****                     bits = TL2_Green(bits, false);
 625              		.loc 1 184 35 is_stmt 0 view .LVU190
 626 02d4 934B     		ldr	r3, .L60
 627 02d6 1B78     		ldrb	r3, [r3]	@ zero_extendqisi2
 184:Core/Src/Traffic_Light.c ****                     bits = TL2_Green(bits, false);
 628              		.loc 1 184 19 view .LVU191
 629 02d8 23B1     		cbz	r3, .L23
 184:Core/Src/Traffic_Light.c ****                     bits = TL2_Green(bits, false);
 630              		.loc 1 184 46 discriminator 1 view .LVU192
 631 02da 934B     		ldr	r3, .L60+4
 632 02dc 1868     		ldr	r0, [r3]
 633 02de FFF7FEFF 		bl	TL2_isRed
 634              	.LVL44:
 184:Core/Src/Traffic_Light.c ****                     bits = TL2_Green(bits, false);
 635              		.loc 1 184 41 discriminator 1 view .LVU193
ARM GAS  C:\Users\ehgre\AppData\Local\Temp\cccn2f6p.s 			page 19


 636 02e2 70B1     		cbz	r0, .L55
 637              	.L23:
 189:Core/Src/Traffic_Light.c ****                     bits = TL2_Red(bits, true);
 638              		.loc 1 189 21 is_stmt 1 view .LVU194
 189:Core/Src/Traffic_Light.c ****                     bits = TL2_Red(bits, true);
 639              		.loc 1 189 28 is_stmt 0 view .LVU195
 640 02e4 904C     		ldr	r4, .L60+4
 641 02e6 0021     		movs	r1, #0
 642 02e8 2068     		ldr	r0, [r4]
 643 02ea FFF7FEFF 		bl	TL2_Green
 644              	.LVL45:
 189:Core/Src/Traffic_Light.c ****                     bits = TL2_Red(bits, true);
 645              		.loc 1 189 26 view .LVU196
 646 02ee 2060     		str	r0, [r4]
 190:Core/Src/Traffic_Light.c ****                     bits = TL2_Yellow(bits, false);
 647              		.loc 1 190 21 is_stmt 1 view .LVU197
 190:Core/Src/Traffic_Light.c ****                     bits = TL2_Yellow(bits, false);
 648              		.loc 1 190 28 is_stmt 0 view .LVU198
 649 02f0 0121     		movs	r1, #1
 650 02f2 FFF7FEFF 		bl	TL2_Red
 651              	.LVL46:
 190:Core/Src/Traffic_Light.c ****                     bits = TL2_Yellow(bits, false);
 652              		.loc 1 190 26 view .LVU199
 653 02f6 2060     		str	r0, [r4]
 191:Core/Src/Traffic_Light.c ****                 }
 654              		.loc 1 191 21 is_stmt 1 view .LVU200
 191:Core/Src/Traffic_Light.c ****                 }
 655              		.loc 1 191 28 is_stmt 0 view .LVU201
 656 02f8 0021     		movs	r1, #0
 657 02fa FFF7FEFF 		bl	TL2_Yellow
 658              	.LVL47:
 191:Core/Src/Traffic_Light.c ****                 }
 659              		.loc 1 191 26 view .LVU202
 660 02fe 2060     		str	r0, [r4]
 661 0300 E0E6     		b	.L21
 662              	.L55:
 185:Core/Src/Traffic_Light.c ****                     bits = TL2_Red(bits, false);
 663              		.loc 1 185 21 is_stmt 1 view .LVU203
 185:Core/Src/Traffic_Light.c ****                     bits = TL2_Red(bits, false);
 664              		.loc 1 185 28 is_stmt 0 view .LVU204
 665 0302 894C     		ldr	r4, .L60+4
 666 0304 0021     		movs	r1, #0
 667 0306 2068     		ldr	r0, [r4]
 668 0308 FFF7FEFF 		bl	TL2_Green
 669              	.LVL48:
 185:Core/Src/Traffic_Light.c ****                     bits = TL2_Red(bits, false);
 670              		.loc 1 185 26 view .LVU205
 671 030c 2060     		str	r0, [r4]
 186:Core/Src/Traffic_Light.c ****                     bits = TL2_Yellow(bits, true);
 672              		.loc 1 186 21 is_stmt 1 view .LVU206
 186:Core/Src/Traffic_Light.c ****                     bits = TL2_Yellow(bits, true);
 673              		.loc 1 186 28 is_stmt 0 view .LVU207
 674 030e 0021     		movs	r1, #0
 675 0310 FFF7FEFF 		bl	TL2_Red
 676              	.LVL49:
 186:Core/Src/Traffic_Light.c ****                     bits = TL2_Yellow(bits, true);
 677              		.loc 1 186 26 view .LVU208
ARM GAS  C:\Users\ehgre\AppData\Local\Temp\cccn2f6p.s 			page 20


 678 0314 2060     		str	r0, [r4]
 187:Core/Src/Traffic_Light.c ****                 }else{
 679              		.loc 1 187 21 is_stmt 1 view .LVU209
 187:Core/Src/Traffic_Light.c ****                 }else{
 680              		.loc 1 187 28 is_stmt 0 view .LVU210
 681 0316 0121     		movs	r1, #1
 682 0318 FFF7FEFF 		bl	TL2_Yellow
 683              	.LVL50:
 187:Core/Src/Traffic_Light.c ****                 }else{
 684              		.loc 1 187 26 view .LVU211
 685 031c 2060     		str	r0, [r4]
 686 031e D1E6     		b	.L21
 687              	.L50:
 201:Core/Src/Traffic_Light.c ****                     bits = TL3_Red(bits, false);
 688              		.loc 1 201 21 is_stmt 1 view .LVU212
 201:Core/Src/Traffic_Light.c ****                     bits = TL3_Red(bits, false);
 689              		.loc 1 201 28 is_stmt 0 view .LVU213
 690 0320 814C     		ldr	r4, .L60+4
 691 0322 0021     		movs	r1, #0
 692 0324 2068     		ldr	r0, [r4]
 693 0326 FFF7FEFF 		bl	TL3_Green
 694              	.LVL51:
 201:Core/Src/Traffic_Light.c ****                     bits = TL3_Red(bits, false);
 695              		.loc 1 201 26 view .LVU214
 696 032a 2060     		str	r0, [r4]
 202:Core/Src/Traffic_Light.c ****                     bits = TL3_Yellow(bits, true);
 697              		.loc 1 202 21 is_stmt 1 view .LVU215
 202:Core/Src/Traffic_Light.c ****                     bits = TL3_Yellow(bits, true);
 698              		.loc 1 202 28 is_stmt 0 view .LVU216
 699 032c 0021     		movs	r1, #0
 700 032e FFF7FEFF 		bl	TL3_Red
 701              	.LVL52:
 202:Core/Src/Traffic_Light.c ****                     bits = TL3_Yellow(bits, true);
 702              		.loc 1 202 26 view .LVU217
 703 0332 2060     		str	r0, [r4]
 203:Core/Src/Traffic_Light.c ****                 }else{
 704              		.loc 1 203 21 is_stmt 1 view .LVU218
 203:Core/Src/Traffic_Light.c ****                 }else{
 705              		.loc 1 203 28 is_stmt 0 view .LVU219
 706 0334 0121     		movs	r1, #1
 707 0336 FFF7FEFF 		bl	TL3_Yellow
 708              	.LVL53:
 203:Core/Src/Traffic_Light.c ****                 }else{
 709              		.loc 1 203 26 view .LVU220
 710 033a 2060     		str	r0, [r4]
 711 033c E1E6     		b	.L25
 712              	.L24:
 211:Core/Src/Traffic_Light.c ****                     bits = TL3_Green(bits, false);
 713              		.loc 1 211 17 is_stmt 1 view .LVU221
 211:Core/Src/Traffic_Light.c ****                     bits = TL3_Green(bits, false);
 714              		.loc 1 211 35 is_stmt 0 view .LVU222
 715 033e 794B     		ldr	r3, .L60
 716 0340 1B78     		ldrb	r3, [r3]	@ zero_extendqisi2
 211:Core/Src/Traffic_Light.c ****                     bits = TL3_Green(bits, false);
 717              		.loc 1 211 19 view .LVU223
 718 0342 23B1     		cbz	r3, .L27
 211:Core/Src/Traffic_Light.c ****                     bits = TL3_Green(bits, false);
ARM GAS  C:\Users\ehgre\AppData\Local\Temp\cccn2f6p.s 			page 21


 719              		.loc 1 211 45 discriminator 1 view .LVU224
 720 0344 784B     		ldr	r3, .L60+4
 721 0346 1868     		ldr	r0, [r3]
 722 0348 FFF7FEFF 		bl	TL3_isRed
 723              	.LVL54:
 211:Core/Src/Traffic_Light.c ****                     bits = TL3_Green(bits, false);
 724              		.loc 1 211 40 discriminator 1 view .LVU225
 725 034c 70B1     		cbz	r0, .L56
 726              	.L27:
 216:Core/Src/Traffic_Light.c ****                     bits = TL3_Red(bits, true);
 727              		.loc 1 216 21 is_stmt 1 view .LVU226
 216:Core/Src/Traffic_Light.c ****                     bits = TL3_Red(bits, true);
 728              		.loc 1 216 28 is_stmt 0 view .LVU227
 729 034e 764C     		ldr	r4, .L60+4
 730 0350 0021     		movs	r1, #0
 731 0352 2068     		ldr	r0, [r4]
 732 0354 FFF7FEFF 		bl	TL3_Green
 733              	.LVL55:
 216:Core/Src/Traffic_Light.c ****                     bits = TL3_Red(bits, true);
 734              		.loc 1 216 26 view .LVU228
 735 0358 2060     		str	r0, [r4]
 217:Core/Src/Traffic_Light.c ****                     bits = TL3_Yellow(bits, false);
 736              		.loc 1 217 21 is_stmt 1 view .LVU229
 217:Core/Src/Traffic_Light.c ****                     bits = TL3_Yellow(bits, false);
 737              		.loc 1 217 28 is_stmt 0 view .LVU230
 738 035a 0121     		movs	r1, #1
 739 035c FFF7FEFF 		bl	TL3_Red
 740              	.LVL56:
 217:Core/Src/Traffic_Light.c ****                     bits = TL3_Yellow(bits, false);
 741              		.loc 1 217 26 view .LVU231
 742 0360 2060     		str	r0, [r4]
 218:Core/Src/Traffic_Light.c ****                 }
 743              		.loc 1 218 21 is_stmt 1 view .LVU232
 218:Core/Src/Traffic_Light.c ****                 }
 744              		.loc 1 218 28 is_stmt 0 view .LVU233
 745 0362 0021     		movs	r1, #0
 746 0364 FFF7FEFF 		bl	TL3_Yellow
 747              	.LVL57:
 218:Core/Src/Traffic_Light.c ****                 }
 748              		.loc 1 218 26 view .LVU234
 749 0368 2060     		str	r0, [r4]
 750 036a CAE6     		b	.L25
 751              	.L56:
 212:Core/Src/Traffic_Light.c ****                     bits = TL3_Red(bits, false);
 752              		.loc 1 212 21 is_stmt 1 view .LVU235
 212:Core/Src/Traffic_Light.c ****                     bits = TL3_Red(bits, false);
 753              		.loc 1 212 28 is_stmt 0 view .LVU236
 754 036c 6E4C     		ldr	r4, .L60+4
 755 036e 0021     		movs	r1, #0
 756 0370 2068     		ldr	r0, [r4]
 757 0372 FFF7FEFF 		bl	TL3_Green
 758              	.LVL58:
 212:Core/Src/Traffic_Light.c ****                     bits = TL3_Red(bits, false);
 759              		.loc 1 212 26 view .LVU237
 760 0376 2060     		str	r0, [r4]
 213:Core/Src/Traffic_Light.c ****                     bits = TL3_Yellow(bits, true);
 761              		.loc 1 213 21 is_stmt 1 view .LVU238
ARM GAS  C:\Users\ehgre\AppData\Local\Temp\cccn2f6p.s 			page 22


 213:Core/Src/Traffic_Light.c ****                     bits = TL3_Yellow(bits, true);
 762              		.loc 1 213 28 is_stmt 0 view .LVU239
 763 0378 0021     		movs	r1, #0
 764 037a FFF7FEFF 		bl	TL3_Red
 765              	.LVL59:
 213:Core/Src/Traffic_Light.c ****                     bits = TL3_Yellow(bits, true);
 766              		.loc 1 213 26 view .LVU240
 767 037e 2060     		str	r0, [r4]
 214:Core/Src/Traffic_Light.c ****                 }else{
 768              		.loc 1 214 21 is_stmt 1 view .LVU241
 214:Core/Src/Traffic_Light.c ****                 }else{
 769              		.loc 1 214 28 is_stmt 0 view .LVU242
 770 0380 0121     		movs	r1, #1
 771 0382 FFF7FEFF 		bl	TL3_Yellow
 772              	.LVL60:
 214:Core/Src/Traffic_Light.c ****                 }else{
 773              		.loc 1 214 26 view .LVU243
 774 0386 2060     		str	r0, [r4]
 775 0388 BBE6     		b	.L25
 776              	.L51:
 228:Core/Src/Traffic_Light.c ****                     bits = TL4_Red(bits, false);
 777              		.loc 1 228 21 is_stmt 1 view .LVU244
 228:Core/Src/Traffic_Light.c ****                     bits = TL4_Red(bits, false);
 778              		.loc 1 228 28 is_stmt 0 view .LVU245
 779 038a 674C     		ldr	r4, .L60+4
 780 038c 0021     		movs	r1, #0
 781 038e 2068     		ldr	r0, [r4]
 782 0390 FFF7FEFF 		bl	TL4_Green
 783              	.LVL61:
 228:Core/Src/Traffic_Light.c ****                     bits = TL4_Red(bits, false);
 784              		.loc 1 228 26 view .LVU246
 785 0394 2060     		str	r0, [r4]
 229:Core/Src/Traffic_Light.c ****                     bits = TL4_Yellow(bits, true);
 786              		.loc 1 229 21 is_stmt 1 view .LVU247
 229:Core/Src/Traffic_Light.c ****                     bits = TL4_Yellow(bits, true);
 787              		.loc 1 229 28 is_stmt 0 view .LVU248
 788 0396 0021     		movs	r1, #0
 789 0398 FFF7FEFF 		bl	TL4_Red
 790              	.LVL62:
 229:Core/Src/Traffic_Light.c ****                     bits = TL4_Yellow(bits, true);
 791              		.loc 1 229 26 view .LVU249
 792 039c 2060     		str	r0, [r4]
 230:Core/Src/Traffic_Light.c ****                 }else{
 793              		.loc 1 230 21 is_stmt 1 view .LVU250
 230:Core/Src/Traffic_Light.c ****                 }else{
 794              		.loc 1 230 28 is_stmt 0 view .LVU251
 795 039e 0121     		movs	r1, #1
 796 03a0 FFF7FEFF 		bl	TL4_Yellow
 797              	.LVL63:
 230:Core/Src/Traffic_Light.c ****                 }else{
 798              		.loc 1 230 26 view .LVU252
 799 03a4 2060     		str	r0, [r4]
 800 03a6 CBE6     		b	.L29
 801              	.L28:
 238:Core/Src/Traffic_Light.c ****                     bits = TL4_Green(bits, false);
 802              		.loc 1 238 17 is_stmt 1 view .LVU253
 238:Core/Src/Traffic_Light.c ****                     bits = TL4_Green(bits, false);
ARM GAS  C:\Users\ehgre\AppData\Local\Temp\cccn2f6p.s 			page 23


 803              		.loc 1 238 35 is_stmt 0 view .LVU254
 804 03a8 5E4B     		ldr	r3, .L60
 805 03aa 1B78     		ldrb	r3, [r3]	@ zero_extendqisi2
 238:Core/Src/Traffic_Light.c ****                     bits = TL4_Green(bits, false);
 806              		.loc 1 238 19 view .LVU255
 807 03ac 23B1     		cbz	r3, .L31
 238:Core/Src/Traffic_Light.c ****                     bits = TL4_Green(bits, false);
 808              		.loc 1 238 46 discriminator 1 view .LVU256
 809 03ae 5E4B     		ldr	r3, .L60+4
 810 03b0 1868     		ldr	r0, [r3]
 811 03b2 FFF7FEFF 		bl	TL4_isRed
 812              	.LVL64:
 238:Core/Src/Traffic_Light.c ****                     bits = TL4_Green(bits, false);
 813              		.loc 1 238 41 discriminator 1 view .LVU257
 814 03b6 70B1     		cbz	r0, .L57
 815              	.L31:
 243:Core/Src/Traffic_Light.c ****                     bits = TL4_Red(bits, true);
 816              		.loc 1 243 21 is_stmt 1 view .LVU258
 243:Core/Src/Traffic_Light.c ****                     bits = TL4_Red(bits, true);
 817              		.loc 1 243 28 is_stmt 0 view .LVU259
 818 03b8 5B4C     		ldr	r4, .L60+4
 819 03ba 0021     		movs	r1, #0
 820 03bc 2068     		ldr	r0, [r4]
 821 03be FFF7FEFF 		bl	TL4_Green
 822              	.LVL65:
 243:Core/Src/Traffic_Light.c ****                     bits = TL4_Red(bits, true);
 823              		.loc 1 243 26 view .LVU260
 824 03c2 2060     		str	r0, [r4]
 244:Core/Src/Traffic_Light.c ****                     bits = TL4_Yellow(bits, false);
 825              		.loc 1 244 21 is_stmt 1 view .LVU261
 244:Core/Src/Traffic_Light.c ****                     bits = TL4_Yellow(bits, false);
 826              		.loc 1 244 28 is_stmt 0 view .LVU262
 827 03c4 0121     		movs	r1, #1
 828 03c6 FFF7FEFF 		bl	TL4_Red
 829              	.LVL66:
 244:Core/Src/Traffic_Light.c ****                     bits = TL4_Yellow(bits, false);
 830              		.loc 1 244 26 view .LVU263
 831 03ca 2060     		str	r0, [r4]
 245:Core/Src/Traffic_Light.c ****                 }
 832              		.loc 1 245 21 is_stmt 1 view .LVU264
 245:Core/Src/Traffic_Light.c ****                 }
 833              		.loc 1 245 28 is_stmt 0 view .LVU265
 834 03cc 0021     		movs	r1, #0
 835 03ce FFF7FEFF 		bl	TL4_Yellow
 836              	.LVL67:
 245:Core/Src/Traffic_Light.c ****                 }
 837              		.loc 1 245 26 view .LVU266
 838 03d2 2060     		str	r0, [r4]
 839 03d4 B4E6     		b	.L29
 840              	.L57:
 239:Core/Src/Traffic_Light.c ****                     bits = TL4_Red(bits, false);
 841              		.loc 1 239 21 is_stmt 1 view .LVU267
 239:Core/Src/Traffic_Light.c ****                     bits = TL4_Red(bits, false);
 842              		.loc 1 239 28 is_stmt 0 view .LVU268
 843 03d6 544C     		ldr	r4, .L60+4
 844 03d8 0021     		movs	r1, #0
 845 03da 2068     		ldr	r0, [r4]
ARM GAS  C:\Users\ehgre\AppData\Local\Temp\cccn2f6p.s 			page 24


 846 03dc FFF7FEFF 		bl	TL4_Green
 847              	.LVL68:
 239:Core/Src/Traffic_Light.c ****                     bits = TL4_Red(bits, false);
 848              		.loc 1 239 26 view .LVU269
 849 03e0 2060     		str	r0, [r4]
 240:Core/Src/Traffic_Light.c ****                     bits = TL4_Yellow(bits, true);
 850              		.loc 1 240 21 is_stmt 1 view .LVU270
 240:Core/Src/Traffic_Light.c ****                     bits = TL4_Yellow(bits, true);
 851              		.loc 1 240 28 is_stmt 0 view .LVU271
 852 03e2 0021     		movs	r1, #0
 853 03e4 FFF7FEFF 		bl	TL4_Red
 854              	.LVL69:
 240:Core/Src/Traffic_Light.c ****                     bits = TL4_Yellow(bits, true);
 855              		.loc 1 240 26 view .LVU272
 856 03e8 2060     		str	r0, [r4]
 241:Core/Src/Traffic_Light.c ****                 }else{
 857              		.loc 1 241 21 is_stmt 1 view .LVU273
 241:Core/Src/Traffic_Light.c ****                 }else{
 858              		.loc 1 241 28 is_stmt 0 view .LVU274
 859 03ea 0121     		movs	r1, #1
 860 03ec FFF7FEFF 		bl	TL4_Yellow
 861              	.LVL70:
 241:Core/Src/Traffic_Light.c ****                 }else{
 862              		.loc 1 241 26 view .LVU275
 863 03f0 2060     		str	r0, [r4]
 864 03f2 A5E6     		b	.L29
 865              	.L32:
 254:Core/Src/Traffic_Light.c ****                     C1 = TLRed;
 866              		.loc 1 254 17 is_stmt 1 view .LVU276
 254:Core/Src/Traffic_Light.c ****                     C1 = TLRed;
 867              		.loc 1 254 24 is_stmt 0 view .LVU277
 868 03f4 4D4B     		ldr	r3, .L60+8
 869 03f6 1B78     		ldrb	r3, [r3]	@ zero_extendqisi2
 254:Core/Src/Traffic_Light.c ****                     C1 = TLRed;
 870              		.loc 1 254 19 view .LVU278
 871 03f8 2BB9     		cbnz	r3, .L36
 254:Core/Src/Traffic_Light.c ****                     C1 = TLRed;
 872              		.loc 1 254 41 discriminator 1 view .LVU279
 873 03fa 4D4B     		ldr	r3, .L60+12
 874 03fc 1B78     		ldrb	r3, [r3]	@ zero_extendqisi2
 254:Core/Src/Traffic_Light.c ****                     C1 = TLRed;
 875              		.loc 1 254 34 discriminator 1 view .LVU280
 876 03fe 13B9     		cbnz	r3, .L36
 254:Core/Src/Traffic_Light.c ****                     C1 = TLRed;
 877              		.loc 1 254 58 discriminator 2 view .LVU281
 878 0400 4C4B     		ldr	r3, .L60+16
 879 0402 1B78     		ldrb	r3, [r3]	@ zero_extendqisi2
 254:Core/Src/Traffic_Light.c ****                     C1 = TLRed;
 880              		.loc 1 254 51 discriminator 2 view .LVU282
 881 0404 53B1     		cbz	r3, .L37
 882              	.L36:
 255:Core/Src/Traffic_Light.c ****                     C3 = TLRed;
 883              		.loc 1 255 21 is_stmt 1 view .LVU283
 255:Core/Src/Traffic_Light.c ****                     C3 = TLRed;
 884              		.loc 1 255 24 is_stmt 0 view .LVU284
 885 0406 0023     		movs	r3, #0
 886 0408 484A     		ldr	r2, .L60+8
ARM GAS  C:\Users\ehgre\AppData\Local\Temp\cccn2f6p.s 			page 25


 887 040a 1370     		strb	r3, [r2]
 256:Core/Src/Traffic_Light.c ****                     C4 = TLRed;
 888              		.loc 1 256 21 is_stmt 1 view .LVU285
 256:Core/Src/Traffic_Light.c ****                     C4 = TLRed;
 889              		.loc 1 256 24 is_stmt 0 view .LVU286
 890 040c 484A     		ldr	r2, .L60+12
 891 040e 1370     		strb	r3, [r2]
 257:Core/Src/Traffic_Light.c ****                     TLYellowDelay = orangeDelay+1;
 892              		.loc 1 257 21 is_stmt 1 view .LVU287
 257:Core/Src/Traffic_Light.c ****                     TLYellowDelay = orangeDelay+1;
 893              		.loc 1 257 24 is_stmt 0 view .LVU288
 894 0410 484A     		ldr	r2, .L60+16
 895 0412 1370     		strb	r3, [r2]
 258:Core/Src/Traffic_Light.c ****                 }else{
 896              		.loc 1 258 21 is_stmt 1 view .LVU289
 258:Core/Src/Traffic_Light.c ****                 }else{
 897              		.loc 1 258 35 is_stmt 0 view .LVU290
 898 0414 434B     		ldr	r3, .L60
 899 0416 0222     		movs	r2, #2
 900 0418 1A70     		strb	r2, [r3]
 901 041a 9CE6     		b	.L35
 902              	.L37:
 260:Core/Src/Traffic_Light.c ****                         if(PLGreenDelay > 0){
 903              		.loc 1 260 21 is_stmt 1 view .LVU291
 260:Core/Src/Traffic_Light.c ****                         if(PLGreenDelay > 0){
 904              		.loc 1 260 38 is_stmt 0 view .LVU292
 905 041c 414B     		ldr	r3, .L60
 906 041e 1B78     		ldrb	r3, [r3]	@ zero_extendqisi2
 260:Core/Src/Traffic_Light.c ****                         if(PLGreenDelay > 0){
 907              		.loc 1 260 23 view .LVU293
 908 0420 002B     		cmp	r3, #0
 909 0422 7FF498AE 		bne	.L35
 261:Core/Src/Traffic_Light.c ****                             bits = PL1_Green(bits, true);
 910              		.loc 1 261 25 is_stmt 1 view .LVU294
 261:Core/Src/Traffic_Light.c ****                             bits = PL1_Green(bits, true);
 911              		.loc 1 261 41 is_stmt 0 view .LVU295
 912 0426 444B     		ldr	r3, .L60+20
 913 0428 1B78     		ldrb	r3, [r3]	@ zero_extendqisi2
 261:Core/Src/Traffic_Light.c ****                             bits = PL1_Green(bits, true);
 914              		.loc 1 261 27 view .LVU296
 915 042a 53B1     		cbz	r3, .L38
 262:Core/Src/Traffic_Light.c ****                             bits = PL1_Red(bits, false);
 916              		.loc 1 262 29 is_stmt 1 view .LVU297
 262:Core/Src/Traffic_Light.c ****                             bits = PL1_Red(bits, false);
 917              		.loc 1 262 36 is_stmt 0 view .LVU298
 918 042c 3E4C     		ldr	r4, .L60+4
 919 042e 0121     		movs	r1, #1
 920 0430 2068     		ldr	r0, [r4]
 921 0432 FFF7FEFF 		bl	PL1_Green
 922              	.LVL71:
 262:Core/Src/Traffic_Light.c ****                             bits = PL1_Red(bits, false);
 923              		.loc 1 262 34 view .LVU299
 924 0436 2060     		str	r0, [r4]
 263:Core/Src/Traffic_Light.c ****                         }else{
 925              		.loc 1 263 29 is_stmt 1 view .LVU300
 263:Core/Src/Traffic_Light.c ****                         }else{
 926              		.loc 1 263 36 is_stmt 0 view .LVU301
ARM GAS  C:\Users\ehgre\AppData\Local\Temp\cccn2f6p.s 			page 26


 927 0438 0021     		movs	r1, #0
 928 043a FFF7FEFF 		bl	PL1_Red
 929              	.LVL72:
 263:Core/Src/Traffic_Light.c ****                         }else{
 930              		.loc 1 263 34 view .LVU302
 931 043e 2060     		str	r0, [r4]
 932 0440 89E6     		b	.L35
 933              	.L38:
 265:Core/Src/Traffic_Light.c ****                             bits = PL1_Green(bits, false);
 934              		.loc 1 265 29 is_stmt 1 view .LVU303
 265:Core/Src/Traffic_Light.c ****                             bits = PL1_Green(bits, false);
 935              		.loc 1 265 33 is_stmt 0 view .LVU304
 936 0442 0021     		movs	r1, #0
 937 0444 3D4B     		ldr	r3, .L60+24
 938 0446 1970     		strb	r1, [r3]
 266:Core/Src/Traffic_Light.c ****                             bits = PL1_Red(bits, true);
 939              		.loc 1 266 29 is_stmt 1 view .LVU305
 266:Core/Src/Traffic_Light.c ****                             bits = PL1_Red(bits, true);
 940              		.loc 1 266 36 is_stmt 0 view .LVU306
 941 0448 374C     		ldr	r4, .L60+4
 942 044a 2068     		ldr	r0, [r4]
 943 044c FFF7FEFF 		bl	PL1_Green
 944              	.LVL73:
 266:Core/Src/Traffic_Light.c ****                             bits = PL1_Red(bits, true);
 945              		.loc 1 266 34 view .LVU307
 946 0450 2060     		str	r0, [r4]
 267:Core/Src/Traffic_Light.c ****                         }
 947              		.loc 1 267 29 is_stmt 1 view .LVU308
 267:Core/Src/Traffic_Light.c ****                         }
 948              		.loc 1 267 36 is_stmt 0 view .LVU309
 949 0452 0121     		movs	r1, #1
 950 0454 FFF7FEFF 		bl	PL1_Red
 951              	.LVL74:
 267:Core/Src/Traffic_Light.c ****                         }
 952              		.loc 1 267 34 view .LVU310
 953 0458 2060     		str	r0, [r4]
 954 045a 7CE6     		b	.L35
 955              	.L33:
 273:Core/Src/Traffic_Light.c ****                     if((msTick % (uint16_t)(toggleFreq*10)) == 0){
 956              		.loc 1 273 17 is_stmt 1 view .LVU311
 273:Core/Src/Traffic_Light.c ****                     if((msTick % (uint16_t)(toggleFreq*10)) == 0){
 957              		.loc 1 273 32 is_stmt 0 view .LVU312
 958 045c 384B     		ldr	r3, .L60+28
 959 045e 1B78     		ldrb	r3, [r3]	@ zero_extendqisi2
 273:Core/Src/Traffic_Light.c ****                     if((msTick % (uint16_t)(toggleFreq*10)) == 0){
 960              		.loc 1 273 19 view .LVU313
 961 0460 9BB1     		cbz	r3, .L39
 274:Core/Src/Traffic_Light.c ****                         bits = PL1_Blue_Toggle(bits);
 962              		.loc 1 274 21 is_stmt 1 view .LVU314
 274:Core/Src/Traffic_Light.c ****                         bits = PL1_Blue_Toggle(bits);
 963              		.loc 1 274 61 is_stmt 0 view .LVU315
 964 0462 384B     		ldr	r3, .L60+32
 965 0464 1B88     		ldrh	r3, [r3]
 966 0466 384A     		ldr	r2, .L60+36
 967 0468 A2FB0312 		umull	r1, r2, r2, r3
 968 046c D209     		lsrs	r2, r2, #7
 969 046e 4FF4FA61 		mov	r1, #2000
ARM GAS  C:\Users\ehgre\AppData\Local\Temp\cccn2f6p.s 			page 27


 970 0472 01FB1233 		mls	r3, r1, r2, r3
 971 0476 9BB2     		uxth	r3, r3
 274:Core/Src/Traffic_Light.c ****                         bits = PL1_Blue_Toggle(bits);
 972              		.loc 1 274 23 view .LVU316
 973 0478 002B     		cmp	r3, #0
 974 047a 7FF46CAE 		bne	.L35
 275:Core/Src/Traffic_Light.c ****                     }
 975              		.loc 1 275 25 is_stmt 1 view .LVU317
 275:Core/Src/Traffic_Light.c ****                     }
 976              		.loc 1 275 32 is_stmt 0 view .LVU318
 977 047e 2A4C     		ldr	r4, .L60+4
 978 0480 2068     		ldr	r0, [r4]
 979 0482 FFF7FEFF 		bl	PL1_Blue_Toggle
 980              	.LVL75:
 275:Core/Src/Traffic_Light.c ****                     }
 981              		.loc 1 275 30 view .LVU319
 982 0486 2060     		str	r0, [r4]
 983 0488 65E6     		b	.L35
 984              	.L39:
 278:Core/Src/Traffic_Light.c ****                     PLGreenDelay = walkingDelay;
 985              		.loc 1 278 21 is_stmt 1 view .LVU320
 278:Core/Src/Traffic_Light.c ****                     PLGreenDelay = walkingDelay;
 986              		.loc 1 278 25 is_stmt 0 view .LVU321
 987 048a 2C4B     		ldr	r3, .L60+24
 988 048c 0122     		movs	r2, #1
 989 048e 1A70     		strb	r2, [r3]
 279:Core/Src/Traffic_Light.c ****                     bits = PL1_Blue(bits, false);
 990              		.loc 1 279 21 is_stmt 1 view .LVU322
 279:Core/Src/Traffic_Light.c ****                     bits = PL1_Blue(bits, false);
 991              		.loc 1 279 34 is_stmt 0 view .LVU323
 992 0490 294B     		ldr	r3, .L60+20
 993 0492 0A22     		movs	r2, #10
 994 0494 1A70     		strb	r2, [r3]
 280:Core/Src/Traffic_Light.c ****                 }
 995              		.loc 1 280 21 is_stmt 1 view .LVU324
 280:Core/Src/Traffic_Light.c ****                 }
 996              		.loc 1 280 28 is_stmt 0 view .LVU325
 997 0496 244C     		ldr	r4, .L60+4
 998 0498 0021     		movs	r1, #0
 999 049a 2068     		ldr	r0, [r4]
 1000 049c FFF7FEFF 		bl	PL1_Blue
 1001              	.LVL76:
 280:Core/Src/Traffic_Light.c ****                 }
 1002              		.loc 1 280 26 view .LVU326
 1003 04a0 2060     		str	r0, [r4]
 1004 04a2 58E6     		b	.L35
 1005              	.L52:
 284:Core/Src/Traffic_Light.c ****                 bits = PL1_Green(bits,false);
 1006              		.loc 1 284 17 is_stmt 1 view .LVU327
 284:Core/Src/Traffic_Light.c ****                 bits = PL1_Green(bits,false);
 1007              		.loc 1 284 24 is_stmt 0 view .LVU328
 1008 04a4 204C     		ldr	r4, .L60+4
 1009 04a6 0121     		movs	r1, #1
 1010 04a8 2068     		ldr	r0, [r4]
 1011 04aa FFF7FEFF 		bl	PL1_Red
 1012              	.LVL77:
 284:Core/Src/Traffic_Light.c ****                 bits = PL1_Green(bits,false);
ARM GAS  C:\Users\ehgre\AppData\Local\Temp\cccn2f6p.s 			page 28


 1013              		.loc 1 284 22 view .LVU329
 1014 04ae 2060     		str	r0, [r4]
 285:Core/Src/Traffic_Light.c ****                 break;
 1015              		.loc 1 285 17 is_stmt 1 view .LVU330
 285:Core/Src/Traffic_Light.c ****                 break;
 1016              		.loc 1 285 24 is_stmt 0 view .LVU331
 1017 04b0 0021     		movs	r1, #0
 1018 04b2 FFF7FEFF 		bl	PL1_Green
 1019              	.LVL78:
 285:Core/Src/Traffic_Light.c ****                 break;
 1020              		.loc 1 285 22 view .LVU332
 1021 04b6 2060     		str	r0, [r4]
 286:Core/Src/Traffic_Light.c ****             default:
 1022              		.loc 1 286 17 is_stmt 1 view .LVU333
 1023 04b8 4DE6     		b	.L35
 1024              	.L40:
 292:Core/Src/Traffic_Light.c ****             case PLGreen:
 293:Core/Src/Traffic_Light.c ****                 if((C4 != TLRed) || (C2 != TLRed) || (C3 != TLRed)){
 1025              		.loc 1 293 17 view .LVU334
 1026              		.loc 1 293 24 is_stmt 0 view .LVU335
 1027 04ba 1E4B     		ldr	r3, .L60+16
 1028 04bc 1B78     		ldrb	r3, [r3]	@ zero_extendqisi2
 1029              		.loc 1 293 19 view .LVU336
 1030 04be 2BB9     		cbnz	r3, .L44
 1031              		.loc 1 293 41 discriminator 1 view .LVU337
 1032 04c0 224B     		ldr	r3, .L60+40
 1033 04c2 1B78     		ldrb	r3, [r3]	@ zero_extendqisi2
 1034              		.loc 1 293 34 discriminator 1 view .LVU338
 1035 04c4 13B9     		cbnz	r3, .L44
 1036              		.loc 1 293 58 discriminator 2 view .LVU339
 1037 04c6 1A4B     		ldr	r3, .L60+12
 1038 04c8 1B78     		ldrb	r3, [r3]	@ zero_extendqisi2
 1039              		.loc 1 293 51 discriminator 2 view .LVU340
 1040 04ca 53B1     		cbz	r3, .L45
 1041              	.L44:
 294:Core/Src/Traffic_Light.c ****                     C2 = TLRed;
 1042              		.loc 1 294 21 is_stmt 1 view .LVU341
 1043              		.loc 1 294 24 is_stmt 0 view .LVU342
 1044 04cc 0023     		movs	r3, #0
 1045 04ce 1F4A     		ldr	r2, .L60+40
 1046 04d0 1370     		strb	r3, [r2]
 295:Core/Src/Traffic_Light.c ****                     C3 = TLRed;
 1047              		.loc 1 295 21 is_stmt 1 view .LVU343
 1048              		.loc 1 295 24 is_stmt 0 view .LVU344
 1049 04d2 174A     		ldr	r2, .L60+12
 1050 04d4 1370     		strb	r3, [r2]
 296:Core/Src/Traffic_Light.c ****                     C4 = TLRed;
 1051              		.loc 1 296 21 is_stmt 1 view .LVU345
 1052              		.loc 1 296 24 is_stmt 0 view .LVU346
 1053 04d6 174A     		ldr	r2, .L60+16
 1054 04d8 1370     		strb	r3, [r2]
 297:Core/Src/Traffic_Light.c ****                     TLYellowDelay = orangeDelay+1;
 1055              		.loc 1 297 21 is_stmt 1 view .LVU347
 1056              		.loc 1 297 35 is_stmt 0 view .LVU348
 1057 04da 124B     		ldr	r3, .L60
 1058 04dc 0222     		movs	r2, #2
 1059 04de 1A70     		strb	r2, [r3]
ARM GAS  C:\Users\ehgre\AppData\Local\Temp\cccn2f6p.s 			page 29


 1060 04e0 44E6     		b	.L5
 1061              	.L45:
 298:Core/Src/Traffic_Light.c ****                 }else{
 299:Core/Src/Traffic_Light.c ****                     if(TLYellowDelay == 0){
 1062              		.loc 1 299 21 is_stmt 1 view .LVU349
 1063              		.loc 1 299 38 is_stmt 0 view .LVU350
 1064 04e2 104B     		ldr	r3, .L60
 1065 04e4 1B78     		ldrb	r3, [r3]	@ zero_extendqisi2
 1066              		.loc 1 299 23 view .LVU351
 1067 04e6 002B     		cmp	r3, #0
 1068 04e8 7FF440AE 		bne	.L5
 300:Core/Src/Traffic_Light.c ****                         if(PLGreenDelay > 0){
 1069              		.loc 1 300 25 is_stmt 1 view .LVU352
 1070              		.loc 1 300 41 is_stmt 0 view .LVU353
 1071 04ec 124B     		ldr	r3, .L60+20
 1072 04ee 1B78     		ldrb	r3, [r3]	@ zero_extendqisi2
 1073              		.loc 1 300 27 view .LVU354
 1074 04f0 53B1     		cbz	r3, .L46
 301:Core/Src/Traffic_Light.c ****                             bits = PL2_Green(bits, true);
 1075              		.loc 1 301 29 is_stmt 1 view .LVU355
 1076              		.loc 1 301 36 is_stmt 0 view .LVU356
 1077 04f2 0D4C     		ldr	r4, .L60+4
 1078 04f4 0121     		movs	r1, #1
 1079 04f6 2068     		ldr	r0, [r4]
 1080 04f8 FFF7FEFF 		bl	PL2_Green
 1081              	.LVL79:
 1082              		.loc 1 301 34 view .LVU357
 1083 04fc 2060     		str	r0, [r4]
 302:Core/Src/Traffic_Light.c ****                             bits = PL2_Red(bits, false);
 1084              		.loc 1 302 29 is_stmt 1 view .LVU358
 1085              		.loc 1 302 36 is_stmt 0 view .LVU359
 1086 04fe 0021     		movs	r1, #0
 1087 0500 FFF7FEFF 		bl	PL2_Red
 1088              	.LVL80:
 1089              		.loc 1 302 34 view .LVU360
 1090 0504 2060     		str	r0, [r4]
 1091 0506 31E6     		b	.L5
 1092              	.L46:
 303:Core/Src/Traffic_Light.c ****                         }else{
 304:Core/Src/Traffic_Light.c ****                             CW2 = PLRed;
 1093              		.loc 1 304 29 is_stmt 1 view .LVU361
 1094              		.loc 1 304 33 is_stmt 0 view .LVU362
 1095 0508 0021     		movs	r1, #0
 1096 050a 114B     		ldr	r3, .L60+44
 1097 050c 1970     		strb	r1, [r3]
 305:Core/Src/Traffic_Light.c ****                             bits = PL2_Green(bits, false);
 1098              		.loc 1 305 29 is_stmt 1 view .LVU363
 1099              		.loc 1 305 36 is_stmt 0 view .LVU364
 1100 050e 064C     		ldr	r4, .L60+4
 1101 0510 2068     		ldr	r0, [r4]
 1102 0512 FFF7FEFF 		bl	PL2_Green
 1103              	.LVL81:
 1104              		.loc 1 305 34 view .LVU365
 1105 0516 2060     		str	r0, [r4]
 306:Core/Src/Traffic_Light.c ****                             bits = PL2_Red(bits, true);
 1106              		.loc 1 306 29 is_stmt 1 view .LVU366
 1107              		.loc 1 306 36 is_stmt 0 view .LVU367
ARM GAS  C:\Users\ehgre\AppData\Local\Temp\cccn2f6p.s 			page 30


 1108 0518 0121     		movs	r1, #1
 1109 051a FFF7FEFF 		bl	PL2_Red
 1110              	.LVL82:
 1111              		.loc 1 306 34 view .LVU368
 1112 051e 2060     		str	r0, [r4]
 1113 0520 24E6     		b	.L5
 1114              	.L61:
 1115 0522 00BF     		.align	2
 1116              	.L60:
 1117 0524 00000000 		.word	TLYellowDelay
 1118 0528 00000000 		.word	bits
 1119 052c 00000000 		.word	C1
 1120 0530 00000000 		.word	C3
 1121 0534 00000000 		.word	C4
 1122 0538 00000000 		.word	PLGreenDelay
 1123 053c 00000000 		.word	CW1
 1124 0540 00000000 		.word	PLBlueDelay
 1125 0544 00000000 		.word	msTick
 1126 0548 D34D6210 		.word	274877907
 1127 054c 00000000 		.word	C2
 1128 0550 00000000 		.word	CW2
 1129              	.L41:
 307:Core/Src/Traffic_Light.c ****                         }
 308:Core/Src/Traffic_Light.c ****                     }
 309:Core/Src/Traffic_Light.c ****                 }
 310:Core/Src/Traffic_Light.c ****                 break;
 311:Core/Src/Traffic_Light.c ****             case PLBlue:
 312:Core/Src/Traffic_Light.c ****                 if(PLBlueDelay > 0){
 1130              		.loc 1 312 17 is_stmt 1 view .LVU369
 1131              		.loc 1 312 32 is_stmt 0 view .LVU370
 1132 0554 174B     		ldr	r3, .L62
 1133 0556 1B78     		ldrb	r3, [r3]	@ zero_extendqisi2
 1134              		.loc 1 312 19 view .LVU371
 1135 0558 9BB1     		cbz	r3, .L47
 313:Core/Src/Traffic_Light.c ****                     if((msTick % (uint16_t)(toggleFreq*10)) == 0){
 1136              		.loc 1 313 21 is_stmt 1 view .LVU372
 1137              		.loc 1 313 61 is_stmt 0 view .LVU373
 1138 055a 174B     		ldr	r3, .L62+4
 1139 055c 1B88     		ldrh	r3, [r3]
 1140 055e 174A     		ldr	r2, .L62+8
 1141 0560 A2FB0312 		umull	r1, r2, r2, r3
 1142 0564 D209     		lsrs	r2, r2, #7
 1143 0566 4FF4FA61 		mov	r1, #2000
 1144 056a 01FB1233 		mls	r3, r1, r2, r3
 1145 056e 9BB2     		uxth	r3, r3
 1146              		.loc 1 313 23 view .LVU374
 1147 0570 002B     		cmp	r3, #0
 1148 0572 7FF4FBAD 		bne	.L5
 314:Core/Src/Traffic_Light.c ****                         bits = PL2_Blue_Toggle(bits);
 1149              		.loc 1 314 25 is_stmt 1 view .LVU375
 1150              		.loc 1 314 32 is_stmt 0 view .LVU376
 1151 0576 124C     		ldr	r4, .L62+12
 1152 0578 2068     		ldr	r0, [r4]
 1153 057a FFF7FEFF 		bl	PL2_Blue_Toggle
 1154              	.LVL83:
 1155              		.loc 1 314 30 view .LVU377
 1156 057e 2060     		str	r0, [r4]
ARM GAS  C:\Users\ehgre\AppData\Local\Temp\cccn2f6p.s 			page 31


 1157 0580 F4E5     		b	.L5
 1158              	.L47:
 315:Core/Src/Traffic_Light.c ****                     }
 316:Core/Src/Traffic_Light.c ****                 }else{
 317:Core/Src/Traffic_Light.c ****                     CW2 = PLGreen;
 1159              		.loc 1 317 21 is_stmt 1 view .LVU378
 1160              		.loc 1 317 25 is_stmt 0 view .LVU379
 1161 0582 104B     		ldr	r3, .L62+16
 1162 0584 0122     		movs	r2, #1
 1163 0586 1A70     		strb	r2, [r3]
 318:Core/Src/Traffic_Light.c ****                     PLGreenDelay = walkingDelay;
 1164              		.loc 1 318 21 is_stmt 1 view .LVU380
 1165              		.loc 1 318 34 is_stmt 0 view .LVU381
 1166 0588 0F4B     		ldr	r3, .L62+20
 1167 058a 0A22     		movs	r2, #10
 1168 058c 1A70     		strb	r2, [r3]
 319:Core/Src/Traffic_Light.c ****                     bits = PL2_Blue(bits, false);
 1169              		.loc 1 319 21 is_stmt 1 view .LVU382
 1170              		.loc 1 319 28 is_stmt 0 view .LVU383
 1171 058e 0C4C     		ldr	r4, .L62+12
 1172 0590 0021     		movs	r1, #0
 1173 0592 2068     		ldr	r0, [r4]
 1174 0594 FFF7FEFF 		bl	PL2_Blue
 1175              	.LVL84:
 1176              		.loc 1 319 26 view .LVU384
 1177 0598 2060     		str	r0, [r4]
 1178 059a E7E5     		b	.L5
 1179              	.L53:
 320:Core/Src/Traffic_Light.c ****                 }
 321:Core/Src/Traffic_Light.c ****                 break;
 322:Core/Src/Traffic_Light.c ****             case PLRed:
 323:Core/Src/Traffic_Light.c ****                 bits = PL2_Red(bits,true);
 1180              		.loc 1 323 17 is_stmt 1 view .LVU385
 1181              		.loc 1 323 24 is_stmt 0 view .LVU386
 1182 059c 084C     		ldr	r4, .L62+12
 1183 059e 0121     		movs	r1, #1
 1184 05a0 2068     		ldr	r0, [r4]
 1185 05a2 FFF7FEFF 		bl	PL2_Red
 1186              	.LVL85:
 1187              		.loc 1 323 22 view .LVU387
 1188 05a6 2060     		str	r0, [r4]
 324:Core/Src/Traffic_Light.c ****                 bits = PL2_Green(bits,false);
 1189              		.loc 1 324 17 is_stmt 1 view .LVU388
 1190              		.loc 1 324 24 is_stmt 0 view .LVU389
 1191 05a8 0021     		movs	r1, #0
 1192 05aa FFF7FEFF 		bl	PL2_Green
 1193              	.LVL86:
 1194              		.loc 1 324 22 view .LVU390
 1195 05ae 2060     		str	r0, [r4]
 325:Core/Src/Traffic_Light.c ****                 break;
 1196              		.loc 1 325 17 is_stmt 1 view .LVU391
 1197 05b0 DCE5     		b	.L5
 1198              	.L63:
 1199 05b2 00BF     		.align	2
 1200              	.L62:
 1201 05b4 00000000 		.word	PLBlueDelay
 1202 05b8 00000000 		.word	msTick
ARM GAS  C:\Users\ehgre\AppData\Local\Temp\cccn2f6p.s 			page 32


 1203 05bc D34D6210 		.word	274877907
 1204 05c0 00000000 		.word	bits
 1205 05c4 00000000 		.word	CW2
 1206 05c8 00000000 		.word	PLGreenDelay
 1207              		.cfi_endproc
 1208              	.LFE321:
 1210              		.section	.text.HAL_TIM_PeriodElapsedCallback,"ax",%progbits
 1211              		.align	1
 1212              		.global	HAL_TIM_PeriodElapsedCallback
 1213              		.syntax unified
 1214              		.thumb
 1215              		.thumb_func
 1217              	HAL_TIM_PeriodElapsedCallback:
 1218              	.LVL87:
 1219              	.LFB322:
 326:Core/Src/Traffic_Light.c ****             default:
 327:Core/Src/Traffic_Light.c ****                 break;
 328:Core/Src/Traffic_Light.c ****         }
 329:Core/Src/Traffic_Light.c ****     }
 330:Core/Src/Traffic_Light.c **** }
 331:Core/Src/Traffic_Light.c **** 
 332:Core/Src/Traffic_Light.c **** void HAL_TIM_PeriodElapsedCallback(TIM_HandleTypeDef *htim){
 1220              		.loc 1 332 60 view -0
 1221              		.cfi_startproc
 1222              		@ args = 0, pretend = 0, frame = 0
 1223              		@ frame_needed = 0, uses_anonymous_args = 0
 1224              		.loc 1 332 60 is_stmt 0 view .LVU393
 1225 0000 08B5     		push	{r3, lr}
 1226              	.LCFI1:
 1227              		.cfi_def_cfa_offset 8
 1228              		.cfi_offset 3, -8
 1229              		.cfi_offset 14, -4
 333:Core/Src/Traffic_Light.c ****     if(htim == &htim16){
 1230              		.loc 1 333 5 is_stmt 1 view .LVU394
 1231              		.loc 1 333 7 is_stmt 0 view .LVU395
 1232 0002 5F4B     		ldr	r3, .L86
 1233 0004 8342     		cmp	r3, r0
 1234 0006 00D0     		beq	.L81
 1235              	.LVL88:
 1236              	.L64:
 334:Core/Src/Traffic_Light.c ****         if(msTick >= 10000){ //1 second
 335:Core/Src/Traffic_Light.c **** 
 336:Core/Src/Traffic_Light.c ****             HAL_GPIO_TogglePin(USR_LED1_GPIO_Port, USR_LED1_Pin);
 337:Core/Src/Traffic_Light.c **** 
 338:Core/Src/Traffic_Light.c ****             if(TLYellowDelay > 0){
 339:Core/Src/Traffic_Light.c ****                 TLYellowDelay--;
 340:Core/Src/Traffic_Light.c ****             }
 341:Core/Src/Traffic_Light.c **** 
 342:Core/Src/Traffic_Light.c ****             if(NLWaitingDelay > 0){
 343:Core/Src/Traffic_Light.c ****                 NLWaitingDelay--;
 344:Core/Src/Traffic_Light.c ****                 if(NLWaitingState == G1){
 345:Core/Src/Traffic_Light.c ****                     Show_G1Bar(true, (100 - ((NLWaitingDelay*100)/greenDelay)));
 346:Core/Src/Traffic_Light.c ****                 }else{
 347:Core/Src/Traffic_Light.c ****                     Show_G2Bar(true, (100 - ((NLWaitingDelay*100)/greenDelay)));
 348:Core/Src/Traffic_Light.c ****                 }
 349:Core/Src/Traffic_Light.c ****             }
 350:Core/Src/Traffic_Light.c **** 
ARM GAS  C:\Users\ehgre\AppData\Local\Temp\cccn2f6p.s 			page 33


 351:Core/Src/Traffic_Light.c ****             if(PLBlueDelay > 0){
 352:Core/Src/Traffic_Light.c ****                 PLBlueDelay--;
 353:Core/Src/Traffic_Light.c ****                 if(CW1 == PLBlue){
 354:Core/Src/Traffic_Light.c ****                     Show_P1Bar(true, (100 - ((PLBlueDelay*100)/pedestrianDelay)));
 355:Core/Src/Traffic_Light.c ****                 }
 356:Core/Src/Traffic_Light.c ****                 if(CW2 == PLBlue){
 357:Core/Src/Traffic_Light.c ****                     Show_P2Bar(true, (100 - ((PLBlueDelay*100)/pedestrianDelay)));
 358:Core/Src/Traffic_Light.c ****                 }
 359:Core/Src/Traffic_Light.c ****             }else{
 360:Core/Src/Traffic_Light.c ****                 if(PLGreenDelay > 0){
 361:Core/Src/Traffic_Light.c ****                     PLGreenDelay--;
 362:Core/Src/Traffic_Light.c ****                     if(CW1 == PLGreen){
 363:Core/Src/Traffic_Light.c ****                         Show_W1Bar(true, (100 - ((PLGreenDelay*100)/walkingDelay)));
 364:Core/Src/Traffic_Light.c ****                     }
 365:Core/Src/Traffic_Light.c ****                     if(CW2 == PLGreen){
 366:Core/Src/Traffic_Light.c ****                         Show_W2Bar(true, (100 - ((PLGreenDelay*100)/walkingDelay)));
 367:Core/Src/Traffic_Light.c ****                     }
 368:Core/Src/Traffic_Light.c ****                 }else{
 369:Core/Src/Traffic_Light.c ****                     Show_W1Bar(true, 0);
 370:Core/Src/Traffic_Light.c ****                     Show_W2Bar(true, 0);
 371:Core/Src/Traffic_Light.c ****                 }
 372:Core/Src/Traffic_Light.c ****                 Show_P1Bar(true, 0);
 373:Core/Src/Traffic_Light.c ****                 Show_P2Bar(true, 0);
 374:Core/Src/Traffic_Light.c ****             }
 375:Core/Src/Traffic_Light.c **** 
 376:Core/Src/Traffic_Light.c ****             msTick = 1;
 377:Core/Src/Traffic_Light.c ****         }else{
 378:Core/Src/Traffic_Light.c ****             msTick++;
 379:Core/Src/Traffic_Light.c ****         }
 380:Core/Src/Traffic_Light.c **** 
 381:Core/Src/Traffic_Light.c ****         if(Tick >= 100){ //10 ms
 382:Core/Src/Traffic_Light.c ****             Tick = 1;
 383:Core/Src/Traffic_Light.c ****         }else{
 384:Core/Src/Traffic_Light.c ****             Tick++;
 385:Core/Src/Traffic_Light.c ****         }
 386:Core/Src/Traffic_Light.c **** 
 387:Core/Src/Traffic_Light.c ****         if(Tick > brightness){
 388:Core/Src/Traffic_Light.c ****             HAL_GPIO_WritePin(Enable_595_GPIO_Port, Enable_595_Pin, GPIO_PIN_SET);
 389:Core/Src/Traffic_Light.c ****         }else{
 390:Core/Src/Traffic_Light.c ****             HAL_GPIO_WritePin(Enable_595_GPIO_Port, Enable_595_Pin, GPIO_PIN_RESET);
 391:Core/Src/Traffic_Light.c ****         }
 392:Core/Src/Traffic_Light.c **** 
 393:Core/Src/Traffic_Light.c ****     }
 394:Core/Src/Traffic_Light.c **** }...
 1237              		.loc 1 394 1 view .LVU396
 1238 0008 08BD     		pop	{r3, pc}
 1239              	.LVL89:
 1240              	.L81:
 334:Core/Src/Traffic_Light.c ****         if(msTick >= 10000){ //1 second
 1241              		.loc 1 334 9 is_stmt 1 view .LVU397
 334:Core/Src/Traffic_Light.c ****         if(msTick >= 10000){ //1 second
 1242              		.loc 1 334 19 is_stmt 0 view .LVU398
 1243 000a 5E4B     		ldr	r3, .L86+4
 1244 000c 1B88     		ldrh	r3, [r3]
 334:Core/Src/Traffic_Light.c ****         if(msTick >= 10000){ //1 second
 1245              		.loc 1 334 11 view .LVU399
 1246 000e 42F20F72 		movw	r2, #9999
ARM GAS  C:\Users\ehgre\AppData\Local\Temp\cccn2f6p.s 			page 34


 1247 0012 9342     		cmp	r3, r2
 1248 0014 17D8     		bhi	.L82
 378:Core/Src/Traffic_Light.c ****             msTick++;
 1249              		.loc 1 378 13 is_stmt 1 view .LVU400
 378:Core/Src/Traffic_Light.c ****             msTick++;
 1250              		.loc 1 378 19 is_stmt 0 view .LVU401
 1251 0016 0133     		adds	r3, r3, #1
 1252 0018 5A4A     		ldr	r2, .L86+4
 1253 001a 1380     		strh	r3, [r2]	@ movhi
 1254              	.LVL90:
 1255              	.L76:
 381:Core/Src/Traffic_Light.c ****         if(Tick >= 100){ //10 ms
 1256              		.loc 1 381 9 is_stmt 1 view .LVU402
 381:Core/Src/Traffic_Light.c ****         if(Tick >= 100){ //10 ms
 1257              		.loc 1 381 17 is_stmt 0 view .LVU403
 1258 001c 5A4B     		ldr	r3, .L86+8
 1259 001e 1B78     		ldrb	r3, [r3]	@ zero_extendqisi2
 381:Core/Src/Traffic_Light.c ****         if(Tick >= 100){ //10 ms
 1260              		.loc 1 381 11 view .LVU404
 1261 0020 632B     		cmp	r3, #99
 1262 0022 40F2A280 		bls	.L77
 382:Core/Src/Traffic_Light.c ****             Tick = 1;
 1263              		.loc 1 382 13 is_stmt 1 view .LVU405
 382:Core/Src/Traffic_Light.c ****             Tick = 1;
 1264              		.loc 1 382 18 is_stmt 0 view .LVU406
 1265 0026 584B     		ldr	r3, .L86+8
 1266 0028 0122     		movs	r2, #1
 1267 002a 1A70     		strb	r2, [r3]
 1268              	.L78:
 387:Core/Src/Traffic_Light.c ****         if(Tick > brightness){
 1269              		.loc 1 387 9 is_stmt 1 view .LVU407
 387:Core/Src/Traffic_Light.c ****         if(Tick > brightness){
 1270              		.loc 1 387 17 is_stmt 0 view .LVU408
 1271 002c 564B     		ldr	r3, .L86+8
 1272 002e 1A78     		ldrb	r2, [r3]	@ zero_extendqisi2
 1273 0030 564B     		ldr	r3, .L86+12
 1274 0032 1B78     		ldrb	r3, [r3]	@ zero_extendqisi2
 387:Core/Src/Traffic_Light.c ****         if(Tick > brightness){
 1275              		.loc 1 387 11 view .LVU409
 1276 0034 9A42     		cmp	r2, r3
 1277 0036 40F29C80 		bls	.L79
 388:Core/Src/Traffic_Light.c ****             HAL_GPIO_WritePin(Enable_595_GPIO_Port, Enable_595_Pin, GPIO_PIN_SET);
 1278              		.loc 1 388 13 is_stmt 1 view .LVU410
 1279 003a 0122     		movs	r2, #1
 1280 003c 8021     		movs	r1, #128
 1281 003e 5448     		ldr	r0, .L86+16
 1282 0040 FFF7FEFF 		bl	HAL_GPIO_WritePin
 1283              	.LVL91:
 1284 0044 E0E7     		b	.L64
 1285              	.LVL92:
 1286              	.L82:
 336:Core/Src/Traffic_Light.c ****             HAL_GPIO_TogglePin(USR_LED1_GPIO_Port, USR_LED1_Pin);
 1287              		.loc 1 336 13 view .LVU411
 1288 0046 0421     		movs	r1, #4
 1289 0048 5248     		ldr	r0, .L86+20
 1290              	.LVL93:
 336:Core/Src/Traffic_Light.c ****             HAL_GPIO_TogglePin(USR_LED1_GPIO_Port, USR_LED1_Pin);
ARM GAS  C:\Users\ehgre\AppData\Local\Temp\cccn2f6p.s 			page 35


 1291              		.loc 1 336 13 is_stmt 0 view .LVU412
 1292 004a FFF7FEFF 		bl	HAL_GPIO_TogglePin
 1293              	.LVL94:
 338:Core/Src/Traffic_Light.c ****             if(TLYellowDelay > 0){
 1294              		.loc 1 338 13 is_stmt 1 view .LVU413
 338:Core/Src/Traffic_Light.c ****             if(TLYellowDelay > 0){
 1295              		.loc 1 338 30 is_stmt 0 view .LVU414
 1296 004e 524B     		ldr	r3, .L86+24
 1297 0050 1B78     		ldrb	r3, [r3]	@ zero_extendqisi2
 338:Core/Src/Traffic_Light.c ****             if(TLYellowDelay > 0){
 1298              		.loc 1 338 15 view .LVU415
 1299 0052 13B1     		cbz	r3, .L67
 339:Core/Src/Traffic_Light.c ****                 TLYellowDelay--;
 1300              		.loc 1 339 17 is_stmt 1 view .LVU416
 339:Core/Src/Traffic_Light.c ****                 TLYellowDelay--;
 1301              		.loc 1 339 30 is_stmt 0 view .LVU417
 1302 0054 013B     		subs	r3, r3, #1
 1303 0056 504A     		ldr	r2, .L86+24
 1304 0058 1370     		strb	r3, [r2]
 1305              	.L67:
 342:Core/Src/Traffic_Light.c ****             if(NLWaitingDelay > 0){
 1306              		.loc 1 342 13 is_stmt 1 view .LVU418
 342:Core/Src/Traffic_Light.c ****             if(NLWaitingDelay > 0){
 1307              		.loc 1 342 31 is_stmt 0 view .LVU419
 1308 005a 504B     		ldr	r3, .L86+28
 1309 005c 1B78     		ldrb	r3, [r3]	@ zero_extendqisi2
 342:Core/Src/Traffic_Light.c ****             if(NLWaitingDelay > 0){
 1310              		.loc 1 342 15 view .LVU420
 1311 005e 8BB1     		cbz	r3, .L68
 343:Core/Src/Traffic_Light.c ****                 NLWaitingDelay--;
 1312              		.loc 1 343 17 is_stmt 1 view .LVU421
 343:Core/Src/Traffic_Light.c ****                 NLWaitingDelay--;
 1313              		.loc 1 343 31 is_stmt 0 view .LVU422
 1314 0060 013B     		subs	r3, r3, #1
 1315 0062 DBB2     		uxtb	r3, r3
 1316 0064 4D4A     		ldr	r2, .L86+28
 1317 0066 1370     		strb	r3, [r2]
 344:Core/Src/Traffic_Light.c ****                 if(NLWaitingState == G1){
 1318              		.loc 1 344 17 is_stmt 1 view .LVU423
 344:Core/Src/Traffic_Light.c ****                 if(NLWaitingState == G1){
 1319              		.loc 1 344 35 is_stmt 0 view .LVU424
 1320 0068 4D4A     		ldr	r2, .L86+32
 1321 006a 1278     		ldrb	r2, [r2]	@ zero_extendqisi2
 344:Core/Src/Traffic_Light.c ****                 if(NLWaitingState == G1){
 1322              		.loc 1 344 19 view .LVU425
 1323 006c 3ABB     		cbnz	r2, .L69
 345:Core/Src/Traffic_Light.c ****                     Show_G1Bar(true, (100 - ((NLWaitingDelay*100)/greenDelay)));
 1324              		.loc 1 345 21 is_stmt 1 view .LVU426
 1325 006e C3EB0312 		rsb	r2, r3, r3, lsl #4
 1326 0072 C3EB8201 		rsb	r1, r3, r2, lsl #2
 1327 0076 8900     		lsls	r1, r1, #2
 1328 0078 6431     		adds	r1, r1, #100
 1329 007a 01F0FC01 		and	r1, r1, #252
 1330 007e 0120     		movs	r0, #1
 1331 0080 FFF7FEFF 		bl	Show_G1Bar
 1332              	.LVL95:
 1333              	.L68:
ARM GAS  C:\Users\ehgre\AppData\Local\Temp\cccn2f6p.s 			page 36


 351:Core/Src/Traffic_Light.c ****             if(PLBlueDelay > 0){
 1334              		.loc 1 351 13 view .LVU427
 351:Core/Src/Traffic_Light.c ****             if(PLBlueDelay > 0){
 1335              		.loc 1 351 28 is_stmt 0 view .LVU428
 1336 0084 474B     		ldr	r3, .L86+36
 1337 0086 1B78     		ldrb	r3, [r3]	@ zero_extendqisi2
 351:Core/Src/Traffic_Light.c ****             if(PLBlueDelay > 0){
 1338              		.loc 1 351 15 view .LVU429
 1339 0088 8BB3     		cbz	r3, .L70
 352:Core/Src/Traffic_Light.c ****                 PLBlueDelay--;
 1340              		.loc 1 352 17 is_stmt 1 view .LVU430
 352:Core/Src/Traffic_Light.c ****                 PLBlueDelay--;
 1341              		.loc 1 352 28 is_stmt 0 view .LVU431
 1342 008a 013B     		subs	r3, r3, #1
 1343 008c DBB2     		uxtb	r3, r3
 1344 008e 454A     		ldr	r2, .L86+36
 1345 0090 1370     		strb	r3, [r2]
 353:Core/Src/Traffic_Light.c ****                 if(CW1 == PLBlue){
 1346              		.loc 1 353 17 is_stmt 1 view .LVU432
 353:Core/Src/Traffic_Light.c ****                 if(CW1 == PLBlue){
 1347              		.loc 1 353 24 is_stmt 0 view .LVU433
 1348 0092 454A     		ldr	r2, .L86+40
 1349 0094 1278     		ldrb	r2, [r2]	@ zero_extendqisi2
 353:Core/Src/Traffic_Light.c ****                 if(CW1 == PLBlue){
 1350              		.loc 1 353 19 view .LVU434
 1351 0096 022A     		cmp	r2, #2
 1352 0098 1DD0     		beq	.L83
 1353              	.L71:
 356:Core/Src/Traffic_Light.c ****                 if(CW2 == PLBlue){
 1354              		.loc 1 356 17 is_stmt 1 view .LVU435
 356:Core/Src/Traffic_Light.c ****                 if(CW2 == PLBlue){
 1355              		.loc 1 356 24 is_stmt 0 view .LVU436
 1356 009a 444B     		ldr	r3, .L86+44
 1357 009c 1B78     		ldrb	r3, [r3]	@ zero_extendqisi2
 356:Core/Src/Traffic_Light.c ****                 if(CW2 == PLBlue){
 1358              		.loc 1 356 19 view .LVU437
 1359 009e 022B     		cmp	r3, #2
 1360 00a0 3CD1     		bne	.L72
 357:Core/Src/Traffic_Light.c ****                     Show_P2Bar(true, (100 - ((PLBlueDelay*100)/pedestrianDelay)));
 1361              		.loc 1 357 21 is_stmt 1 view .LVU438
 1362 00a2 404B     		ldr	r3, .L86+36
 1363 00a4 1B78     		ldrb	r3, [r3]	@ zero_extendqisi2
 1364 00a6 C3EB0312 		rsb	r2, r3, r3, lsl #4
 1365 00aa C3EB8201 		rsb	r1, r3, r2, lsl #2
 1366 00ae 8900     		lsls	r1, r1, #2
 1367 00b0 6431     		adds	r1, r1, #100
 1368 00b2 01F0FC01 		and	r1, r1, #252
 1369 00b6 0120     		movs	r0, #1
 1370 00b8 FFF7FEFF 		bl	Show_P2Bar
 1371              	.LVL96:
 1372 00bc 2EE0     		b	.L72
 1373              	.L69:
 347:Core/Src/Traffic_Light.c ****                     Show_G2Bar(true, (100 - ((NLWaitingDelay*100)/greenDelay)));
 1374              		.loc 1 347 21 view .LVU439
 1375 00be C3EB0312 		rsb	r2, r3, r3, lsl #4
 1376 00c2 C3EB8201 		rsb	r1, r3, r2, lsl #2
 1377 00c6 8900     		lsls	r1, r1, #2
ARM GAS  C:\Users\ehgre\AppData\Local\Temp\cccn2f6p.s 			page 37


 1378 00c8 6431     		adds	r1, r1, #100
 1379 00ca 01F0FC01 		and	r1, r1, #252
 1380 00ce 0120     		movs	r0, #1
 1381 00d0 FFF7FEFF 		bl	Show_G2Bar
 1382              	.LVL97:
 1383 00d4 D6E7     		b	.L68
 1384              	.L83:
 354:Core/Src/Traffic_Light.c ****                     Show_P1Bar(true, (100 - ((PLBlueDelay*100)/pedestrianDelay)));
 1385              		.loc 1 354 21 view .LVU440
 1386 00d6 C3EB0312 		rsb	r2, r3, r3, lsl #4
 1387 00da C3EB8201 		rsb	r1, r3, r2, lsl #2
 1388 00de 8900     		lsls	r1, r1, #2
 1389 00e0 6431     		adds	r1, r1, #100
 1390 00e2 01F0FC01 		and	r1, r1, #252
 1391 00e6 0120     		movs	r0, #1
 1392 00e8 FFF7FEFF 		bl	Show_P1Bar
 1393              	.LVL98:
 1394 00ec D5E7     		b	.L71
 1395              	.L70:
 360:Core/Src/Traffic_Light.c ****                 if(PLGreenDelay > 0){
 1396              		.loc 1 360 17 view .LVU441
 360:Core/Src/Traffic_Light.c ****                 if(PLGreenDelay > 0){
 1397              		.loc 1 360 33 is_stmt 0 view .LVU442
 1398 00ee 304B     		ldr	r3, .L86+48
 1399 00f0 1B78     		ldrb	r3, [r3]	@ zero_extendqisi2
 360:Core/Src/Traffic_Light.c ****                 if(PLGreenDelay > 0){
 1400              		.loc 1 360 19 view .LVU443
 1401 00f2 8BB3     		cbz	r3, .L73
 361:Core/Src/Traffic_Light.c ****                     PLGreenDelay--;
 1402              		.loc 1 361 21 is_stmt 1 view .LVU444
 361:Core/Src/Traffic_Light.c ****                     PLGreenDelay--;
 1403              		.loc 1 361 33 is_stmt 0 view .LVU445
 1404 00f4 013B     		subs	r3, r3, #1
 1405 00f6 DBB2     		uxtb	r3, r3
 1406 00f8 2D4A     		ldr	r2, .L86+48
 1407 00fa 1370     		strb	r3, [r2]
 362:Core/Src/Traffic_Light.c ****                     if(CW1 == PLGreen){
 1408              		.loc 1 362 21 is_stmt 1 view .LVU446
 362:Core/Src/Traffic_Light.c ****                     if(CW1 == PLGreen){
 1409              		.loc 1 362 28 is_stmt 0 view .LVU447
 1410 00fc 2A4A     		ldr	r2, .L86+40
 1411 00fe 1278     		ldrb	r2, [r2]	@ zero_extendqisi2
 362:Core/Src/Traffic_Light.c ****                     if(CW1 == PLGreen){
 1412              		.loc 1 362 23 view .LVU448
 1413 0100 012A     		cmp	r2, #1
 1414 0102 0FD0     		beq	.L84
 1415              	.L74:
 365:Core/Src/Traffic_Light.c ****                     if(CW2 == PLGreen){
 1416              		.loc 1 365 21 is_stmt 1 view .LVU449
 365:Core/Src/Traffic_Light.c ****                     if(CW2 == PLGreen){
 1417              		.loc 1 365 28 is_stmt 0 view .LVU450
 1418 0104 294B     		ldr	r3, .L86+44
 1419 0106 1B78     		ldrb	r3, [r3]	@ zero_extendqisi2
 365:Core/Src/Traffic_Light.c ****                     if(CW2 == PLGreen){
 1420              		.loc 1 365 23 view .LVU451
 1421 0108 012B     		cmp	r3, #1
 1422 010a 17D0     		beq	.L85
ARM GAS  C:\Users\ehgre\AppData\Local\Temp\cccn2f6p.s 			page 38


 1423              	.L75:
 372:Core/Src/Traffic_Light.c ****                 Show_P1Bar(true, 0);
 1424              		.loc 1 372 17 is_stmt 1 view .LVU452
 1425 010c 0021     		movs	r1, #0
 1426 010e 0120     		movs	r0, #1
 1427 0110 FFF7FEFF 		bl	Show_P1Bar
 1428              	.LVL99:
 373:Core/Src/Traffic_Light.c ****                 Show_P2Bar(true, 0);
 1429              		.loc 1 373 17 view .LVU453
 1430 0114 0021     		movs	r1, #0
 1431 0116 0120     		movs	r0, #1
 1432 0118 FFF7FEFF 		bl	Show_P2Bar
 1433              	.LVL100:
 1434              	.L72:
 376:Core/Src/Traffic_Light.c ****             msTick = 1;
 1435              		.loc 1 376 13 view .LVU454
 376:Core/Src/Traffic_Light.c ****             msTick = 1;
 1436              		.loc 1 376 20 is_stmt 0 view .LVU455
 1437 011c 194B     		ldr	r3, .L86+4
 1438 011e 0122     		movs	r2, #1
 1439 0120 1A80     		strh	r2, [r3]	@ movhi
 1440 0122 7BE7     		b	.L76
 1441              	.L84:
 363:Core/Src/Traffic_Light.c ****                         Show_W1Bar(true, (100 - ((PLGreenDelay*100)/walkingDelay)));
 1442              		.loc 1 363 25 is_stmt 1 view .LVU456
 1443 0124 C3EB4312 		rsb	r2, r3, r3, lsl #5
 1444 0128 C3EB8201 		rsb	r1, r3, r2, lsl #2
 1445 012c 4900     		lsls	r1, r1, #1
 1446 012e 6431     		adds	r1, r1, #100
 1447 0130 01F0FE01 		and	r1, r1, #254
 1448 0134 0120     		movs	r0, #1
 1449 0136 FFF7FEFF 		bl	Show_W1Bar
 1450              	.LVL101:
 1451 013a E3E7     		b	.L74
 1452              	.L85:
 366:Core/Src/Traffic_Light.c ****                         Show_W2Bar(true, (100 - ((PLGreenDelay*100)/walkingDelay)));
 1453              		.loc 1 366 25 view .LVU457
 1454 013c 1C4B     		ldr	r3, .L86+48
 1455 013e 1B78     		ldrb	r3, [r3]	@ zero_extendqisi2
 1456 0140 C3EB4312 		rsb	r2, r3, r3, lsl #5
 1457 0144 C3EB8201 		rsb	r1, r3, r2, lsl #2
 1458 0148 4900     		lsls	r1, r1, #1
 1459 014a 6431     		adds	r1, r1, #100
 1460 014c 01F0FE01 		and	r1, r1, #254
 1461 0150 0120     		movs	r0, #1
 1462 0152 FFF7FEFF 		bl	Show_W2Bar
 1463              	.LVL102:
 1464 0156 D9E7     		b	.L75
 1465              	.L73:
 369:Core/Src/Traffic_Light.c ****                     Show_W1Bar(true, 0);
 1466              		.loc 1 369 21 view .LVU458
 1467 0158 0021     		movs	r1, #0
 1468 015a 0120     		movs	r0, #1
 1469 015c FFF7FEFF 		bl	Show_W1Bar
 1470              	.LVL103:
 370:Core/Src/Traffic_Light.c ****                     Show_W2Bar(true, 0);
 1471              		.loc 1 370 21 view .LVU459
ARM GAS  C:\Users\ehgre\AppData\Local\Temp\cccn2f6p.s 			page 39


 1472 0160 0021     		movs	r1, #0
 1473 0162 0120     		movs	r0, #1
 1474 0164 FFF7FEFF 		bl	Show_W2Bar
 1475              	.LVL104:
 1476 0168 D0E7     		b	.L75
 1477              	.L77:
 384:Core/Src/Traffic_Light.c ****             Tick++;
 1478              		.loc 1 384 13 view .LVU460
 384:Core/Src/Traffic_Light.c ****             Tick++;
 1479              		.loc 1 384 17 is_stmt 0 view .LVU461
 1480 016a 0133     		adds	r3, r3, #1
 1481 016c 064A     		ldr	r2, .L86+8
 1482 016e 1370     		strb	r3, [r2]
 1483 0170 5CE7     		b	.L78
 1484              	.L79:
 390:Core/Src/Traffic_Light.c ****             HAL_GPIO_WritePin(Enable_595_GPIO_Port, Enable_595_Pin, GPIO_PIN_RESET);
 1485              		.loc 1 390 13 is_stmt 1 view .LVU462
 1486 0172 0022     		movs	r2, #0
 1487 0174 8021     		movs	r1, #128
 1488 0176 0648     		ldr	r0, .L86+16
 1489 0178 FFF7FEFF 		bl	HAL_GPIO_WritePin
 1490              	.LVL105:
 1491              		.loc 1 394 1 is_stmt 0 view .LVU463
 1492 017c 44E7     		b	.L64
 1493              	.L87:
 1494 017e 00BF     		.align	2
 1495              	.L86:
 1496 0180 00000000 		.word	htim16
 1497 0184 00000000 		.word	msTick
 1498 0188 00000000 		.word	Tick
 1499 018c 00000000 		.word	brightness
 1500 0190 00080048 		.word	1207961600
 1501 0194 00040048 		.word	1207960576
 1502 0198 00000000 		.word	TLYellowDelay
 1503 019c 00000000 		.word	NLWaitingDelay
 1504 01a0 00000000 		.word	NLWaitingState
 1505 01a4 00000000 		.word	PLBlueDelay
 1506 01a8 00000000 		.word	CW1
 1507 01ac 00000000 		.word	CW2
 1508 01b0 00000000 		.word	PLGreenDelay
 1509              		.cfi_endproc
 1510              	.LFE322:
 1512              		.global	noLaneWaiting
 1513              		.section	.data.noLaneWaiting,"aw"
 1516              	noLaneWaiting:
 1517 0000 01       		.byte	1
 1518              		.global	bits
 1519              		.section	.bss.bits,"aw",%nobits
 1520              		.align	2
 1523              	bits:
 1524 0000 00000000 		.space	4
 1525              		.global	Tick
 1526              		.section	.data.Tick,"aw"
 1529              	Tick:
 1530 0000 01       		.byte	1
 1531              		.global	msTick
 1532              		.section	.data.msTick,"aw"
ARM GAS  C:\Users\ehgre\AppData\Local\Temp\cccn2f6p.s 			page 40


 1533              		.align	1
 1536              	msTick:
 1537 0000 0100     		.short	1
 1538              		.global	NLWaitingDelay
 1539              		.section	.bss.NLWaitingDelay,"aw",%nobits
 1542              	NLWaitingDelay:
 1543 0000 00       		.space	1
 1544              		.global	TLYellowDelay
 1545              		.section	.bss.TLYellowDelay,"aw",%nobits
 1548              	TLYellowDelay:
 1549 0000 00       		.space	1
 1550              		.global	PLGreenDelay
 1551              		.section	.bss.PLGreenDelay,"aw",%nobits
 1554              	PLGreenDelay:
 1555 0000 00       		.space	1
 1556              		.global	PLBlueDelay
 1557              		.section	.bss.PLBlueDelay,"aw",%nobits
 1560              	PLBlueDelay:
 1561 0000 00       		.space	1
 1562              		.global	brightness
 1563              		.section	.bss.brightness,"aw",%nobits
 1566              	brightness:
 1567 0000 00       		.space	1
 1568              		.section	.bss.NLWaitingState,"aw",%nobits
 1571              	NLWaitingState:
 1572 0000 00       		.space	1
 1573              		.section	.bss.CW2,"aw",%nobits
 1576              	CW2:
 1577 0000 00       		.space	1
 1578              		.section	.bss.CW1,"aw",%nobits
 1581              	CW1:
 1582 0000 00       		.space	1
 1583              		.section	.bss.C4,"aw",%nobits
 1586              	C4:
 1587 0000 00       		.space	1
 1588              		.section	.bss.C3,"aw",%nobits
 1591              	C3:
 1592 0000 00       		.space	1
 1593              		.section	.bss.C2,"aw",%nobits
 1596              	C2:
 1597 0000 00       		.space	1
 1598              		.section	.bss.C1,"aw",%nobits
 1601              	C1:
 1602 0000 00       		.space	1
 1603              		.text
 1604              	.Letext0:
 1605              		.file 2 "c:\\users\\ehgre\\desktop\\plugg\\inbyggda system\\tools\\arm-gnu-toolchain-12.2.mpacbti-
 1606              		.file 3 "c:\\users\\ehgre\\desktop\\plugg\\inbyggda system\\tools\\arm-gnu-toolchain-12.2.mpacbti-
 1607              		.file 4 "Drivers/CMSIS/Device/ST/STM32L4xx/Include/stm32l476xx.h"
 1608              		.file 5 "Drivers/STM32L4xx_HAL_Driver/Inc/stm32l4xx_hal_def.h"
 1609              		.file 6 "Drivers/STM32L4xx_HAL_Driver/Inc/stm32l4xx_hal_gpio.h"
 1610              		.file 7 "Drivers/STM32L4xx_HAL_Driver/Inc/stm32l4xx_hal_dma.h"
 1611              		.file 8 "Drivers/STM32L4xx_HAL_Driver/Inc/stm32l4xx_hal_tim.h"
 1612              		.file 9 "Core/Inc/light_logic.h"
 1613              		.file 10 "Core/Inc/tim.h"
 1614              		.file 11 "Core/Inc/OledDelayBars.h"
 1615              		.file 12 "Core/Inc/interactions.h"
ARM GAS  C:\Users\ehgre\AppData\Local\Temp\cccn2f6p.s 			page 41


 1616              		.file 13 "Core/Inc/potentiometer.h"
ARM GAS  C:\Users\ehgre\AppData\Local\Temp\cccn2f6p.s 			page 42


DEFINED SYMBOLS
                            *ABS*:00000000 Traffic_Light.c
C:\Users\ehgre\AppData\Local\Temp\cccn2f6p.s:21     .text.Init_States:00000000 $t
C:\Users\ehgre\AppData\Local\Temp\cccn2f6p.s:27     .text.Init_States:00000000 Init_States
C:\Users\ehgre\AppData\Local\Temp\cccn2f6p.s:69     .text.Init_States:00000024 $d
C:\Users\ehgre\AppData\Local\Temp\cccn2f6p.s:1601   .bss.C1:00000000 C1
C:\Users\ehgre\AppData\Local\Temp\cccn2f6p.s:1596   .bss.C2:00000000 C2
C:\Users\ehgre\AppData\Local\Temp\cccn2f6p.s:1591   .bss.C3:00000000 C3
C:\Users\ehgre\AppData\Local\Temp\cccn2f6p.s:1586   .bss.C4:00000000 C4
C:\Users\ehgre\AppData\Local\Temp\cccn2f6p.s:1581   .bss.CW1:00000000 CW1
C:\Users\ehgre\AppData\Local\Temp\cccn2f6p.s:1576   .bss.CW2:00000000 CW2
C:\Users\ehgre\AppData\Local\Temp\cccn2f6p.s:1571   .bss.NLWaitingState:00000000 NLWaitingState
C:\Users\ehgre\AppData\Local\Temp\cccn2f6p.s:80     .text.traffic_lights:00000000 $t
C:\Users\ehgre\AppData\Local\Temp\cccn2f6p.s:86     .text.traffic_lights:00000000 traffic_lights
C:\Users\ehgre\AppData\Local\Temp\cccn2f6p.s:608    .text.traffic_lights:00000298 $d
C:\Users\ehgre\AppData\Local\Temp\cccn2f6p.s:1523   .bss.bits:00000000 bits
C:\Users\ehgre\AppData\Local\Temp\cccn2f6p.s:1548   .bss.TLYellowDelay:00000000 TLYellowDelay
C:\Users\ehgre\AppData\Local\Temp\cccn2f6p.s:1566   .bss.brightness:00000000 brightness
C:\Users\ehgre\AppData\Local\Temp\cccn2f6p.s:1516   .data.noLaneWaiting:00000000 noLaneWaiting
C:\Users\ehgre\AppData\Local\Temp\cccn2f6p.s:1542   .bss.NLWaitingDelay:00000000 NLWaitingDelay
C:\Users\ehgre\AppData\Local\Temp\cccn2f6p.s:1560   .bss.PLBlueDelay:00000000 PLBlueDelay
C:\Users\ehgre\AppData\Local\Temp\cccn2f6p.s:626    .text.traffic_lights:000002d4 $t
C:\Users\ehgre\AppData\Local\Temp\cccn2f6p.s:1117   .text.traffic_lights:00000524 $d
C:\Users\ehgre\AppData\Local\Temp\cccn2f6p.s:1554   .bss.PLGreenDelay:00000000 PLGreenDelay
C:\Users\ehgre\AppData\Local\Temp\cccn2f6p.s:1536   .data.msTick:00000000 msTick
C:\Users\ehgre\AppData\Local\Temp\cccn2f6p.s:1132   .text.traffic_lights:00000554 $t
C:\Users\ehgre\AppData\Local\Temp\cccn2f6p.s:1201   .text.traffic_lights:000005b4 $d
C:\Users\ehgre\AppData\Local\Temp\cccn2f6p.s:1211   .text.HAL_TIM_PeriodElapsedCallback:00000000 $t
C:\Users\ehgre\AppData\Local\Temp\cccn2f6p.s:1217   .text.HAL_TIM_PeriodElapsedCallback:00000000 HAL_TIM_PeriodElapsedCallback
C:\Users\ehgre\AppData\Local\Temp\cccn2f6p.s:1496   .text.HAL_TIM_PeriodElapsedCallback:00000180 $d
C:\Users\ehgre\AppData\Local\Temp\cccn2f6p.s:1529   .data.Tick:00000000 Tick
C:\Users\ehgre\AppData\Local\Temp\cccn2f6p.s:1520   .bss.bits:00000000 $d
C:\Users\ehgre\AppData\Local\Temp\cccn2f6p.s:1533   .data.msTick:00000000 $d
C:\Users\ehgre\AppData\Local\Temp\cccn2f6p.s:1543   .bss.NLWaitingDelay:00000000 $d
C:\Users\ehgre\AppData\Local\Temp\cccn2f6p.s:1549   .bss.TLYellowDelay:00000000 $d
C:\Users\ehgre\AppData\Local\Temp\cccn2f6p.s:1555   .bss.PLGreenDelay:00000000 $d
C:\Users\ehgre\AppData\Local\Temp\cccn2f6p.s:1561   .bss.PLBlueDelay:00000000 $d
C:\Users\ehgre\AppData\Local\Temp\cccn2f6p.s:1567   .bss.brightness:00000000 $d
C:\Users\ehgre\AppData\Local\Temp\cccn2f6p.s:1572   .bss.NLWaitingState:00000000 $d
C:\Users\ehgre\AppData\Local\Temp\cccn2f6p.s:1577   .bss.CW2:00000000 $d
C:\Users\ehgre\AppData\Local\Temp\cccn2f6p.s:1582   .bss.CW1:00000000 $d
C:\Users\ehgre\AppData\Local\Temp\cccn2f6p.s:1587   .bss.C4:00000000 $d
C:\Users\ehgre\AppData\Local\Temp\cccn2f6p.s:1592   .bss.C3:00000000 $d
C:\Users\ehgre\AppData\Local\Temp\cccn2f6p.s:1597   .bss.C2:00000000 $d
C:\Users\ehgre\AppData\Local\Temp\cccn2f6p.s:1602   .bss.C1:00000000 $d

UNDEFINED SYMBOLS
HAL_TIM_Base_Start_IT
Show_All_DelayBars
Init_Task2
Show_G2Bar
HAL_GPIO_WritePin
TL1_Green
TL1_Red
TL1_Yellow
TL1_isRed
TL2_Green
ARM GAS  C:\Users\ehgre\AppData\Local\Temp\cccn2f6p.s 			page 43


TL2_Red
TL2_Yellow
TL3_isGreen
TL3_Green
TL3_Red
TL3_Yellow
TL4_isGreen
TL4_Green
TL4_Red
TL4_Yellow
getPotiPercent
is_car1
is_car2
is_car3
is_car4
Show_G1Bar
is_pl1
is_pl2
TL1_isGreen
TL2_isGreen
htim16
TL2_isRed
TL3_isRed
TL4_isRed
PL1_Green
PL1_Red
PL1_Blue_Toggle
PL1_Blue
PL2_Green
PL2_Red
PL2_Blue_Toggle
PL2_Blue
HAL_GPIO_TogglePin
Show_P2Bar
Show_P1Bar
Show_W1Bar
Show_W2Bar
