ARM GAS  C:\Users\ehgre\AppData\Local\Temp\ccd3aLcI.s 			page 1


   1              		.cpu cortex-m4
   2              		.arch armv7e-m
   3              		.fpu fpv4-sp-d16
   4              		.eabi_attribute 27, 1
   5              		.eabi_attribute 28, 1
   6              		.eabi_attribute 20, 1
   7              		.eabi_attribute 21, 1
   8              		.eabi_attribute 23, 3
   9              		.eabi_attribute 24, 1
  10              		.eabi_attribute 25, 1
  11              		.eabi_attribute 26, 1
  12              		.eabi_attribute 30, 1
  13              		.eabi_attribute 34, 1
  14              		.eabi_attribute 18, 4
  15              		.file	"Traffic_Light.c"
  16              		.text
  17              	.Ltext0:
  18              		.cfi_sections	.debug_frame
  19              		.file 1 "Core/Src/Traffic_Light.c"
  20              		.section	.text.Init_States,"ax",%progbits
  21              		.align	1
  22              		.global	Init_States
  23              		.syntax unified
  24              		.thumb
  25              		.thumb_func
  27              	Init_States:
  28              	.LFB320:
   1:Core/Src/Traffic_Light.c **** #include <stdio.h>
   2:Core/Src/Traffic_Light.c **** #include <stdlib.h>
   3:Core/Src/Traffic_Light.c **** #include <stdbool.h>
   4:Core/Src/Traffic_Light.c **** #include <string.h>
   5:Core/Src/Traffic_Light.c **** 
   6:Core/Src/Traffic_Light.c **** #include "main.h"
   7:Core/Src/Traffic_Light.c **** #include "stm32l4xx_it.h"
   8:Core/Src/Traffic_Light.c **** #include "stm32l4xx_hal_conf.h"
   9:Core/Src/Traffic_Light.c **** #include "shift_register.h"
  10:Core/Src/Traffic_Light.c **** #include "light_logic.h"
  11:Core/Src/Traffic_Light.c **** #include "Traffic_Light.h"
  12:Core/Src/Traffic_Light.c **** #include "tim.h"
  13:Core/Src/Traffic_Light.c **** #include "interactions.h"
  14:Core/Src/Traffic_Light.c **** #include "OledDelayBars.h"
  15:Core/Src/Traffic_Light.c **** #include "potentiometer.h"
  16:Core/Src/Traffic_Light.c **** #include "math.h"
  17:Core/Src/Traffic_Light.c **** #include "ssd1306.h"
  18:Core/Src/Traffic_Light.c **** 
  19:Core/Src/Traffic_Light.c **** //In Miliseconds
  20:Core/Src/Traffic_Light.c **** #define toggleFreq 200 //Pedestrian blue light toggle frequency
  21:Core/Src/Traffic_Light.c **** 
  22:Core/Src/Traffic_Light.c **** //In Seconds
  23:Core/Src/Traffic_Light.c **** #define pedestrianDelay 5 //Pedestrian wait after press duration
  24:Core/Src/Traffic_Light.c **** #define walkingDelay 10 //Pedestrian green duration
  25:Core/Src/Traffic_Light.c **** #define orangeDelay 1 // TrafficLight Orange/Yellow state duration
  26:Core/Src/Traffic_Light.c **** #define greenDelay 7 // trafficlight direction change when no active cars duration
  27:Core/Src/Traffic_Light.c **** #define redDelayMax 7 // trafficlight direction change when atleast 1 car from both directions are 
  28:Core/Src/Traffic_Light.c **** #define RedToGreenDelay 1 // delay switching from red to green on traffic lights
  29:Core/Src/Traffic_Light.c **** 
  30:Core/Src/Traffic_Light.c **** typedef enum{   
ARM GAS  C:\Users\ehgre\AppData\Local\Temp\ccd3aLcI.s 			page 2


  31:Core/Src/Traffic_Light.c ****     PLRed,
  32:Core/Src/Traffic_Light.c ****     PLGreen,
  33:Core/Src/Traffic_Light.c ****     PLBlue
  34:Core/Src/Traffic_Light.c **** } crosswalk;
  35:Core/Src/Traffic_Light.c **** 
  36:Core/Src/Traffic_Light.c **** typedef enum{   
  37:Core/Src/Traffic_Light.c ****     TLRed,
  38:Core/Src/Traffic_Light.c ****     TLGreen
  39:Core/Src/Traffic_Light.c **** } TLcrossing;
  40:Core/Src/Traffic_Light.c **** 
  41:Core/Src/Traffic_Light.c **** typedef enum{   
  42:Core/Src/Traffic_Light.c ****     G1,
  43:Core/Src/Traffic_Light.c ****     G2
  44:Core/Src/Traffic_Light.c **** } crossingSwitch;
  45:Core/Src/Traffic_Light.c **** 
  46:Core/Src/Traffic_Light.c **** struct crossing
  47:Core/Src/Traffic_Light.c **** {
  48:Core/Src/Traffic_Light.c ****     char crossingName[4];
  49:Core/Src/Traffic_Light.c ****     TLcrossing light;
  50:Core/Src/Traffic_Light.c **** };
  51:Core/Src/Traffic_Light.c **** 
  52:Core/Src/Traffic_Light.c **** struct crossing C1, C2, C3, C4;
  53:Core/Src/Traffic_Light.c **** 
  54:Core/Src/Traffic_Light.c **** static crosswalk CW1, CW2;
  55:Core/Src/Traffic_Light.c **** 
  56:Core/Src/Traffic_Light.c **** static crossingSwitch NCWaitingState;
  57:Core/Src/Traffic_Light.c **** 
  58:Core/Src/Traffic_Light.c **** uint8_t brightness = 0;
  59:Core/Src/Traffic_Light.c **** 
  60:Core/Src/Traffic_Light.c **** uint8_t PLBlueDelay = 0;
  61:Core/Src/Traffic_Light.c **** 
  62:Core/Src/Traffic_Light.c **** uint8_t PLGreenDelay = 0;
  63:Core/Src/Traffic_Light.c **** 
  64:Core/Src/Traffic_Light.c **** uint8_t TLYellowDelay = 0;
  65:Core/Src/Traffic_Light.c **** 
  66:Core/Src/Traffic_Light.c **** uint8_t TLRedWaitTime = 0;
  67:Core/Src/Traffic_Light.c **** 
  68:Core/Src/Traffic_Light.c **** uint8_t NCWaitingDelay = 0;
  69:Core/Src/Traffic_Light.c **** 
  70:Core/Src/Traffic_Light.c **** uint8_t R2GDelay = 0;
  71:Core/Src/Traffic_Light.c **** 
  72:Core/Src/Traffic_Light.c **** uint16_t msTick = 1;
  73:Core/Src/Traffic_Light.c **** 
  74:Core/Src/Traffic_Light.c **** uint16_t TickFlash = 1;
  75:Core/Src/Traffic_Light.c **** 
  76:Core/Src/Traffic_Light.c **** uint8_t Tick = 1;
  77:Core/Src/Traffic_Light.c **** 
  78:Core/Src/Traffic_Light.c **** uint32_t bits = 0;
  79:Core/Src/Traffic_Light.c **** 
  80:Core/Src/Traffic_Light.c **** bool NoCarsWaiting = true;
  81:Core/Src/Traffic_Light.c **** 
  82:Core/Src/Traffic_Light.c **** bool BlueOn = false;
  83:Core/Src/Traffic_Light.c **** 
  84:Core/Src/Traffic_Light.c **** void Init_States(){
  29              		.loc 1 84 19 view -0
  30              		.cfi_startproc
  31              		@ args = 0, pretend = 0, frame = 0
ARM GAS  C:\Users\ehgre\AppData\Local\Temp\ccd3aLcI.s 			page 3


  32              		@ frame_needed = 0, uses_anonymous_args = 0
  33              		@ link register save eliminated.
  34 0000 70B4     		push	{r4, r5, r6}
  35              	.LCFI0:
  36              		.cfi_def_cfa_offset 12
  37              		.cfi_offset 4, -12
  38              		.cfi_offset 5, -8
  39              		.cfi_offset 6, -4
  85:Core/Src/Traffic_Light.c ****     C1.light = TLRed;
  40              		.loc 1 85 5 view .LVU1
  41              		.loc 1 85 14 is_stmt 0 view .LVU2
  42 0002 0D4D     		ldr	r5, .L3
  43 0004 0023     		movs	r3, #0
  44 0006 2B71     		strb	r3, [r5, #4]
  86:Core/Src/Traffic_Light.c ****     C2.light = TLGreen;
  45              		.loc 1 86 5 is_stmt 1 view .LVU3
  46              		.loc 1 86 14 is_stmt 0 view .LVU4
  47 0008 0C4C     		ldr	r4, .L3+4
  48 000a 0122     		movs	r2, #1
  49 000c 2271     		strb	r2, [r4, #4]
  87:Core/Src/Traffic_Light.c ****     C3.light = TLRed;
  50              		.loc 1 87 5 is_stmt 1 view .LVU5
  51              		.loc 1 87 14 is_stmt 0 view .LVU6
  52 000e 0C48     		ldr	r0, .L3+8
  53 0010 0371     		strb	r3, [r0, #4]
  88:Core/Src/Traffic_Light.c ****     C4.light = TLGreen;
  54              		.loc 1 88 5 is_stmt 1 view .LVU7
  55              		.loc 1 88 14 is_stmt 0 view .LVU8
  56 0012 0C49     		ldr	r1, .L3+12
  57 0014 0A71     		strb	r2, [r1, #4]
  89:Core/Src/Traffic_Light.c ****     strcpy(C1.crossingName, "TL1");
  58              		.loc 1 89 5 is_stmt 1 view .LVU9
  59 0016 0C4E     		ldr	r6, .L3+16
  60 0018 2E60     		str	r6, [r5]
  90:Core/Src/Traffic_Light.c ****     strcpy(C2.crossingName, "TL2");
  61              		.loc 1 90 5 view .LVU10
  62 001a 0C4D     		ldr	r5, .L3+20
  63 001c 2560     		str	r5, [r4]
  91:Core/Src/Traffic_Light.c ****     strcpy(C3.crossingName, "TL3");
  64              		.loc 1 91 5 view .LVU11
  65 001e 0C4C     		ldr	r4, .L3+24
  66 0020 0460     		str	r4, [r0]
  92:Core/Src/Traffic_Light.c ****     strcpy(C4.crossingName, "TL4");
  67              		.loc 1 92 5 view .LVU12
  68 0022 0C48     		ldr	r0, .L3+28
  69 0024 0860     		str	r0, [r1]
  93:Core/Src/Traffic_Light.c ****     CW1 = PLRed;
  70              		.loc 1 93 5 view .LVU13
  71              		.loc 1 93 9 is_stmt 0 view .LVU14
  72 0026 0C49     		ldr	r1, .L3+32
  73 0028 0B70     		strb	r3, [r1]
  94:Core/Src/Traffic_Light.c ****     CW2 = PLRed;
  74              		.loc 1 94 5 is_stmt 1 view .LVU15
  75              		.loc 1 94 9 is_stmt 0 view .LVU16
  76 002a 0C49     		ldr	r1, .L3+36
  77 002c 0B70     		strb	r3, [r1]
  95:Core/Src/Traffic_Light.c ****     NCWaitingState = G2;
ARM GAS  C:\Users\ehgre\AppData\Local\Temp\ccd3aLcI.s 			page 4


  78              		.loc 1 95 5 is_stmt 1 view .LVU17
  79              		.loc 1 95 20 is_stmt 0 view .LVU18
  80 002e 0C4B     		ldr	r3, .L3+40
  81 0030 1A70     		strb	r2, [r3]
  96:Core/Src/Traffic_Light.c **** }
  82              		.loc 1 96 1 view .LVU19
  83 0032 70BC     		pop	{r4, r5, r6}
  84              	.LCFI1:
  85              		.cfi_restore 6
  86              		.cfi_restore 5
  87              		.cfi_restore 4
  88              		.cfi_def_cfa_offset 0
  89 0034 7047     		bx	lr
  90              	.L4:
  91 0036 00BF     		.align	2
  92              	.L3:
  93 0038 00000000 		.word	C1
  94 003c 00000000 		.word	C2
  95 0040 00000000 		.word	C3
  96 0044 00000000 		.word	C4
  97 0048 544C3100 		.word	3230804
  98 004c 544C3200 		.word	3296340
  99 0050 544C3300 		.word	3361876
 100 0054 544C3400 		.word	3427412
 101 0058 00000000 		.word	CW1
 102 005c 00000000 		.word	CW2
 103 0060 00000000 		.word	NCWaitingState
 104              		.cfi_endproc
 105              	.LFE320:
 107              		.section	.rodata.IsIllegalGreenState.str1.4,"aMS",%progbits,1
 108              		.align	2
 109              	.LC0:
 110 0000 544C3100 		.ascii	"TL1\000"
 111              		.align	2
 112              	.LC1:
 113 0004 544C3300 		.ascii	"TL3\000"
 114              		.align	2
 115              	.LC2:
 116 0008 544C3200 		.ascii	"TL2\000"
 117              		.align	2
 118              	.LC3:
 119 000c 544C3400 		.ascii	"TL4\000"
 120              		.section	.text.IsIllegalGreenState,"ax",%progbits
 121              		.align	1
 122              		.global	IsIllegalGreenState
 123              		.syntax unified
 124              		.thumb
 125              		.thumb_func
 127              	IsIllegalGreenState:
 128              	.LFB321:
  97:Core/Src/Traffic_Light.c **** 
  98:Core/Src/Traffic_Light.c **** TLcrossing IsIllegalGreenState(struct crossing state){
 129              		.loc 1 98 54 is_stmt 1 view -0
 130              		.cfi_startproc
 131              		@ args = 0, pretend = 0, frame = 8
 132              		@ frame_needed = 0, uses_anonymous_args = 0
 133 0000 00B5     		push	{lr}
ARM GAS  C:\Users\ehgre\AppData\Local\Temp\ccd3aLcI.s 			page 5


 134              	.LCFI2:
 135              		.cfi_def_cfa_offset 4
 136              		.cfi_offset 14, -4
 137 0002 83B0     		sub	sp, sp, #12
 138              	.LCFI3:
 139              		.cfi_def_cfa_offset 16
 140 0004 6B46     		mov	r3, sp
 141 0006 83E80300 		stm	r3, {r0, r1}
  99:Core/Src/Traffic_Light.c ****     if(strcmp(state.crossingName, "TL1") == 0){
 142              		.loc 1 99 5 view .LVU21
 143              		.loc 1 99 8 is_stmt 0 view .LVU22
 144 000a 6149     		ldr	r1, .L28
 145 000c 1846     		mov	r0, r3
 146 000e FFF7FEFF 		bl	strcmp
 147              	.LVL0:
 148              		.loc 1 99 7 view .LVU23
 149 0012 48BB     		cbnz	r0, .L6
 100:Core/Src/Traffic_Light.c ****         if((C2.light == TLRed) && (C4.light == TLRed) && (CW1 != PLGreen) && (NCWaitingState == G1)
 150              		.loc 1 100 9 is_stmt 1 view .LVU24
 151              		.loc 1 100 15 is_stmt 0 view .LVU25
 152 0014 5F4B     		ldr	r3, .L28+4
 153 0016 1B79     		ldrb	r3, [r3, #4]	@ zero_extendqisi2
 154              		.loc 1 100 11 view .LVU26
 155 0018 B3B9     		cbnz	r3, .L7
 156              		.loc 1 100 38 discriminator 1 view .LVU27
 157 001a 5F4B     		ldr	r3, .L28+8
 158 001c 1B79     		ldrb	r3, [r3, #4]	@ zero_extendqisi2
 159              		.loc 1 100 32 discriminator 1 view .LVU28
 160 001e 9BB9     		cbnz	r3, .L7
 161              		.loc 1 100 63 discriminator 2 view .LVU29
 162 0020 5E4B     		ldr	r3, .L28+12
 163 0022 1B78     		ldrb	r3, [r3]	@ zero_extendqisi2
 164              		.loc 1 100 55 discriminator 2 view .LVU30
 165 0024 012B     		cmp	r3, #1
 166 0026 0FD0     		beq	.L7
 167              		.loc 1 100 94 discriminator 3 view .LVU31
 168 0028 5D4B     		ldr	r3, .L28+16
 169 002a 1B78     		ldrb	r3, [r3]	@ zero_extendqisi2
 170              		.loc 1 100 75 discriminator 3 view .LVU32
 171 002c 63B9     		cbnz	r3, .L7
 172              		.loc 1 100 114 discriminator 4 view .LVU33
 173 002e 5D4B     		ldr	r3, .L28+20
 174 0030 1B78     		ldrb	r3, [r3]	@ zero_extendqisi2
 175              		.loc 1 100 101 discriminator 4 view .LVU34
 176 0032 4BB9     		cbnz	r3, .L7
 101:Core/Src/Traffic_Light.c ****             if(state.light == TLRed){
 177              		.loc 1 101 13 is_stmt 1 view .LVU35
 178              		.loc 1 101 21 is_stmt 0 view .LVU36
 179 0034 9DF80430 		ldrb	r3, [sp, #4]	@ zero_extendqisi2
 180              		.loc 1 101 15 view .LVU37
 181 0038 23B9     		cbnz	r3, .L8
 102:Core/Src/Traffic_Light.c ****                 TLYellowDelay = orangeDelay;
 182              		.loc 1 102 17 is_stmt 1 view .LVU38
 183              		.loc 1 102 31 is_stmt 0 view .LVU39
 184 003a 0123     		movs	r3, #1
 185 003c 5A4A     		ldr	r2, .L28+24
 186 003e 1370     		strb	r3, [r2]
ARM GAS  C:\Users\ehgre\AppData\Local\Temp\ccd3aLcI.s 			page 6


 103:Core/Src/Traffic_Light.c ****                 msTick = 1;
 187              		.loc 1 103 17 is_stmt 1 view .LVU40
 188              		.loc 1 103 24 is_stmt 0 view .LVU41
 189 0040 5A4A     		ldr	r2, .L28+28
 190 0042 1380     		strh	r3, [r2]	@ movhi
 191              	.L8:
 104:Core/Src/Traffic_Light.c ****             }
 105:Core/Src/Traffic_Light.c ****             return TLGreen;
 192              		.loc 1 105 13 is_stmt 1 view .LVU42
 193              		.loc 1 105 20 is_stmt 0 view .LVU43
 194 0044 0120     		movs	r0, #1
 195 0046 04E0     		b	.L5
 196              	.L7:
 106:Core/Src/Traffic_Light.c ****         }else{
 107:Core/Src/Traffic_Light.c ****             if(state.light == TLGreen){
 197              		.loc 1 107 13 is_stmt 1 view .LVU44
 198              		.loc 1 107 21 is_stmt 0 view .LVU45
 199 0048 9DF80430 		ldrb	r3, [sp, #4]	@ zero_extendqisi2
 200              		.loc 1 107 15 view .LVU46
 201 004c 012B     		cmp	r3, #1
 202 004e 03D0     		beq	.L24
 203              	.L10:
 108:Core/Src/Traffic_Light.c ****                 TLYellowDelay = orangeDelay;
 109:Core/Src/Traffic_Light.c ****                 R2GDelay = RedToGreenDelay + 1;
 110:Core/Src/Traffic_Light.c ****                 msTick = 1;
 111:Core/Src/Traffic_Light.c ****             }
 112:Core/Src/Traffic_Light.c ****             return TLRed;
 204              		.loc 1 112 13 is_stmt 1 view .LVU47
 205              		.loc 1 112 20 is_stmt 0 view .LVU48
 206 0050 0020     		movs	r0, #0
 207              	.L5:
 113:Core/Src/Traffic_Light.c ****         }
 114:Core/Src/Traffic_Light.c ****     }else if(strcmp(state.crossingName, "TL3") == 0){
 115:Core/Src/Traffic_Light.c ****         if((C2.light == TLRed) && (C4.light == TLRed) && (CW2 != PLGreen) && (CW1 != PLGreen) && (N
 116:Core/Src/Traffic_Light.c ****             if(state.light == TLRed){
 117:Core/Src/Traffic_Light.c ****                 TLYellowDelay = orangeDelay;
 118:Core/Src/Traffic_Light.c ****                 msTick = 1;
 119:Core/Src/Traffic_Light.c ****             }
 120:Core/Src/Traffic_Light.c ****             return TLGreen;
 121:Core/Src/Traffic_Light.c ****         }else{
 122:Core/Src/Traffic_Light.c ****             if(state.light == TLGreen){
 123:Core/Src/Traffic_Light.c ****                 TLYellowDelay = orangeDelay;
 124:Core/Src/Traffic_Light.c ****                 R2GDelay = RedToGreenDelay + 1;
 125:Core/Src/Traffic_Light.c ****                 msTick = 1;
 126:Core/Src/Traffic_Light.c ****             }
 127:Core/Src/Traffic_Light.c ****             return TLRed;
 128:Core/Src/Traffic_Light.c ****         }
 129:Core/Src/Traffic_Light.c ****     }else if(strcmp(state.crossingName, "TL2") == 0){
 130:Core/Src/Traffic_Light.c ****         if((C1.light == TLRed) && (C3.light == TLRed) && (CW2 != PLGreen) && (NCWaitingState == G2)
 131:Core/Src/Traffic_Light.c ****             if(state.light == TLRed){
 132:Core/Src/Traffic_Light.c ****                 TLYellowDelay = orangeDelay;
 133:Core/Src/Traffic_Light.c ****                 msTick = 1;
 134:Core/Src/Traffic_Light.c ****             }
 135:Core/Src/Traffic_Light.c ****             return TLGreen;
 136:Core/Src/Traffic_Light.c ****         }else{
 137:Core/Src/Traffic_Light.c ****             if(state.light == TLGreen){
 138:Core/Src/Traffic_Light.c ****                 TLYellowDelay = orangeDelay;
ARM GAS  C:\Users\ehgre\AppData\Local\Temp\ccd3aLcI.s 			page 7


 139:Core/Src/Traffic_Light.c ****                 R2GDelay = RedToGreenDelay + 1;
 140:Core/Src/Traffic_Light.c ****                 msTick = 1;
 141:Core/Src/Traffic_Light.c ****             }
 142:Core/Src/Traffic_Light.c ****             return TLRed;
 143:Core/Src/Traffic_Light.c ****         }
 144:Core/Src/Traffic_Light.c ****     }else if(strcmp(state.crossingName, "TL4") == 0){
 145:Core/Src/Traffic_Light.c ****         if((C1.light == TLRed) && (C3.light == TLRed) && (CW1 != PLGreen) && (CW2 != PLGreen) && (N
 146:Core/Src/Traffic_Light.c ****             if(state.light == TLRed){
 147:Core/Src/Traffic_Light.c ****                 TLYellowDelay = orangeDelay;
 148:Core/Src/Traffic_Light.c ****                 msTick = 1;
 149:Core/Src/Traffic_Light.c ****             }
 150:Core/Src/Traffic_Light.c ****             return TLGreen;
 151:Core/Src/Traffic_Light.c ****         }else{
 152:Core/Src/Traffic_Light.c ****             if(state.light == TLGreen){
 153:Core/Src/Traffic_Light.c ****                 TLYellowDelay = orangeDelay;
 154:Core/Src/Traffic_Light.c ****                 R2GDelay = RedToGreenDelay + 1;
 155:Core/Src/Traffic_Light.c ****                 msTick = 1;
 156:Core/Src/Traffic_Light.c ****             }
 157:Core/Src/Traffic_Light.c ****             return TLRed;
 158:Core/Src/Traffic_Light.c ****         }
 159:Core/Src/Traffic_Light.c ****     }
 160:Core/Src/Traffic_Light.c **** }
 208              		.loc 1 160 1 view .LVU49
 209 0052 03B0     		add	sp, sp, #12
 210              	.LCFI4:
 211              		.cfi_remember_state
 212              		.cfi_def_cfa_offset 4
 213              		@ sp needed
 214 0054 5DF804FB 		ldr	pc, [sp], #4
 215              	.L24:
 216              	.LCFI5:
 217              		.cfi_restore_state
 108:Core/Src/Traffic_Light.c ****                 TLYellowDelay = orangeDelay;
 218              		.loc 1 108 17 is_stmt 1 view .LVU50
 108:Core/Src/Traffic_Light.c ****                 TLYellowDelay = orangeDelay;
 219              		.loc 1 108 31 is_stmt 0 view .LVU51
 220 0058 534A     		ldr	r2, .L28+24
 221 005a 1370     		strb	r3, [r2]
 109:Core/Src/Traffic_Light.c ****                 msTick = 1;
 222              		.loc 1 109 17 is_stmt 1 view .LVU52
 109:Core/Src/Traffic_Light.c ****                 msTick = 1;
 223              		.loc 1 109 26 is_stmt 0 view .LVU53
 224 005c 514A     		ldr	r2, .L28+20
 225 005e 0221     		movs	r1, #2
 226 0060 1170     		strb	r1, [r2]
 110:Core/Src/Traffic_Light.c ****             }
 227              		.loc 1 110 17 is_stmt 1 view .LVU54
 110:Core/Src/Traffic_Light.c ****             }
 228              		.loc 1 110 24 is_stmt 0 view .LVU55
 229 0062 524A     		ldr	r2, .L28+28
 230 0064 1380     		strh	r3, [r2]	@ movhi
 231 0066 F3E7     		b	.L10
 232              	.L6:
 114:Core/Src/Traffic_Light.c ****         if((C2.light == TLRed) && (C4.light == TLRed) && (CW2 != PLGreen) && (CW1 != PLGreen) && (N
 233              		.loc 1 114 11 is_stmt 1 view .LVU56
 114:Core/Src/Traffic_Light.c ****         if((C2.light == TLRed) && (C4.light == TLRed) && (CW2 != PLGreen) && (CW1 != PLGreen) && (N
 234              		.loc 1 114 14 is_stmt 0 view .LVU57
ARM GAS  C:\Users\ehgre\AppData\Local\Temp\ccd3aLcI.s 			page 8


 235 0068 5149     		ldr	r1, .L28+32
 236 006a 6846     		mov	r0, sp
 237 006c FFF7FEFF 		bl	strcmp
 238              	.LVL1:
 114:Core/Src/Traffic_Light.c ****         if((C2.light == TLRed) && (C4.light == TLRed) && (CW2 != PLGreen) && (CW1 != PLGreen) && (N
 239              		.loc 1 114 13 view .LVU58
 240 0070 58BB     		cbnz	r0, .L11
 115:Core/Src/Traffic_Light.c ****             if(state.light == TLRed){
 241              		.loc 1 115 9 is_stmt 1 view .LVU59
 115:Core/Src/Traffic_Light.c ****             if(state.light == TLRed){
 242              		.loc 1 115 15 is_stmt 0 view .LVU60
 243 0072 484B     		ldr	r3, .L28+4
 244 0074 1B79     		ldrb	r3, [r3, #4]	@ zero_extendqisi2
 115:Core/Src/Traffic_Light.c ****             if(state.light == TLRed){
 245              		.loc 1 115 11 view .LVU61
 246 0076 D3B9     		cbnz	r3, .L12
 115:Core/Src/Traffic_Light.c ****             if(state.light == TLRed){
 247              		.loc 1 115 38 discriminator 1 view .LVU62
 248 0078 474B     		ldr	r3, .L28+8
 249 007a 1B79     		ldrb	r3, [r3, #4]	@ zero_extendqisi2
 115:Core/Src/Traffic_Light.c ****             if(state.light == TLRed){
 250              		.loc 1 115 32 discriminator 1 view .LVU63
 251 007c BBB9     		cbnz	r3, .L12
 115:Core/Src/Traffic_Light.c ****             if(state.light == TLRed){
 252              		.loc 1 115 63 discriminator 2 view .LVU64
 253 007e 4D4B     		ldr	r3, .L28+36
 254 0080 1B78     		ldrb	r3, [r3]	@ zero_extendqisi2
 115:Core/Src/Traffic_Light.c ****             if(state.light == TLRed){
 255              		.loc 1 115 55 discriminator 2 view .LVU65
 256 0082 012B     		cmp	r3, #1
 257 0084 13D0     		beq	.L12
 115:Core/Src/Traffic_Light.c ****             if(state.light == TLRed){
 258              		.loc 1 115 83 discriminator 3 view .LVU66
 259 0086 454B     		ldr	r3, .L28+12
 260 0088 1B78     		ldrb	r3, [r3]	@ zero_extendqisi2
 115:Core/Src/Traffic_Light.c ****             if(state.light == TLRed){
 261              		.loc 1 115 75 discriminator 3 view .LVU67
 262 008a 012B     		cmp	r3, #1
 263 008c 0FD0     		beq	.L12
 115:Core/Src/Traffic_Light.c ****             if(state.light == TLRed){
 264              		.loc 1 115 114 discriminator 4 view .LVU68
 265 008e 444B     		ldr	r3, .L28+16
 266 0090 1B78     		ldrb	r3, [r3]	@ zero_extendqisi2
 115:Core/Src/Traffic_Light.c ****             if(state.light == TLRed){
 267              		.loc 1 115 95 discriminator 4 view .LVU69
 268 0092 63B9     		cbnz	r3, .L12
 115:Core/Src/Traffic_Light.c ****             if(state.light == TLRed){
 269              		.loc 1 115 134 discriminator 5 view .LVU70
 270 0094 434B     		ldr	r3, .L28+20
 271 0096 1B78     		ldrb	r3, [r3]	@ zero_extendqisi2
 115:Core/Src/Traffic_Light.c ****             if(state.light == TLRed){
 272              		.loc 1 115 121 discriminator 5 view .LVU71
 273 0098 4BB9     		cbnz	r3, .L12
 116:Core/Src/Traffic_Light.c ****                 TLYellowDelay = orangeDelay;
 274              		.loc 1 116 13 is_stmt 1 view .LVU72
 116:Core/Src/Traffic_Light.c ****                 TLYellowDelay = orangeDelay;
 275              		.loc 1 116 21 is_stmt 0 view .LVU73
ARM GAS  C:\Users\ehgre\AppData\Local\Temp\ccd3aLcI.s 			page 9


 276 009a 9DF80430 		ldrb	r3, [sp, #4]	@ zero_extendqisi2
 116:Core/Src/Traffic_Light.c ****                 TLYellowDelay = orangeDelay;
 277              		.loc 1 116 15 view .LVU74
 278 009e 23B9     		cbnz	r3, .L13
 117:Core/Src/Traffic_Light.c ****                 msTick = 1;
 279              		.loc 1 117 17 is_stmt 1 view .LVU75
 117:Core/Src/Traffic_Light.c ****                 msTick = 1;
 280              		.loc 1 117 31 is_stmt 0 view .LVU76
 281 00a0 0123     		movs	r3, #1
 282 00a2 414A     		ldr	r2, .L28+24
 283 00a4 1370     		strb	r3, [r2]
 118:Core/Src/Traffic_Light.c ****             }
 284              		.loc 1 118 17 is_stmt 1 view .LVU77
 118:Core/Src/Traffic_Light.c ****             }
 285              		.loc 1 118 24 is_stmt 0 view .LVU78
 286 00a6 414A     		ldr	r2, .L28+28
 287 00a8 1380     		strh	r3, [r2]	@ movhi
 288              	.L13:
 120:Core/Src/Traffic_Light.c ****         }else{
 289              		.loc 1 120 13 is_stmt 1 view .LVU79
 120:Core/Src/Traffic_Light.c ****         }else{
 290              		.loc 1 120 20 is_stmt 0 view .LVU80
 291 00aa 0120     		movs	r0, #1
 292 00ac D1E7     		b	.L5
 293              	.L12:
 122:Core/Src/Traffic_Light.c ****                 TLYellowDelay = orangeDelay;
 294              		.loc 1 122 13 is_stmt 1 view .LVU81
 122:Core/Src/Traffic_Light.c ****                 TLYellowDelay = orangeDelay;
 295              		.loc 1 122 21 is_stmt 0 view .LVU82
 296 00ae 9DF80430 		ldrb	r3, [sp, #4]	@ zero_extendqisi2
 122:Core/Src/Traffic_Light.c ****                 TLYellowDelay = orangeDelay;
 297              		.loc 1 122 15 view .LVU83
 298 00b2 012B     		cmp	r3, #1
 299 00b4 01D0     		beq	.L25
 300              	.L14:
 127:Core/Src/Traffic_Light.c ****         }
 301              		.loc 1 127 13 is_stmt 1 view .LVU84
 127:Core/Src/Traffic_Light.c ****         }
 302              		.loc 1 127 20 is_stmt 0 view .LVU85
 303 00b6 0020     		movs	r0, #0
 304 00b8 CBE7     		b	.L5
 305              	.L25:
 123:Core/Src/Traffic_Light.c ****                 R2GDelay = RedToGreenDelay + 1;
 306              		.loc 1 123 17 is_stmt 1 view .LVU86
 123:Core/Src/Traffic_Light.c ****                 R2GDelay = RedToGreenDelay + 1;
 307              		.loc 1 123 31 is_stmt 0 view .LVU87
 308 00ba 3B4A     		ldr	r2, .L28+24
 309 00bc 1370     		strb	r3, [r2]
 124:Core/Src/Traffic_Light.c ****                 msTick = 1;
 310              		.loc 1 124 17 is_stmt 1 view .LVU88
 124:Core/Src/Traffic_Light.c ****                 msTick = 1;
 311              		.loc 1 124 26 is_stmt 0 view .LVU89
 312 00be 394A     		ldr	r2, .L28+20
 313 00c0 0221     		movs	r1, #2
 314 00c2 1170     		strb	r1, [r2]
 125:Core/Src/Traffic_Light.c ****             }
 315              		.loc 1 125 17 is_stmt 1 view .LVU90
ARM GAS  C:\Users\ehgre\AppData\Local\Temp\ccd3aLcI.s 			page 10


 125:Core/Src/Traffic_Light.c ****             }
 316              		.loc 1 125 24 is_stmt 0 view .LVU91
 317 00c4 394A     		ldr	r2, .L28+28
 318 00c6 1380     		strh	r3, [r2]	@ movhi
 319 00c8 F5E7     		b	.L14
 320              	.L11:
 129:Core/Src/Traffic_Light.c ****         if((C1.light == TLRed) && (C3.light == TLRed) && (CW2 != PLGreen) && (NCWaitingState == G2)
 321              		.loc 1 129 11 is_stmt 1 view .LVU92
 129:Core/Src/Traffic_Light.c ****         if((C1.light == TLRed) && (C3.light == TLRed) && (CW2 != PLGreen) && (NCWaitingState == G2)
 322              		.loc 1 129 14 is_stmt 0 view .LVU93
 323 00ca 3B49     		ldr	r1, .L28+40
 324 00cc 6846     		mov	r0, sp
 325 00ce FFF7FEFF 		bl	strcmp
 326              	.LVL2:
 129:Core/Src/Traffic_Light.c ****         if((C1.light == TLRed) && (C3.light == TLRed) && (CW2 != PLGreen) && (NCWaitingState == G2)
 327              		.loc 1 129 13 view .LVU94
 328 00d2 40BB     		cbnz	r0, .L15
 130:Core/Src/Traffic_Light.c ****             if(state.light == TLRed){
 329              		.loc 1 130 9 is_stmt 1 view .LVU95
 130:Core/Src/Traffic_Light.c ****             if(state.light == TLRed){
 330              		.loc 1 130 15 is_stmt 0 view .LVU96
 331 00d4 394B     		ldr	r3, .L28+44
 332 00d6 1B79     		ldrb	r3, [r3, #4]	@ zero_extendqisi2
 130:Core/Src/Traffic_Light.c ****             if(state.light == TLRed){
 333              		.loc 1 130 11 view .LVU97
 334 00d8 BBB9     		cbnz	r3, .L16
 130:Core/Src/Traffic_Light.c ****             if(state.light == TLRed){
 335              		.loc 1 130 38 discriminator 1 view .LVU98
 336 00da 394B     		ldr	r3, .L28+48
 337 00dc 1B79     		ldrb	r3, [r3, #4]	@ zero_extendqisi2
 130:Core/Src/Traffic_Light.c ****             if(state.light == TLRed){
 338              		.loc 1 130 32 discriminator 1 view .LVU99
 339 00de A3B9     		cbnz	r3, .L16
 130:Core/Src/Traffic_Light.c ****             if(state.light == TLRed){
 340              		.loc 1 130 63 discriminator 2 view .LVU100
 341 00e0 344B     		ldr	r3, .L28+36
 342 00e2 1B78     		ldrb	r3, [r3]	@ zero_extendqisi2
 130:Core/Src/Traffic_Light.c ****             if(state.light == TLRed){
 343              		.loc 1 130 55 discriminator 2 view .LVU101
 344 00e4 012B     		cmp	r3, #1
 345 00e6 10D0     		beq	.L16
 130:Core/Src/Traffic_Light.c ****             if(state.light == TLRed){
 346              		.loc 1 130 94 discriminator 3 view .LVU102
 347 00e8 2D4B     		ldr	r3, .L28+16
 348 00ea 1878     		ldrb	r0, [r3]	@ zero_extendqisi2
 130:Core/Src/Traffic_Light.c ****             if(state.light == TLRed){
 349              		.loc 1 130 75 discriminator 3 view .LVU103
 350 00ec 0128     		cmp	r0, #1
 351 00ee 0CD1     		bne	.L16
 130:Core/Src/Traffic_Light.c ****             if(state.light == TLRed){
 352              		.loc 1 130 114 discriminator 4 view .LVU104
 353 00f0 2C4B     		ldr	r3, .L28+20
 354 00f2 1B78     		ldrb	r3, [r3]	@ zero_extendqisi2
 130:Core/Src/Traffic_Light.c ****             if(state.light == TLRed){
 355              		.loc 1 130 101 discriminator 4 view .LVU105
 356 00f4 4BB9     		cbnz	r3, .L16
 131:Core/Src/Traffic_Light.c ****                 TLYellowDelay = orangeDelay;
ARM GAS  C:\Users\ehgre\AppData\Local\Temp\ccd3aLcI.s 			page 11


 357              		.loc 1 131 13 is_stmt 1 view .LVU106
 131:Core/Src/Traffic_Light.c ****                 TLYellowDelay = orangeDelay;
 358              		.loc 1 131 21 is_stmt 0 view .LVU107
 359 00f6 9DF80430 		ldrb	r3, [sp, #4]	@ zero_extendqisi2
 131:Core/Src/Traffic_Light.c ****                 TLYellowDelay = orangeDelay;
 360              		.loc 1 131 15 view .LVU108
 361 00fa 002B     		cmp	r3, #0
 362 00fc A9D1     		bne	.L5
 132:Core/Src/Traffic_Light.c ****                 msTick = 1;
 363              		.loc 1 132 17 is_stmt 1 view .LVU109
 132:Core/Src/Traffic_Light.c ****                 msTick = 1;
 364              		.loc 1 132 31 is_stmt 0 view .LVU110
 365 00fe 0123     		movs	r3, #1
 366 0100 294A     		ldr	r2, .L28+24
 367 0102 1370     		strb	r3, [r2]
 133:Core/Src/Traffic_Light.c ****             }
 368              		.loc 1 133 17 is_stmt 1 view .LVU111
 133:Core/Src/Traffic_Light.c ****             }
 369              		.loc 1 133 24 is_stmt 0 view .LVU112
 370 0104 294A     		ldr	r2, .L28+28
 371 0106 1380     		strh	r3, [r2]	@ movhi
 135:Core/Src/Traffic_Light.c ****         }else{
 372              		.loc 1 135 13 is_stmt 1 view .LVU113
 135:Core/Src/Traffic_Light.c ****         }else{
 373              		.loc 1 135 20 is_stmt 0 view .LVU114
 374 0108 A3E7     		b	.L5
 375              	.L16:
 137:Core/Src/Traffic_Light.c ****                 TLYellowDelay = orangeDelay;
 376              		.loc 1 137 13 is_stmt 1 view .LVU115
 137:Core/Src/Traffic_Light.c ****                 TLYellowDelay = orangeDelay;
 377              		.loc 1 137 21 is_stmt 0 view .LVU116
 378 010a 9DF80430 		ldrb	r3, [sp, #4]	@ zero_extendqisi2
 137:Core/Src/Traffic_Light.c ****                 TLYellowDelay = orangeDelay;
 379              		.loc 1 137 15 view .LVU117
 380 010e 012B     		cmp	r3, #1
 381 0110 01D0     		beq	.L26
 382              	.L18:
 142:Core/Src/Traffic_Light.c ****         }
 383              		.loc 1 142 13 is_stmt 1 view .LVU118
 142:Core/Src/Traffic_Light.c ****         }
 384              		.loc 1 142 20 is_stmt 0 view .LVU119
 385 0112 0020     		movs	r0, #0
 386 0114 9DE7     		b	.L5
 387              	.L26:
 138:Core/Src/Traffic_Light.c ****                 R2GDelay = RedToGreenDelay + 1;
 388              		.loc 1 138 17 is_stmt 1 view .LVU120
 138:Core/Src/Traffic_Light.c ****                 R2GDelay = RedToGreenDelay + 1;
 389              		.loc 1 138 31 is_stmt 0 view .LVU121
 390 0116 244A     		ldr	r2, .L28+24
 391 0118 1370     		strb	r3, [r2]
 139:Core/Src/Traffic_Light.c ****                 msTick = 1;
 392              		.loc 1 139 17 is_stmt 1 view .LVU122
 139:Core/Src/Traffic_Light.c ****                 msTick = 1;
 393              		.loc 1 139 26 is_stmt 0 view .LVU123
 394 011a 224A     		ldr	r2, .L28+20
 395 011c 0221     		movs	r1, #2
 396 011e 1170     		strb	r1, [r2]
ARM GAS  C:\Users\ehgre\AppData\Local\Temp\ccd3aLcI.s 			page 12


 140:Core/Src/Traffic_Light.c ****             }
 397              		.loc 1 140 17 is_stmt 1 view .LVU124
 140:Core/Src/Traffic_Light.c ****             }
 398              		.loc 1 140 24 is_stmt 0 view .LVU125
 399 0120 224A     		ldr	r2, .L28+28
 400 0122 1380     		strh	r3, [r2]	@ movhi
 401 0124 F5E7     		b	.L18
 402              	.L15:
 144:Core/Src/Traffic_Light.c ****         if((C1.light == TLRed) && (C3.light == TLRed) && (CW1 != PLGreen) && (CW2 != PLGreen) && (N
 403              		.loc 1 144 11 is_stmt 1 view .LVU126
 144:Core/Src/Traffic_Light.c ****         if((C1.light == TLRed) && (C3.light == TLRed) && (CW1 != PLGreen) && (CW2 != PLGreen) && (N
 404              		.loc 1 144 14 is_stmt 0 view .LVU127
 405 0126 2749     		ldr	r1, .L28+52
 406 0128 6846     		mov	r0, sp
 407 012a FFF7FEFF 		bl	strcmp
 408              	.LVL3:
 144:Core/Src/Traffic_Light.c ****         if((C1.light == TLRed) && (C3.light == TLRed) && (CW1 != PLGreen) && (CW2 != PLGreen) && (N
 409              		.loc 1 144 13 view .LVU128
 410 012e 0028     		cmp	r0, #0
 411 0130 8FD1     		bne	.L5
 145:Core/Src/Traffic_Light.c ****             if(state.light == TLRed){
 412              		.loc 1 145 9 is_stmt 1 view .LVU129
 145:Core/Src/Traffic_Light.c ****             if(state.light == TLRed){
 413              		.loc 1 145 15 is_stmt 0 view .LVU130
 414 0132 224B     		ldr	r3, .L28+44
 415 0134 1B79     		ldrb	r3, [r3, #4]	@ zero_extendqisi2
 145:Core/Src/Traffic_Light.c ****             if(state.light == TLRed){
 416              		.loc 1 145 11 view .LVU131
 417 0136 E3B9     		cbnz	r3, .L20
 145:Core/Src/Traffic_Light.c ****             if(state.light == TLRed){
 418              		.loc 1 145 38 discriminator 1 view .LVU132
 419 0138 214B     		ldr	r3, .L28+48
 420 013a 1B79     		ldrb	r3, [r3, #4]	@ zero_extendqisi2
 145:Core/Src/Traffic_Light.c ****             if(state.light == TLRed){
 421              		.loc 1 145 32 discriminator 1 view .LVU133
 422 013c CBB9     		cbnz	r3, .L20
 145:Core/Src/Traffic_Light.c ****             if(state.light == TLRed){
 423              		.loc 1 145 63 discriminator 2 view .LVU134
 424 013e 174B     		ldr	r3, .L28+12
 425 0140 1B78     		ldrb	r3, [r3]	@ zero_extendqisi2
 145:Core/Src/Traffic_Light.c ****             if(state.light == TLRed){
 426              		.loc 1 145 55 discriminator 2 view .LVU135
 427 0142 012B     		cmp	r3, #1
 428 0144 15D0     		beq	.L20
 145:Core/Src/Traffic_Light.c ****             if(state.light == TLRed){
 429              		.loc 1 145 83 discriminator 3 view .LVU136
 430 0146 1B4B     		ldr	r3, .L28+36
 431 0148 1B78     		ldrb	r3, [r3]	@ zero_extendqisi2
 145:Core/Src/Traffic_Light.c ****             if(state.light == TLRed){
 432              		.loc 1 145 75 discriminator 3 view .LVU137
 433 014a 012B     		cmp	r3, #1
 434 014c 11D0     		beq	.L20
 145:Core/Src/Traffic_Light.c ****             if(state.light == TLRed){
 435              		.loc 1 145 114 discriminator 4 view .LVU138
 436 014e 144B     		ldr	r3, .L28+16
 437 0150 1878     		ldrb	r0, [r3]	@ zero_extendqisi2
 145:Core/Src/Traffic_Light.c ****             if(state.light == TLRed){
ARM GAS  C:\Users\ehgre\AppData\Local\Temp\ccd3aLcI.s 			page 13


 438              		.loc 1 145 95 discriminator 4 view .LVU139
 439 0152 0128     		cmp	r0, #1
 440 0154 0DD1     		bne	.L20
 145:Core/Src/Traffic_Light.c ****             if(state.light == TLRed){
 441              		.loc 1 145 134 discriminator 5 view .LVU140
 442 0156 134B     		ldr	r3, .L28+20
 443 0158 1B78     		ldrb	r3, [r3]	@ zero_extendqisi2
 145:Core/Src/Traffic_Light.c ****             if(state.light == TLRed){
 444              		.loc 1 145 121 discriminator 5 view .LVU141
 445 015a 53B9     		cbnz	r3, .L20
 146:Core/Src/Traffic_Light.c ****                 TLYellowDelay = orangeDelay;
 446              		.loc 1 146 13 is_stmt 1 view .LVU142
 146:Core/Src/Traffic_Light.c ****                 TLYellowDelay = orangeDelay;
 447              		.loc 1 146 21 is_stmt 0 view .LVU143
 448 015c 9DF80430 		ldrb	r3, [sp, #4]	@ zero_extendqisi2
 146:Core/Src/Traffic_Light.c ****                 TLYellowDelay = orangeDelay;
 449              		.loc 1 146 15 view .LVU144
 450 0160 002B     		cmp	r3, #0
 451 0162 7FF476AF 		bne	.L5
 147:Core/Src/Traffic_Light.c ****                 msTick = 1;
 452              		.loc 1 147 17 is_stmt 1 view .LVU145
 147:Core/Src/Traffic_Light.c ****                 msTick = 1;
 453              		.loc 1 147 31 is_stmt 0 view .LVU146
 454 0166 0123     		movs	r3, #1
 455 0168 0F4A     		ldr	r2, .L28+24
 456 016a 1370     		strb	r3, [r2]
 148:Core/Src/Traffic_Light.c ****             }
 457              		.loc 1 148 17 is_stmt 1 view .LVU147
 148:Core/Src/Traffic_Light.c ****             }
 458              		.loc 1 148 24 is_stmt 0 view .LVU148
 459 016c 0F4A     		ldr	r2, .L28+28
 460 016e 1380     		strh	r3, [r2]	@ movhi
 150:Core/Src/Traffic_Light.c ****         }else{
 461              		.loc 1 150 13 is_stmt 1 view .LVU149
 150:Core/Src/Traffic_Light.c ****         }else{
 462              		.loc 1 150 20 is_stmt 0 view .LVU150
 463 0170 6FE7     		b	.L5
 464              	.L20:
 152:Core/Src/Traffic_Light.c ****                 TLYellowDelay = orangeDelay;
 465              		.loc 1 152 13 is_stmt 1 view .LVU151
 152:Core/Src/Traffic_Light.c ****                 TLYellowDelay = orangeDelay;
 466              		.loc 1 152 21 is_stmt 0 view .LVU152
 467 0172 9DF80430 		ldrb	r3, [sp, #4]	@ zero_extendqisi2
 152:Core/Src/Traffic_Light.c ****                 TLYellowDelay = orangeDelay;
 468              		.loc 1 152 15 view .LVU153
 469 0176 012B     		cmp	r3, #1
 470 0178 01D0     		beq	.L27
 471              	.L22:
 157:Core/Src/Traffic_Light.c ****         }
 472              		.loc 1 157 13 is_stmt 1 view .LVU154
 157:Core/Src/Traffic_Light.c ****         }
 473              		.loc 1 157 20 is_stmt 0 view .LVU155
 474 017a 0020     		movs	r0, #0
 475 017c 69E7     		b	.L5
 476              	.L27:
 153:Core/Src/Traffic_Light.c ****                 R2GDelay = RedToGreenDelay + 1;
 477              		.loc 1 153 17 is_stmt 1 view .LVU156
ARM GAS  C:\Users\ehgre\AppData\Local\Temp\ccd3aLcI.s 			page 14


 153:Core/Src/Traffic_Light.c ****                 R2GDelay = RedToGreenDelay + 1;
 478              		.loc 1 153 31 is_stmt 0 view .LVU157
 479 017e 0A4A     		ldr	r2, .L28+24
 480 0180 1370     		strb	r3, [r2]
 154:Core/Src/Traffic_Light.c ****                 msTick = 1;
 481              		.loc 1 154 17 is_stmt 1 view .LVU158
 154:Core/Src/Traffic_Light.c ****                 msTick = 1;
 482              		.loc 1 154 26 is_stmt 0 view .LVU159
 483 0182 084A     		ldr	r2, .L28+20
 484 0184 0221     		movs	r1, #2
 485 0186 1170     		strb	r1, [r2]
 155:Core/Src/Traffic_Light.c ****             }
 486              		.loc 1 155 17 is_stmt 1 view .LVU160
 155:Core/Src/Traffic_Light.c ****             }
 487              		.loc 1 155 24 is_stmt 0 view .LVU161
 488 0188 084A     		ldr	r2, .L28+28
 489 018a 1380     		strh	r3, [r2]	@ movhi
 490 018c F5E7     		b	.L22
 491              	.L29:
 492 018e 00BF     		.align	2
 493              	.L28:
 494 0190 00000000 		.word	.LC0
 495 0194 00000000 		.word	C2
 496 0198 00000000 		.word	C4
 497 019c 00000000 		.word	CW1
 498 01a0 00000000 		.word	NCWaitingState
 499 01a4 00000000 		.word	R2GDelay
 500 01a8 00000000 		.word	TLYellowDelay
 501 01ac 00000000 		.word	msTick
 502 01b0 04000000 		.word	.LC1
 503 01b4 00000000 		.word	CW2
 504 01b8 08000000 		.word	.LC2
 505 01bc 00000000 		.word	C1
 506 01c0 00000000 		.word	C3
 507 01c4 0C000000 		.word	.LC3
 508              		.cfi_endproc
 509              	.LFE321:
 511              		.section	.text.checkAndChangeTL,"ax",%progbits
 512              		.align	1
 513              		.global	checkAndChangeTL
 514              		.syntax unified
 515              		.thumb
 516              		.thumb_func
 518              	checkAndChangeTL:
 519              	.LFB322:
 161:Core/Src/Traffic_Light.c **** 
 162:Core/Src/Traffic_Light.c **** void checkAndChangeTL(){
 520              		.loc 1 162 24 is_stmt 1 view -0
 521              		.cfi_startproc
 522              		@ args = 0, pretend = 0, frame = 0
 523              		@ frame_needed = 0, uses_anonymous_args = 0
 524 0000 10B5     		push	{r4, lr}
 525              	.LCFI6:
 526              		.cfi_def_cfa_offset 8
 527              		.cfi_offset 4, -8
 528              		.cfi_offset 14, -4
 163:Core/Src/Traffic_Light.c ****     C3.light = IsIllegalGreenState(C3);
ARM GAS  C:\Users\ehgre\AppData\Local\Temp\ccd3aLcI.s 			page 15


 529              		.loc 1 163 5 view .LVU163
 530              		.loc 1 163 16 is_stmt 0 view .LVU164
 531 0002 0C4C     		ldr	r4, .L32
 532 0004 94E80300 		ldm	r4, {r0, r1}
 533 0008 FFF7FEFF 		bl	IsIllegalGreenState
 534              	.LVL4:
 535              		.loc 1 163 14 view .LVU165
 536 000c 2071     		strb	r0, [r4, #4]
 164:Core/Src/Traffic_Light.c ****     C1.light = IsIllegalGreenState(C1);
 537              		.loc 1 164 5 is_stmt 1 view .LVU166
 538              		.loc 1 164 16 is_stmt 0 view .LVU167
 539 000e 0A4C     		ldr	r4, .L32+4
 540 0010 94E80300 		ldm	r4, {r0, r1}
 541 0014 FFF7FEFF 		bl	IsIllegalGreenState
 542              	.LVL5:
 543              		.loc 1 164 14 view .LVU168
 544 0018 2071     		strb	r0, [r4, #4]
 165:Core/Src/Traffic_Light.c ****     C2.light = IsIllegalGreenState(C2);
 545              		.loc 1 165 5 is_stmt 1 view .LVU169
 546              		.loc 1 165 16 is_stmt 0 view .LVU170
 547 001a 084C     		ldr	r4, .L32+8
 548 001c 94E80300 		ldm	r4, {r0, r1}
 549 0020 FFF7FEFF 		bl	IsIllegalGreenState
 550              	.LVL6:
 551              		.loc 1 165 14 view .LVU171
 552 0024 2071     		strb	r0, [r4, #4]
 166:Core/Src/Traffic_Light.c ****     C4.light = IsIllegalGreenState(C4);
 553              		.loc 1 166 5 is_stmt 1 view .LVU172
 554              		.loc 1 166 16 is_stmt 0 view .LVU173
 555 0026 064C     		ldr	r4, .L32+12
 556 0028 94E80300 		ldm	r4, {r0, r1}
 557 002c FFF7FEFF 		bl	IsIllegalGreenState
 558              	.LVL7:
 559              		.loc 1 166 14 view .LVU174
 560 0030 2071     		strb	r0, [r4, #4]
 167:Core/Src/Traffic_Light.c **** }
 561              		.loc 1 167 1 view .LVU175
 562 0032 10BD     		pop	{r4, pc}
 563              	.L33:
 564              		.align	2
 565              	.L32:
 566 0034 00000000 		.word	C3
 567 0038 00000000 		.word	C1
 568 003c 00000000 		.word	C2
 569 0040 00000000 		.word	C4
 570              		.cfi_endproc
 571              	.LFE322:
 573              		.section	.text.traffic_lights,"ax",%progbits
 574              		.align	1
 575              		.global	traffic_lights
 576              		.syntax unified
 577              		.thumb
 578              		.thumb_func
 580              	traffic_lights:
 581              	.LFB323:
 168:Core/Src/Traffic_Light.c **** 
 169:Core/Src/Traffic_Light.c **** void traffic_lights(){
ARM GAS  C:\Users\ehgre\AppData\Local\Temp\ccd3aLcI.s 			page 16


 582              		.loc 1 169 22 is_stmt 1 view -0
 583              		.cfi_startproc
 584              		@ Volatile: function does not return.
 585              		@ args = 0, pretend = 0, frame = 0
 586              		@ frame_needed = 0, uses_anonymous_args = 0
 587 0000 08B5     		push	{r3, lr}
 588              	.LCFI7:
 589              		.cfi_def_cfa_offset 8
 590              		.cfi_offset 3, -8
 591              		.cfi_offset 14, -4
 170:Core/Src/Traffic_Light.c ****     HAL_TIM_Base_Start_IT(&htim16);
 592              		.loc 1 170 5 view .LVU177
 593 0002 3848     		ldr	r0, .L94
 594 0004 FFF7FEFF 		bl	HAL_TIM_Base_Start_IT
 595              	.LVL8:
 171:Core/Src/Traffic_Light.c **** 
 172:Core/Src/Traffic_Light.c ****     Init_States();
 596              		.loc 1 172 5 view .LVU178
 597 0008 FFF7FEFF 		bl	Init_States
 598              	.LVL9:
 173:Core/Src/Traffic_Light.c **** 
 174:Core/Src/Traffic_Light.c ****     Show_All_DelayBars(true, 0);
 599              		.loc 1 174 5 view .LVU179
 600 000c 0021     		movs	r1, #0
 601 000e 0120     		movs	r0, #1
 602 0010 FFF7FEFF 		bl	Show_All_DelayBars
 603              	.LVL10:
 175:Core/Src/Traffic_Light.c **** 
 176:Core/Src/Traffic_Light.c ****     bits = Init_Task2(bits);
 604              		.loc 1 176 5 view .LVU180
 605              		.loc 1 176 12 is_stmt 0 view .LVU181
 606 0014 344C     		ldr	r4, .L94+4
 607 0016 2068     		ldr	r0, [r4]
 608 0018 FFF7FEFF 		bl	Init_Task2
 609              	.LVL11:
 610              		.loc 1 176 10 view .LVU182
 611 001c 2060     		str	r0, [r4]
 612 001e D1E0     		b	.L35
 613              	.L88:
 177:Core/Src/Traffic_Light.c ****     
 178:Core/Src/Traffic_Light.c ****     while(1){
 179:Core/Src/Traffic_Light.c **** 
 180:Core/Src/Traffic_Light.c ****         brightness = getPotiPercent();
 181:Core/Src/Traffic_Light.c **** 
 182:Core/Src/Traffic_Light.c ****         NoCarsWaiting = true;
 183:Core/Src/Traffic_Light.c **** 
 184:Core/Src/Traffic_Light.c ****        if(is_car3() || is_car1()){
 185:Core/Src/Traffic_Light.c ****             NoCarsWaiting = false;
 186:Core/Src/Traffic_Light.c ****             if(!(is_car4() || is_car2())){
 614              		.loc 1 186 31 discriminator 1 view .LVU183
 615 0020 FFF7FEFF 		bl	is_car2
 616              	.LVL12:
 617              		.loc 1 186 16 discriminator 1 view .LVU184
 618 0024 0028     		cmp	r0, #0
 619 0026 40F0E280 		bne	.L37
 187:Core/Src/Traffic_Light.c ****                 NCWaitingState = G1;
 620              		.loc 1 187 17 is_stmt 1 view .LVU185
ARM GAS  C:\Users\ehgre\AppData\Local\Temp\ccd3aLcI.s 			page 17


 621              		.loc 1 187 32 is_stmt 0 view .LVU186
 622 002a 0024     		movs	r4, #0
 623 002c 2F4B     		ldr	r3, .L94+8
 624 002e 1C70     		strb	r4, [r3]
 188:Core/Src/Traffic_Light.c ****                 checkAndChangeTL();
 625              		.loc 1 188 17 is_stmt 1 view .LVU187
 626 0030 FFF7FEFF 		bl	checkAndChangeTL
 627              	.LVL13:
 189:Core/Src/Traffic_Light.c ****                 TLRedWaitTime = 0;
 628              		.loc 1 189 17 view .LVU188
 629              		.loc 1 189 31 is_stmt 0 view .LVU189
 630 0034 2E4B     		ldr	r3, .L94+12
 631 0036 1C70     		strb	r4, [r3]
 632 0038 D9E0     		b	.L37
 633              	.L89:
 190:Core/Src/Traffic_Light.c ****             }
 191:Core/Src/Traffic_Light.c ****        }
 192:Core/Src/Traffic_Light.c **** 
 193:Core/Src/Traffic_Light.c ****        if(is_car4() || is_car2()){
 194:Core/Src/Traffic_Light.c ****             NoCarsWaiting = false;
 195:Core/Src/Traffic_Light.c ****             if(!(is_car1() || is_car3())){
 634              		.loc 1 195 31 discriminator 1 view .LVU190
 635 003a FFF7FEFF 		bl	is_car3
 636              	.LVL14:
 637              		.loc 1 195 16 discriminator 1 view .LVU191
 638 003e 0028     		cmp	r0, #0
 639 0040 40F0E380 		bne	.L39
 196:Core/Src/Traffic_Light.c ****                 NCWaitingState = G2;
 640              		.loc 1 196 17 is_stmt 1 view .LVU192
 641              		.loc 1 196 32 is_stmt 0 view .LVU193
 642 0044 294B     		ldr	r3, .L94+8
 643 0046 0122     		movs	r2, #1
 644 0048 1A70     		strb	r2, [r3]
 197:Core/Src/Traffic_Light.c ****                 checkAndChangeTL();
 645              		.loc 1 197 17 is_stmt 1 view .LVU194
 646 004a FFF7FEFF 		bl	checkAndChangeTL
 647              	.LVL15:
 198:Core/Src/Traffic_Light.c ****                 TLRedWaitTime = 0;
 648              		.loc 1 198 17 view .LVU195
 649              		.loc 1 198 31 is_stmt 0 view .LVU196
 650 004e 284B     		ldr	r3, .L94+12
 651 0050 0022     		movs	r2, #0
 652 0052 1A70     		strb	r2, [r3]
 653 0054 D9E0     		b	.L39
 654              	.L45:
 199:Core/Src/Traffic_Light.c ****             }
 200:Core/Src/Traffic_Light.c ****        }
 201:Core/Src/Traffic_Light.c **** 
 202:Core/Src/Traffic_Light.c ****        if((is_car4() || is_car2()) && (is_car1() || is_car3())){
 203:Core/Src/Traffic_Light.c ****             checkAndChangeTL();
 204:Core/Src/Traffic_Light.c ****             if((TLRedWaitTime == 0) && (R2GDelay == 0)){
 205:Core/Src/Traffic_Light.c ****                 TLRedWaitTime = redDelayMax;
 206:Core/Src/Traffic_Light.c ****             }
 207:Core/Src/Traffic_Light.c ****        }
 208:Core/Src/Traffic_Light.c **** 
 209:Core/Src/Traffic_Light.c ****        if(is_pl1() && (CW2 == PLRed)){
 210:Core/Src/Traffic_Light.c ****             CW1 = PLBlue;
ARM GAS  C:\Users\ehgre\AppData\Local\Temp\ccd3aLcI.s 			page 18


 211:Core/Src/Traffic_Light.c ****             PLBlueDelay = pedestrianDelay;
 212:Core/Src/Traffic_Light.c ****         }
 213:Core/Src/Traffic_Light.c **** 
 214:Core/Src/Traffic_Light.c ****         if(is_pl2() && (CW1 == PLRed)){
 215:Core/Src/Traffic_Light.c ****             CW2 = PLBlue;
 216:Core/Src/Traffic_Light.c ****             PLBlueDelay = pedestrianDelay;
 217:Core/Src/Traffic_Light.c ****         }
 218:Core/Src/Traffic_Light.c **** 
 219:Core/Src/Traffic_Light.c ****        if(NoCarsWaiting){
 220:Core/Src/Traffic_Light.c ****             checkAndChangeTL();
 221:Core/Src/Traffic_Light.c ****             if((NCWaitingDelay == 0) && (R2GDelay == 0)){
 222:Core/Src/Traffic_Light.c ****                 NCWaitingDelay = greenDelay;
 223:Core/Src/Traffic_Light.c ****             }
 224:Core/Src/Traffic_Light.c ****             HAL_GPIO_WritePin(USR_LED2_GPIO_Port, USR_LED2_Pin, GPIO_PIN_SET);
 225:Core/Src/Traffic_Light.c ****        }else{
 226:Core/Src/Traffic_Light.c ****             HAL_GPIO_WritePin(USR_LED2_GPIO_Port, USR_LED2_Pin, GPIO_PIN_RESET);
 655              		.loc 1 226 13 is_stmt 1 view .LVU197
 656 0056 0022     		movs	r2, #0
 657 0058 4FF40041 		mov	r1, #32768
 658 005c 2548     		ldr	r0, .L94+16
 659 005e FFF7FEFF 		bl	HAL_GPIO_WritePin
 660              	.LVL16:
 227:Core/Src/Traffic_Light.c ****             NCWaitingDelay = 0;
 661              		.loc 1 227 13 view .LVU198
 662              		.loc 1 227 28 is_stmt 0 view .LVU199
 663 0062 0024     		movs	r4, #0
 664 0064 244B     		ldr	r3, .L94+20
 665 0066 1C70     		strb	r4, [r3]
 228:Core/Src/Traffic_Light.c ****             Show_G1Bar(true, 0);
 666              		.loc 1 228 13 is_stmt 1 view .LVU200
 667 0068 2146     		mov	r1, r4
 668 006a 0120     		movs	r0, #1
 669 006c FFF7FEFF 		bl	Show_G1Bar
 670              	.LVL17:
 229:Core/Src/Traffic_Light.c ****             Show_G2Bar(true, 0);
 671              		.loc 1 229 13 view .LVU201
 672 0070 2146     		mov	r1, r4
 673 0072 0120     		movs	r0, #1
 674 0074 FFF7FEFF 		bl	Show_G2Bar
 675              	.LVL18:
 676 0078 0CE1     		b	.L47
 677              	.L90:
 230:Core/Src/Traffic_Light.c ****        }
 231:Core/Src/Traffic_Light.c **** 
 232:Core/Src/Traffic_Light.c ****         switch (C1.light){
 233:Core/Src/Traffic_Light.c ****             case TLGreen:
 234:Core/Src/Traffic_Light.c ****                 if((TLYellowDelay > 0) && (!TL1_isGreen(bits))){
 235:Core/Src/Traffic_Light.c ****                     bits = TL1_Green(bits, false);
 678              		.loc 1 235 21 view .LVU202
 679              		.loc 1 235 28 is_stmt 0 view .LVU203
 680 007a 1B4C     		ldr	r4, .L94+4
 681 007c 0021     		movs	r1, #0
 682 007e 2068     		ldr	r0, [r4]
 683 0080 FFF7FEFF 		bl	TL1_Green
 684              	.LVL19:
 685              		.loc 1 235 26 view .LVU204
 686 0084 2060     		str	r0, [r4]
ARM GAS  C:\Users\ehgre\AppData\Local\Temp\ccd3aLcI.s 			page 19


 236:Core/Src/Traffic_Light.c ****                     bits = TL1_Red(bits, true);
 687              		.loc 1 236 21 is_stmt 1 view .LVU205
 688              		.loc 1 236 28 is_stmt 0 view .LVU206
 689 0086 0121     		movs	r1, #1
 690 0088 FFF7FEFF 		bl	TL1_Red
 691              	.LVL20:
 692              		.loc 1 236 26 view .LVU207
 693 008c 2060     		str	r0, [r4]
 237:Core/Src/Traffic_Light.c ****                     bits = TL1_Yellow(bits, true);
 694              		.loc 1 237 21 is_stmt 1 view .LVU208
 695              		.loc 1 237 28 is_stmt 0 view .LVU209
 696 008e 0121     		movs	r1, #1
 697 0090 FFF7FEFF 		bl	TL1_Yellow
 698              	.LVL21:
 699              		.loc 1 237 26 view .LVU210
 700 0094 2060     		str	r0, [r4]
 701 0096 1CE1     		b	.L49
 702              	.L48:
 238:Core/Src/Traffic_Light.c ****                 }else{
 239:Core/Src/Traffic_Light.c ****                     bits = TL1_Green(bits, true);
 240:Core/Src/Traffic_Light.c ****                     bits = TL1_Red(bits, false);
 241:Core/Src/Traffic_Light.c ****                     bits = TL1_Yellow(bits, false);
 242:Core/Src/Traffic_Light.c ****                 }
 243:Core/Src/Traffic_Light.c ****                 break;
 244:Core/Src/Traffic_Light.c ****             case TLRed:
 245:Core/Src/Traffic_Light.c ****                 if((TLYellowDelay > 0) && (!TL1_isRed(bits))){
 703              		.loc 1 245 17 is_stmt 1 view .LVU211
 704              		.loc 1 245 35 is_stmt 0 view .LVU212
 705 0098 184B     		ldr	r3, .L94+24
 706 009a 1B78     		ldrb	r3, [r3]	@ zero_extendqisi2
 707              		.loc 1 245 19 view .LVU213
 708 009c 23B1     		cbz	r3, .L51
 709              		.loc 1 245 45 discriminator 1 view .LVU214
 710 009e 124B     		ldr	r3, .L94+4
 711 00a0 1868     		ldr	r0, [r3]
 712 00a2 FFF7FEFF 		bl	TL1_isRed
 713              	.LVL22:
 714              		.loc 1 245 40 discriminator 1 view .LVU215
 715 00a6 70B1     		cbz	r0, .L83
 716              	.L51:
 246:Core/Src/Traffic_Light.c ****                     bits = TL1_Green(bits, false);
 247:Core/Src/Traffic_Light.c ****                     bits = TL1_Red(bits, false);
 248:Core/Src/Traffic_Light.c ****                     bits = TL1_Yellow(bits, true);
 249:Core/Src/Traffic_Light.c ****                 }else{
 250:Core/Src/Traffic_Light.c ****                     bits = TL1_Green(bits, false);
 717              		.loc 1 250 21 is_stmt 1 view .LVU216
 718              		.loc 1 250 28 is_stmt 0 view .LVU217
 719 00a8 0F4C     		ldr	r4, .L94+4
 720 00aa 0021     		movs	r1, #0
 721 00ac 2068     		ldr	r0, [r4]
 722 00ae FFF7FEFF 		bl	TL1_Green
 723              	.LVL23:
 724              		.loc 1 250 26 view .LVU218
 725 00b2 2060     		str	r0, [r4]
 251:Core/Src/Traffic_Light.c ****                     bits = TL1_Red(bits, true);
 726              		.loc 1 251 21 is_stmt 1 view .LVU219
 727              		.loc 1 251 28 is_stmt 0 view .LVU220
ARM GAS  C:\Users\ehgre\AppData\Local\Temp\ccd3aLcI.s 			page 20


 728 00b4 0121     		movs	r1, #1
 729 00b6 FFF7FEFF 		bl	TL1_Red
 730              	.LVL24:
 731              		.loc 1 251 26 view .LVU221
 732 00ba 2060     		str	r0, [r4]
 252:Core/Src/Traffic_Light.c ****                     bits = TL1_Yellow(bits, false);
 733              		.loc 1 252 21 is_stmt 1 view .LVU222
 734              		.loc 1 252 28 is_stmt 0 view .LVU223
 735 00bc 0021     		movs	r1, #0
 736 00be FFF7FEFF 		bl	TL1_Yellow
 737              	.LVL25:
 738              		.loc 1 252 26 view .LVU224
 739 00c2 2060     		str	r0, [r4]
 740 00c4 05E1     		b	.L49
 741              	.L83:
 246:Core/Src/Traffic_Light.c ****                     bits = TL1_Green(bits, false);
 742              		.loc 1 246 21 is_stmt 1 view .LVU225
 246:Core/Src/Traffic_Light.c ****                     bits = TL1_Green(bits, false);
 743              		.loc 1 246 28 is_stmt 0 view .LVU226
 744 00c6 084C     		ldr	r4, .L94+4
 745 00c8 0021     		movs	r1, #0
 746 00ca 2068     		ldr	r0, [r4]
 747 00cc FFF7FEFF 		bl	TL1_Green
 748              	.LVL26:
 246:Core/Src/Traffic_Light.c ****                     bits = TL1_Green(bits, false);
 749              		.loc 1 246 26 view .LVU227
 750 00d0 2060     		str	r0, [r4]
 247:Core/Src/Traffic_Light.c ****                     bits = TL1_Yellow(bits, true);
 751              		.loc 1 247 21 is_stmt 1 view .LVU228
 247:Core/Src/Traffic_Light.c ****                     bits = TL1_Yellow(bits, true);
 752              		.loc 1 247 28 is_stmt 0 view .LVU229
 753 00d2 0021     		movs	r1, #0
 754 00d4 FFF7FEFF 		bl	TL1_Red
 755              	.LVL27:
 247:Core/Src/Traffic_Light.c ****                     bits = TL1_Yellow(bits, true);
 756              		.loc 1 247 26 view .LVU230
 757 00d8 2060     		str	r0, [r4]
 248:Core/Src/Traffic_Light.c ****                 }else{
 758              		.loc 1 248 21 is_stmt 1 view .LVU231
 248:Core/Src/Traffic_Light.c ****                 }else{
 759              		.loc 1 248 28 is_stmt 0 view .LVU232
 760 00da 0121     		movs	r1, #1
 761 00dc FFF7FEFF 		bl	TL1_Yellow
 762              	.LVL28:
 248:Core/Src/Traffic_Light.c ****                 }else{
 763              		.loc 1 248 26 view .LVU233
 764 00e0 2060     		str	r0, [r4]
 765 00e2 F6E0     		b	.L49
 766              	.L95:
 767              		.align	2
 768              	.L94:
 769 00e4 00000000 		.word	htim16
 770 00e8 00000000 		.word	bits
 771 00ec 00000000 		.word	NCWaitingState
 772 00f0 00000000 		.word	TLRedWaitTime
 773 00f4 00040048 		.word	1207960576
 774 00f8 00000000 		.word	NCWaitingDelay
ARM GAS  C:\Users\ehgre\AppData\Local\Temp\ccd3aLcI.s 			page 21


 775 00fc 00000000 		.word	TLYellowDelay
 776              	.L54:
 253:Core/Src/Traffic_Light.c ****                 }
 254:Core/Src/Traffic_Light.c ****                 break;
 255:Core/Src/Traffic_Light.c ****             default:
 256:Core/Src/Traffic_Light.c ****                 break;
 257:Core/Src/Traffic_Light.c ****         }
 258:Core/Src/Traffic_Light.c **** 
 259:Core/Src/Traffic_Light.c ****         switch (C2.light){
 260:Core/Src/Traffic_Light.c ****             case TLGreen:
 261:Core/Src/Traffic_Light.c ****                 if((TLYellowDelay > 0) && (!TL2_isGreen(bits))){
 262:Core/Src/Traffic_Light.c ****                     bits = TL2_Green(bits, false);
 263:Core/Src/Traffic_Light.c ****                     bits = TL2_Red(bits, true);
 264:Core/Src/Traffic_Light.c ****                     bits = TL2_Yellow(bits, true);
 265:Core/Src/Traffic_Light.c ****                 }else{
 266:Core/Src/Traffic_Light.c ****                     bits = TL2_Green(bits, true);
 777              		.loc 1 266 21 is_stmt 1 view .LVU234
 778              		.loc 1 266 28 is_stmt 0 view .LVU235
 779 0100 974C     		ldr	r4, .L96
 780 0102 0121     		movs	r1, #1
 781 0104 2068     		ldr	r0, [r4]
 782 0106 FFF7FEFF 		bl	TL2_Green
 783              	.LVL29:
 784              		.loc 1 266 26 view .LVU236
 785 010a 2060     		str	r0, [r4]
 267:Core/Src/Traffic_Light.c ****                     bits = TL2_Red(bits, false);
 786              		.loc 1 267 21 is_stmt 1 view .LVU237
 787              		.loc 1 267 28 is_stmt 0 view .LVU238
 788 010c 0021     		movs	r1, #0
 789 010e FFF7FEFF 		bl	TL2_Red
 790              	.LVL30:
 791              		.loc 1 267 26 view .LVU239
 792 0112 2060     		str	r0, [r4]
 268:Core/Src/Traffic_Light.c ****                     bits = TL2_Yellow(bits, false);
 793              		.loc 1 268 21 is_stmt 1 view .LVU240
 794              		.loc 1 268 28 is_stmt 0 view .LVU241
 795 0114 0021     		movs	r1, #0
 796 0116 FFF7FEFF 		bl	TL2_Yellow
 797              	.LVL31:
 798              		.loc 1 268 26 view .LVU242
 799 011a 2060     		str	r0, [r4]
 800              	.L53:
 269:Core/Src/Traffic_Light.c ****                 }
 270:Core/Src/Traffic_Light.c ****                 break;
 271:Core/Src/Traffic_Light.c ****             case TLRed:
 272:Core/Src/Traffic_Light.c ****                 if((TLYellowDelay > 0) && (!TL2_isRed(bits))){
 273:Core/Src/Traffic_Light.c ****                     bits = TL2_Green(bits, false);
 274:Core/Src/Traffic_Light.c ****                     bits = TL2_Red(bits, false);
 275:Core/Src/Traffic_Light.c ****                     bits = TL2_Yellow(bits, true);
 276:Core/Src/Traffic_Light.c ****                 }else{
 277:Core/Src/Traffic_Light.c ****                     bits = TL2_Green(bits, false);
 278:Core/Src/Traffic_Light.c ****                     bits = TL2_Red(bits, true);
 279:Core/Src/Traffic_Light.c ****                     bits = TL2_Yellow(bits, false);
 280:Core/Src/Traffic_Light.c ****                 }
 281:Core/Src/Traffic_Light.c ****                 break;
 282:Core/Src/Traffic_Light.c ****             default:
 283:Core/Src/Traffic_Light.c ****                 break;
ARM GAS  C:\Users\ehgre\AppData\Local\Temp\ccd3aLcI.s 			page 22


 284:Core/Src/Traffic_Light.c ****         }
 285:Core/Src/Traffic_Light.c **** 
 286:Core/Src/Traffic_Light.c ****         switch (C3.light){
 801              		.loc 1 286 9 is_stmt 1 view .LVU243
 802              		.loc 1 286 19 is_stmt 0 view .LVU244
 803 011c 914B     		ldr	r3, .L96+4
 804 011e 1B79     		ldrb	r3, [r3, #4]	@ zero_extendqisi2
 805              		.loc 1 286 9 view .LVU245
 806 0120 002B     		cmp	r3, #0
 807 0122 00F04A81 		beq	.L56
 808 0126 012B     		cmp	r3, #1
 809 0128 17D1     		bne	.L57
 287:Core/Src/Traffic_Light.c ****             case TLGreen:
 288:Core/Src/Traffic_Light.c ****                 if((TLYellowDelay > 0) && (!TL3_isGreen(bits))){
 810              		.loc 1 288 17 is_stmt 1 view .LVU246
 811              		.loc 1 288 35 is_stmt 0 view .LVU247
 812 012a 8F4B     		ldr	r3, .L96+8
 813 012c 1B78     		ldrb	r3, [r3]	@ zero_extendqisi2
 814              		.loc 1 288 19 view .LVU248
 815 012e 33B1     		cbz	r3, .L58
 816              		.loc 1 288 45 discriminator 1 view .LVU249
 817 0130 8B4B     		ldr	r3, .L96
 818 0132 1868     		ldr	r0, [r3]
 819 0134 FFF7FEFF 		bl	TL3_isGreen
 820              	.LVL32:
 821              		.loc 1 288 40 discriminator 1 view .LVU250
 822 0138 0028     		cmp	r0, #0
 823 013a 00F02F81 		beq	.L84
 824              	.L58:
 289:Core/Src/Traffic_Light.c ****                     bits = TL3_Green(bits, false);
 290:Core/Src/Traffic_Light.c ****                     bits = TL3_Red(bits, true);
 291:Core/Src/Traffic_Light.c ****                     bits = TL3_Yellow(bits, true);
 292:Core/Src/Traffic_Light.c ****                 }else{
 293:Core/Src/Traffic_Light.c ****                     bits = TL3_Green(bits, true);
 825              		.loc 1 293 21 is_stmt 1 view .LVU251
 826              		.loc 1 293 28 is_stmt 0 view .LVU252
 827 013e 884C     		ldr	r4, .L96
 828 0140 0121     		movs	r1, #1
 829 0142 2068     		ldr	r0, [r4]
 830 0144 FFF7FEFF 		bl	TL3_Green
 831              	.LVL33:
 832              		.loc 1 293 26 view .LVU253
 833 0148 2060     		str	r0, [r4]
 294:Core/Src/Traffic_Light.c ****                     bits = TL3_Red(bits, false);
 834              		.loc 1 294 21 is_stmt 1 view .LVU254
 835              		.loc 1 294 28 is_stmt 0 view .LVU255
 836 014a 0021     		movs	r1, #0
 837 014c FFF7FEFF 		bl	TL3_Red
 838              	.LVL34:
 839              		.loc 1 294 26 view .LVU256
 840 0150 2060     		str	r0, [r4]
 295:Core/Src/Traffic_Light.c ****                     bits = TL3_Yellow(bits, false);
 841              		.loc 1 295 21 is_stmt 1 view .LVU257
 842              		.loc 1 295 28 is_stmt 0 view .LVU258
 843 0152 0021     		movs	r1, #0
 844 0154 FFF7FEFF 		bl	TL3_Yellow
 845              	.LVL35:
ARM GAS  C:\Users\ehgre\AppData\Local\Temp\ccd3aLcI.s 			page 23


 846              		.loc 1 295 26 view .LVU259
 847 0158 2060     		str	r0, [r4]
 848              	.L57:
 296:Core/Src/Traffic_Light.c ****                 }
 297:Core/Src/Traffic_Light.c ****                 break;
 298:Core/Src/Traffic_Light.c ****             case TLRed:
 299:Core/Src/Traffic_Light.c ****                 if((TLYellowDelay > 0) && (!TL3_isRed(bits))){
 300:Core/Src/Traffic_Light.c ****                     bits = TL3_Green(bits, false);
 301:Core/Src/Traffic_Light.c ****                     bits = TL3_Red(bits, false);
 302:Core/Src/Traffic_Light.c ****                     bits = TL3_Yellow(bits, true);
 303:Core/Src/Traffic_Light.c ****                 }else{
 304:Core/Src/Traffic_Light.c ****                     bits = TL3_Green(bits, false);
 305:Core/Src/Traffic_Light.c ****                     bits = TL3_Red(bits, true);
 306:Core/Src/Traffic_Light.c ****                     bits = TL3_Yellow(bits, false);
 307:Core/Src/Traffic_Light.c ****                 }
 308:Core/Src/Traffic_Light.c ****                 break;
 309:Core/Src/Traffic_Light.c ****             default:
 310:Core/Src/Traffic_Light.c ****                 break;
 311:Core/Src/Traffic_Light.c ****         }
 312:Core/Src/Traffic_Light.c **** 
 313:Core/Src/Traffic_Light.c ****         switch (C4.light){
 849              		.loc 1 313 9 is_stmt 1 view .LVU260
 850              		.loc 1 313 19 is_stmt 0 view .LVU261
 851 015a 844B     		ldr	r3, .L96+12
 852 015c 1B79     		ldrb	r3, [r3, #4]	@ zero_extendqisi2
 853              		.loc 1 313 9 view .LVU262
 854 015e 002B     		cmp	r3, #0
 855 0160 00F06081 		beq	.L60
 856 0164 012B     		cmp	r3, #1
 857 0166 17D1     		bne	.L61
 314:Core/Src/Traffic_Light.c ****             case TLGreen:
 315:Core/Src/Traffic_Light.c ****                 if((TLYellowDelay > 0) && (!TL4_isGreen(bits))){
 858              		.loc 1 315 17 is_stmt 1 view .LVU263
 859              		.loc 1 315 35 is_stmt 0 view .LVU264
 860 0168 7F4B     		ldr	r3, .L96+8
 861 016a 1B78     		ldrb	r3, [r3]	@ zero_extendqisi2
 862              		.loc 1 315 19 view .LVU265
 863 016c 33B1     		cbz	r3, .L62
 864              		.loc 1 315 45 discriminator 1 view .LVU266
 865 016e 7C4B     		ldr	r3, .L96
 866 0170 1868     		ldr	r0, [r3]
 867 0172 FFF7FEFF 		bl	TL4_isGreen
 868              	.LVL36:
 869              		.loc 1 315 40 discriminator 1 view .LVU267
 870 0176 0028     		cmp	r0, #0
 871 0178 00F04581 		beq	.L85
 872              	.L62:
 316:Core/Src/Traffic_Light.c ****                     bits = TL4_Green(bits, false);
 317:Core/Src/Traffic_Light.c ****                     bits = TL4_Red(bits, true);
 318:Core/Src/Traffic_Light.c ****                     bits = TL4_Yellow(bits, true);
 319:Core/Src/Traffic_Light.c ****                 }else{
 320:Core/Src/Traffic_Light.c ****                     bits = TL4_Green(bits, true);
 873              		.loc 1 320 21 is_stmt 1 view .LVU268
 874              		.loc 1 320 28 is_stmt 0 view .LVU269
 875 017c 784C     		ldr	r4, .L96
 876 017e 0121     		movs	r1, #1
 877 0180 2068     		ldr	r0, [r4]
ARM GAS  C:\Users\ehgre\AppData\Local\Temp\ccd3aLcI.s 			page 24


 878 0182 FFF7FEFF 		bl	TL4_Green
 879              	.LVL37:
 880              		.loc 1 320 26 view .LVU270
 881 0186 2060     		str	r0, [r4]
 321:Core/Src/Traffic_Light.c ****                     bits = TL4_Red(bits, false);
 882              		.loc 1 321 21 is_stmt 1 view .LVU271
 883              		.loc 1 321 28 is_stmt 0 view .LVU272
 884 0188 0021     		movs	r1, #0
 885 018a FFF7FEFF 		bl	TL4_Red
 886              	.LVL38:
 887              		.loc 1 321 26 view .LVU273
 888 018e 2060     		str	r0, [r4]
 322:Core/Src/Traffic_Light.c ****                     bits = TL4_Yellow(bits, false);
 889              		.loc 1 322 21 is_stmt 1 view .LVU274
 890              		.loc 1 322 28 is_stmt 0 view .LVU275
 891 0190 0021     		movs	r1, #0
 892 0192 FFF7FEFF 		bl	TL4_Yellow
 893              	.LVL39:
 894              		.loc 1 322 26 view .LVU276
 895 0196 2060     		str	r0, [r4]
 896              	.L61:
 323:Core/Src/Traffic_Light.c ****                 }
 324:Core/Src/Traffic_Light.c ****                 break;
 325:Core/Src/Traffic_Light.c ****             case TLRed:
 326:Core/Src/Traffic_Light.c ****                 if((TLYellowDelay > 0)  && (!TL4_isRed(bits))){
 327:Core/Src/Traffic_Light.c ****                     bits = TL4_Green(bits, false);
 328:Core/Src/Traffic_Light.c ****                     bits = TL4_Red(bits, false);
 329:Core/Src/Traffic_Light.c ****                     bits = TL4_Yellow(bits, true);
 330:Core/Src/Traffic_Light.c ****                 }else{
 331:Core/Src/Traffic_Light.c ****                     bits = TL4_Green(bits, false);
 332:Core/Src/Traffic_Light.c ****                     bits = TL4_Red(bits, true);
 333:Core/Src/Traffic_Light.c ****                     bits = TL4_Yellow(bits, false);
 334:Core/Src/Traffic_Light.c ****                 }
 335:Core/Src/Traffic_Light.c ****                 break;
 336:Core/Src/Traffic_Light.c ****             default:
 337:Core/Src/Traffic_Light.c ****                 break;
 338:Core/Src/Traffic_Light.c ****         }
 339:Core/Src/Traffic_Light.c **** 
 340:Core/Src/Traffic_Light.c ****         switch (CW1){
 897              		.loc 1 340 9 is_stmt 1 view .LVU277
 898 0198 754B     		ldr	r3, .L96+16
 899 019a 1B78     		ldrb	r3, [r3]	@ zero_extendqisi2
 900 019c 012B     		cmp	r3, #1
 901 019e 00F06781 		beq	.L64
 902 01a2 022B     		cmp	r3, #2
 903 01a4 00F09381 		beq	.L65
 904 01a8 002B     		cmp	r3, #0
 905 01aa 00F0B181 		beq	.L86
 906              	.L67:
 341:Core/Src/Traffic_Light.c ****             case PLGreen:
 342:Core/Src/Traffic_Light.c ****                 if((C1.light != TLRed) || (C3.light != TLRed) || (C4.light != TLRed)){
 343:Core/Src/Traffic_Light.c ****                     checkAndChangeTL();
 344:Core/Src/Traffic_Light.c ****                     TLYellowDelay = orangeDelay;
 345:Core/Src/Traffic_Light.c ****                 }else{
 346:Core/Src/Traffic_Light.c ****                     if(TLYellowDelay == 0){
 347:Core/Src/Traffic_Light.c ****                         if(PLGreenDelay > 0){
 348:Core/Src/Traffic_Light.c ****                             bits = PL1_Green(bits, true);
ARM GAS  C:\Users\ehgre\AppData\Local\Temp\ccd3aLcI.s 			page 25


 349:Core/Src/Traffic_Light.c ****                             bits = PL1_Red(bits, false);
 350:Core/Src/Traffic_Light.c ****                         }else{
 351:Core/Src/Traffic_Light.c ****                             CW1 = PLRed;
 352:Core/Src/Traffic_Light.c ****                             bits = PL1_Green(bits, false);
 353:Core/Src/Traffic_Light.c ****                             bits = PL1_Red(bits, true);
 354:Core/Src/Traffic_Light.c ****                         }
 355:Core/Src/Traffic_Light.c ****                     }
 356:Core/Src/Traffic_Light.c ****                 }
 357:Core/Src/Traffic_Light.c ****                 break;
 358:Core/Src/Traffic_Light.c ****             case PLBlue:
 359:Core/Src/Traffic_Light.c ****                 if(PLBlueDelay > 0){
 360:Core/Src/Traffic_Light.c ****                     if(BlueOn){
 361:Core/Src/Traffic_Light.c ****                         bits = PL1_Blue(bits, true);
 362:Core/Src/Traffic_Light.c ****                     }else{
 363:Core/Src/Traffic_Light.c ****                         bits = PL1_Blue(bits, false);
 364:Core/Src/Traffic_Light.c ****                     }
 365:Core/Src/Traffic_Light.c ****                 }else{
 366:Core/Src/Traffic_Light.c ****                     CW1 = PLGreen;
 367:Core/Src/Traffic_Light.c ****                     PLGreenDelay = walkingDelay;
 368:Core/Src/Traffic_Light.c ****                     bits = PL1_Blue(bits, false);
 369:Core/Src/Traffic_Light.c ****                 }
 370:Core/Src/Traffic_Light.c ****                 break;
 371:Core/Src/Traffic_Light.c ****             case PLRed:
 372:Core/Src/Traffic_Light.c ****                 bits = PL1_Red(bits,true);
 373:Core/Src/Traffic_Light.c ****                 bits = PL1_Green(bits,false);
 374:Core/Src/Traffic_Light.c ****                 break;
 375:Core/Src/Traffic_Light.c ****             default:
 376:Core/Src/Traffic_Light.c ****                 break;
 377:Core/Src/Traffic_Light.c ****         }
 378:Core/Src/Traffic_Light.c **** 
 379:Core/Src/Traffic_Light.c ****         switch (CW2){
 907              		.loc 1 379 9 view .LVU278
 908 01ae 714B     		ldr	r3, .L96+20
 909 01b0 1B78     		ldrb	r3, [r3]	@ zero_extendqisi2
 910 01b2 012B     		cmp	r3, #1
 911 01b4 00F0B781 		beq	.L73
 912 01b8 022B     		cmp	r3, #2
 913 01ba 00F0E381 		beq	.L74
 914 01be 002B     		cmp	r3, #0
 915 01c0 00F00182 		beq	.L87
 916              	.L35:
 178:Core/Src/Traffic_Light.c **** 
 917              		.loc 1 178 5 view .LVU279
 180:Core/Src/Traffic_Light.c **** 
 918              		.loc 1 180 9 view .LVU280
 180:Core/Src/Traffic_Light.c **** 
 919              		.loc 1 180 22 is_stmt 0 view .LVU281
 920 01c4 FFF7FEFF 		bl	getPotiPercent
 921              	.LVL40:
 180:Core/Src/Traffic_Light.c **** 
 922              		.loc 1 180 20 view .LVU282
 923 01c8 6B4B     		ldr	r3, .L96+24
 924 01ca 1870     		strb	r0, [r3]
 182:Core/Src/Traffic_Light.c **** 
 925              		.loc 1 182 9 is_stmt 1 view .LVU283
 182:Core/Src/Traffic_Light.c **** 
 926              		.loc 1 182 23 is_stmt 0 view .LVU284
ARM GAS  C:\Users\ehgre\AppData\Local\Temp\ccd3aLcI.s 			page 26


 927 01cc 6B4B     		ldr	r3, .L96+28
 928 01ce 0122     		movs	r2, #1
 929 01d0 1A70     		strb	r2, [r3]
 184:Core/Src/Traffic_Light.c ****             NoCarsWaiting = false;
 930              		.loc 1 184 8 is_stmt 1 view .LVU285
 184:Core/Src/Traffic_Light.c ****             NoCarsWaiting = false;
 931              		.loc 1 184 11 is_stmt 0 view .LVU286
 932 01d2 FFF7FEFF 		bl	is_car3
 933              	.LVL41:
 184:Core/Src/Traffic_Light.c ****             NoCarsWaiting = false;
 934              		.loc 1 184 10 view .LVU287
 935 01d6 10B9     		cbnz	r0, .L36
 184:Core/Src/Traffic_Light.c ****             NoCarsWaiting = false;
 936              		.loc 1 184 24 discriminator 1 view .LVU288
 937 01d8 FFF7FEFF 		bl	is_car1
 938              	.LVL42:
 184:Core/Src/Traffic_Light.c ****             NoCarsWaiting = false;
 939              		.loc 1 184 21 discriminator 1 view .LVU289
 940 01dc 38B1     		cbz	r0, .L37
 941              	.L36:
 185:Core/Src/Traffic_Light.c ****             if(!(is_car4() || is_car2())){
 942              		.loc 1 185 13 is_stmt 1 view .LVU290
 185:Core/Src/Traffic_Light.c ****             if(!(is_car4() || is_car2())){
 943              		.loc 1 185 27 is_stmt 0 view .LVU291
 944 01de 674B     		ldr	r3, .L96+28
 945 01e0 0022     		movs	r2, #0
 946 01e2 1A70     		strb	r2, [r3]
 186:Core/Src/Traffic_Light.c ****                 NCWaitingState = G1;
 947              		.loc 1 186 13 is_stmt 1 view .LVU292
 186:Core/Src/Traffic_Light.c ****                 NCWaitingState = G1;
 948              		.loc 1 186 18 is_stmt 0 view .LVU293
 949 01e4 FFF7FEFF 		bl	is_car4
 950              	.LVL43:
 186:Core/Src/Traffic_Light.c ****                 NCWaitingState = G1;
 951              		.loc 1 186 15 view .LVU294
 952 01e8 0028     		cmp	r0, #0
 953 01ea 3FF419AF 		beq	.L88
 954              	.L37:
 193:Core/Src/Traffic_Light.c ****             NoCarsWaiting = false;
 955              		.loc 1 193 8 is_stmt 1 view .LVU295
 193:Core/Src/Traffic_Light.c ****             NoCarsWaiting = false;
 956              		.loc 1 193 11 is_stmt 0 view .LVU296
 957 01ee FFF7FEFF 		bl	is_car4
 958              	.LVL44:
 193:Core/Src/Traffic_Light.c ****             NoCarsWaiting = false;
 959              		.loc 1 193 10 view .LVU297
 960 01f2 10B9     		cbnz	r0, .L38
 193:Core/Src/Traffic_Light.c ****             NoCarsWaiting = false;
 961              		.loc 1 193 24 discriminator 1 view .LVU298
 962 01f4 FFF7FEFF 		bl	is_car2
 963              	.LVL45:
 193:Core/Src/Traffic_Light.c ****             NoCarsWaiting = false;
 964              		.loc 1 193 21 discriminator 1 view .LVU299
 965 01f8 38B1     		cbz	r0, .L39
 966              	.L38:
 194:Core/Src/Traffic_Light.c ****             if(!(is_car1() || is_car3())){
 967              		.loc 1 194 13 is_stmt 1 view .LVU300
ARM GAS  C:\Users\ehgre\AppData\Local\Temp\ccd3aLcI.s 			page 27


 194:Core/Src/Traffic_Light.c ****             if(!(is_car1() || is_car3())){
 968              		.loc 1 194 27 is_stmt 0 view .LVU301
 969 01fa 604B     		ldr	r3, .L96+28
 970 01fc 0022     		movs	r2, #0
 971 01fe 1A70     		strb	r2, [r3]
 195:Core/Src/Traffic_Light.c ****                 NCWaitingState = G2;
 972              		.loc 1 195 13 is_stmt 1 view .LVU302
 195:Core/Src/Traffic_Light.c ****                 NCWaitingState = G2;
 973              		.loc 1 195 18 is_stmt 0 view .LVU303
 974 0200 FFF7FEFF 		bl	is_car1
 975              	.LVL46:
 195:Core/Src/Traffic_Light.c ****                 NCWaitingState = G2;
 976              		.loc 1 195 15 view .LVU304
 977 0204 0028     		cmp	r0, #0
 978 0206 3FF418AF 		beq	.L89
 979              	.L39:
 202:Core/Src/Traffic_Light.c ****             checkAndChangeTL();
 980              		.loc 1 202 8 is_stmt 1 view .LVU305
 202:Core/Src/Traffic_Light.c ****             checkAndChangeTL();
 981              		.loc 1 202 12 is_stmt 0 view .LVU306
 982 020a FFF7FEFF 		bl	is_car4
 983              	.LVL47:
 202:Core/Src/Traffic_Light.c ****             checkAndChangeTL();
 984              		.loc 1 202 10 view .LVU307
 985 020e 10B9     		cbnz	r0, .L40
 202:Core/Src/Traffic_Light.c ****             checkAndChangeTL();
 986              		.loc 1 202 25 discriminator 2 view .LVU308
 987 0210 FFF7FEFF 		bl	is_car2
 988              	.LVL48:
 202:Core/Src/Traffic_Light.c ****             checkAndChangeTL();
 989              		.loc 1 202 22 discriminator 2 view .LVU309
 990 0214 80B1     		cbz	r0, .L41
 991              	.L40:
 202:Core/Src/Traffic_Light.c ****             checkAndChangeTL();
 992              		.loc 1 202 40 discriminator 3 view .LVU310
 993 0216 FFF7FEFF 		bl	is_car1
 994              	.LVL49:
 202:Core/Src/Traffic_Light.c ****             checkAndChangeTL();
 995              		.loc 1 202 36 discriminator 3 view .LVU311
 996 021a 10B9     		cbnz	r0, .L42
 202:Core/Src/Traffic_Light.c ****             checkAndChangeTL();
 997              		.loc 1 202 53 discriminator 4 view .LVU312
 998 021c FFF7FEFF 		bl	is_car3
 999              	.LVL50:
 202:Core/Src/Traffic_Light.c ****             checkAndChangeTL();
 1000              		.loc 1 202 50 discriminator 4 view .LVU313
 1001 0220 50B1     		cbz	r0, .L41
 1002              	.L42:
 203:Core/Src/Traffic_Light.c ****             if((TLRedWaitTime == 0) && (R2GDelay == 0)){
 1003              		.loc 1 203 13 is_stmt 1 view .LVU314
 1004 0222 FFF7FEFF 		bl	checkAndChangeTL
 1005              	.LVL51:
 204:Core/Src/Traffic_Light.c ****                 TLRedWaitTime = redDelayMax;
 1006              		.loc 1 204 13 view .LVU315
 204:Core/Src/Traffic_Light.c ****                 TLRedWaitTime = redDelayMax;
 1007              		.loc 1 204 31 is_stmt 0 view .LVU316
 1008 0226 564B     		ldr	r3, .L96+32
ARM GAS  C:\Users\ehgre\AppData\Local\Temp\ccd3aLcI.s 			page 28


 1009 0228 1B78     		ldrb	r3, [r3]	@ zero_extendqisi2
 204:Core/Src/Traffic_Light.c ****                 TLRedWaitTime = redDelayMax;
 1010              		.loc 1 204 15 view .LVU317
 1011 022a 2BB9     		cbnz	r3, .L41
 204:Core/Src/Traffic_Light.c ****                 TLRedWaitTime = redDelayMax;
 1012              		.loc 1 204 50 discriminator 1 view .LVU318
 1013 022c 554B     		ldr	r3, .L96+36
 1014 022e 1B78     		ldrb	r3, [r3]	@ zero_extendqisi2
 204:Core/Src/Traffic_Light.c ****                 TLRedWaitTime = redDelayMax;
 1015              		.loc 1 204 37 discriminator 1 view .LVU319
 1016 0230 13B9     		cbnz	r3, .L41
 205:Core/Src/Traffic_Light.c ****             }
 1017              		.loc 1 205 17 is_stmt 1 view .LVU320
 205:Core/Src/Traffic_Light.c ****             }
 1018              		.loc 1 205 31 is_stmt 0 view .LVU321
 1019 0232 534B     		ldr	r3, .L96+32
 1020 0234 0722     		movs	r2, #7
 1021 0236 1A70     		strb	r2, [r3]
 1022              	.L41:
 209:Core/Src/Traffic_Light.c ****             CW1 = PLBlue;
 1023              		.loc 1 209 8 is_stmt 1 view .LVU322
 209:Core/Src/Traffic_Light.c ****             CW1 = PLBlue;
 1024              		.loc 1 209 11 is_stmt 0 view .LVU323
 1025 0238 FFF7FEFF 		bl	is_pl1
 1026              	.LVL52:
 209:Core/Src/Traffic_Light.c ****             CW1 = PLBlue;
 1027              		.loc 1 209 10 view .LVU324
 1028 023c 40B1     		cbz	r0, .L43
 209:Core/Src/Traffic_Light.c ****             CW1 = PLBlue;
 1029              		.loc 1 209 28 discriminator 1 view .LVU325
 1030 023e 4D4B     		ldr	r3, .L96+20
 1031 0240 1B78     		ldrb	r3, [r3]	@ zero_extendqisi2
 209:Core/Src/Traffic_Light.c ****             CW1 = PLBlue;
 1032              		.loc 1 209 20 discriminator 1 view .LVU326
 1033 0242 2BB9     		cbnz	r3, .L43
 210:Core/Src/Traffic_Light.c ****             PLBlueDelay = pedestrianDelay;
 1034              		.loc 1 210 13 is_stmt 1 view .LVU327
 210:Core/Src/Traffic_Light.c ****             PLBlueDelay = pedestrianDelay;
 1035              		.loc 1 210 17 is_stmt 0 view .LVU328
 1036 0244 4A4B     		ldr	r3, .L96+16
 1037 0246 0222     		movs	r2, #2
 1038 0248 1A70     		strb	r2, [r3]
 211:Core/Src/Traffic_Light.c ****         }
 1039              		.loc 1 211 13 is_stmt 1 view .LVU329
 211:Core/Src/Traffic_Light.c ****         }
 1040              		.loc 1 211 25 is_stmt 0 view .LVU330
 1041 024a 4F4B     		ldr	r3, .L96+40
 1042 024c 0522     		movs	r2, #5
 1043 024e 1A70     		strb	r2, [r3]
 1044              	.L43:
 214:Core/Src/Traffic_Light.c ****             CW2 = PLBlue;
 1045              		.loc 1 214 9 is_stmt 1 view .LVU331
 214:Core/Src/Traffic_Light.c ****             CW2 = PLBlue;
 1046              		.loc 1 214 12 is_stmt 0 view .LVU332
 1047 0250 FFF7FEFF 		bl	is_pl2
 1048              	.LVL53:
 214:Core/Src/Traffic_Light.c ****             CW2 = PLBlue;
ARM GAS  C:\Users\ehgre\AppData\Local\Temp\ccd3aLcI.s 			page 29


 1049              		.loc 1 214 11 view .LVU333
 1050 0254 40B1     		cbz	r0, .L44
 214:Core/Src/Traffic_Light.c ****             CW2 = PLBlue;
 1051              		.loc 1 214 29 discriminator 1 view .LVU334
 1052 0256 464B     		ldr	r3, .L96+16
 1053 0258 1B78     		ldrb	r3, [r3]	@ zero_extendqisi2
 214:Core/Src/Traffic_Light.c ****             CW2 = PLBlue;
 1054              		.loc 1 214 21 discriminator 1 view .LVU335
 1055 025a 2BB9     		cbnz	r3, .L44
 215:Core/Src/Traffic_Light.c ****             PLBlueDelay = pedestrianDelay;
 1056              		.loc 1 215 13 is_stmt 1 view .LVU336
 215:Core/Src/Traffic_Light.c ****             PLBlueDelay = pedestrianDelay;
 1057              		.loc 1 215 17 is_stmt 0 view .LVU337
 1058 025c 454B     		ldr	r3, .L96+20
 1059 025e 0222     		movs	r2, #2
 1060 0260 1A70     		strb	r2, [r3]
 216:Core/Src/Traffic_Light.c ****         }
 1061              		.loc 1 216 13 is_stmt 1 view .LVU338
 216:Core/Src/Traffic_Light.c ****         }
 1062              		.loc 1 216 25 is_stmt 0 view .LVU339
 1063 0262 494B     		ldr	r3, .L96+40
 1064 0264 0522     		movs	r2, #5
 1065 0266 1A70     		strb	r2, [r3]
 1066              	.L44:
 219:Core/Src/Traffic_Light.c ****             checkAndChangeTL();
 1067              		.loc 1 219 8 is_stmt 1 view .LVU340
 219:Core/Src/Traffic_Light.c ****             checkAndChangeTL();
 1068              		.loc 1 219 11 is_stmt 0 view .LVU341
 1069 0268 444B     		ldr	r3, .L96+28
 1070 026a 1B78     		ldrb	r3, [r3]	@ zero_extendqisi2
 219:Core/Src/Traffic_Light.c ****             checkAndChangeTL();
 1071              		.loc 1 219 10 view .LVU342
 1072 026c 002B     		cmp	r3, #0
 1073 026e 3FF4F2AE 		beq	.L45
 220:Core/Src/Traffic_Light.c ****             if((NCWaitingDelay == 0) && (R2GDelay == 0)){
 1074              		.loc 1 220 13 is_stmt 1 view .LVU343
 1075 0272 FFF7FEFF 		bl	checkAndChangeTL
 1076              	.LVL54:
 221:Core/Src/Traffic_Light.c ****                 NCWaitingDelay = greenDelay;
 1077              		.loc 1 221 13 view .LVU344
 221:Core/Src/Traffic_Light.c ****                 NCWaitingDelay = greenDelay;
 1078              		.loc 1 221 32 is_stmt 0 view .LVU345
 1079 0276 454B     		ldr	r3, .L96+44
 1080 0278 1B78     		ldrb	r3, [r3]	@ zero_extendqisi2
 221:Core/Src/Traffic_Light.c ****                 NCWaitingDelay = greenDelay;
 1081              		.loc 1 221 15 view .LVU346
 1082 027a 2BB9     		cbnz	r3, .L46
 221:Core/Src/Traffic_Light.c ****                 NCWaitingDelay = greenDelay;
 1083              		.loc 1 221 51 discriminator 1 view .LVU347
 1084 027c 414B     		ldr	r3, .L96+36
 1085 027e 1B78     		ldrb	r3, [r3]	@ zero_extendqisi2
 221:Core/Src/Traffic_Light.c ****                 NCWaitingDelay = greenDelay;
 1086              		.loc 1 221 38 discriminator 1 view .LVU348
 1087 0280 13B9     		cbnz	r3, .L46
 222:Core/Src/Traffic_Light.c ****             }
 1088              		.loc 1 222 17 is_stmt 1 view .LVU349
 222:Core/Src/Traffic_Light.c ****             }
ARM GAS  C:\Users\ehgre\AppData\Local\Temp\ccd3aLcI.s 			page 30


 1089              		.loc 1 222 32 is_stmt 0 view .LVU350
 1090 0282 424B     		ldr	r3, .L96+44
 1091 0284 0722     		movs	r2, #7
 1092 0286 1A70     		strb	r2, [r3]
 1093              	.L46:
 224:Core/Src/Traffic_Light.c ****        }else{
 1094              		.loc 1 224 13 is_stmt 1 view .LVU351
 1095 0288 0122     		movs	r2, #1
 1096 028a 4FF40041 		mov	r1, #32768
 1097 028e 4048     		ldr	r0, .L96+48
 1098 0290 FFF7FEFF 		bl	HAL_GPIO_WritePin
 1099              	.LVL55:
 1100              	.L47:
 232:Core/Src/Traffic_Light.c ****             case TLGreen:
 1101              		.loc 1 232 9 view .LVU352
 232:Core/Src/Traffic_Light.c ****             case TLGreen:
 1102              		.loc 1 232 19 is_stmt 0 view .LVU353
 1103 0294 3F4B     		ldr	r3, .L96+52
 1104 0296 1B79     		ldrb	r3, [r3, #4]	@ zero_extendqisi2
 232:Core/Src/Traffic_Light.c ****             case TLGreen:
 1105              		.loc 1 232 9 view .LVU354
 1106 0298 002B     		cmp	r3, #0
 1107 029a 3FF4FDAE 		beq	.L48
 1108 029e 012B     		cmp	r3, #1
 1109 02a0 17D1     		bne	.L49
 234:Core/Src/Traffic_Light.c ****                     bits = TL1_Green(bits, false);
 1110              		.loc 1 234 17 is_stmt 1 view .LVU355
 234:Core/Src/Traffic_Light.c ****                     bits = TL1_Green(bits, false);
 1111              		.loc 1 234 35 is_stmt 0 view .LVU356
 1112 02a2 314B     		ldr	r3, .L96+8
 1113 02a4 1B78     		ldrb	r3, [r3]	@ zero_extendqisi2
 234:Core/Src/Traffic_Light.c ****                     bits = TL1_Green(bits, false);
 1114              		.loc 1 234 19 view .LVU357
 1115 02a6 33B1     		cbz	r3, .L50
 234:Core/Src/Traffic_Light.c ****                     bits = TL1_Green(bits, false);
 1116              		.loc 1 234 45 discriminator 1 view .LVU358
 1117 02a8 2D4B     		ldr	r3, .L96
 1118 02aa 1868     		ldr	r0, [r3]
 1119 02ac FFF7FEFF 		bl	TL1_isGreen
 1120              	.LVL56:
 234:Core/Src/Traffic_Light.c ****                     bits = TL1_Green(bits, false);
 1121              		.loc 1 234 40 discriminator 1 view .LVU359
 1122 02b0 0028     		cmp	r0, #0
 1123 02b2 3FF4E2AE 		beq	.L90
 1124              	.L50:
 239:Core/Src/Traffic_Light.c ****                     bits = TL1_Red(bits, false);
 1125              		.loc 1 239 21 is_stmt 1 view .LVU360
 239:Core/Src/Traffic_Light.c ****                     bits = TL1_Red(bits, false);
 1126              		.loc 1 239 28 is_stmt 0 view .LVU361
 1127 02b6 2A4C     		ldr	r4, .L96
 1128 02b8 0121     		movs	r1, #1
 1129 02ba 2068     		ldr	r0, [r4]
 1130 02bc FFF7FEFF 		bl	TL1_Green
 1131              	.LVL57:
 239:Core/Src/Traffic_Light.c ****                     bits = TL1_Red(bits, false);
 1132              		.loc 1 239 26 view .LVU362
 1133 02c0 2060     		str	r0, [r4]
ARM GAS  C:\Users\ehgre\AppData\Local\Temp\ccd3aLcI.s 			page 31


 240:Core/Src/Traffic_Light.c ****                     bits = TL1_Yellow(bits, false);
 1134              		.loc 1 240 21 is_stmt 1 view .LVU363
 240:Core/Src/Traffic_Light.c ****                     bits = TL1_Yellow(bits, false);
 1135              		.loc 1 240 28 is_stmt 0 view .LVU364
 1136 02c2 0021     		movs	r1, #0
 1137 02c4 FFF7FEFF 		bl	TL1_Red
 1138              	.LVL58:
 240:Core/Src/Traffic_Light.c ****                     bits = TL1_Yellow(bits, false);
 1139              		.loc 1 240 26 view .LVU365
 1140 02c8 2060     		str	r0, [r4]
 241:Core/Src/Traffic_Light.c ****                 }
 1141              		.loc 1 241 21 is_stmt 1 view .LVU366
 241:Core/Src/Traffic_Light.c ****                 }
 1142              		.loc 1 241 28 is_stmt 0 view .LVU367
 1143 02ca 0021     		movs	r1, #0
 1144 02cc FFF7FEFF 		bl	TL1_Yellow
 1145              	.LVL59:
 241:Core/Src/Traffic_Light.c ****                 }
 1146              		.loc 1 241 26 view .LVU368
 1147 02d0 2060     		str	r0, [r4]
 1148              	.L49:
 259:Core/Src/Traffic_Light.c ****             case TLGreen:
 1149              		.loc 1 259 9 is_stmt 1 view .LVU369
 259:Core/Src/Traffic_Light.c ****             case TLGreen:
 1150              		.loc 1 259 19 is_stmt 0 view .LVU370
 1151 02d2 314B     		ldr	r3, .L96+56
 1152 02d4 1B79     		ldrb	r3, [r3, #4]	@ zero_extendqisi2
 259:Core/Src/Traffic_Light.c ****             case TLGreen:
 1153              		.loc 1 259 9 view .LVU371
 1154 02d6 EBB1     		cbz	r3, .L52
 1155 02d8 012B     		cmp	r3, #1
 1156 02da 7FF41FAF 		bne	.L53
 261:Core/Src/Traffic_Light.c ****                     bits = TL2_Green(bits, false);
 1157              		.loc 1 261 17 is_stmt 1 view .LVU372
 261:Core/Src/Traffic_Light.c ****                     bits = TL2_Green(bits, false);
 1158              		.loc 1 261 35 is_stmt 0 view .LVU373
 1159 02de 224B     		ldr	r3, .L96+8
 1160 02e0 1B78     		ldrb	r3, [r3]	@ zero_extendqisi2
 261:Core/Src/Traffic_Light.c ****                     bits = TL2_Green(bits, false);
 1161              		.loc 1 261 19 view .LVU374
 1162 02e2 002B     		cmp	r3, #0
 1163 02e4 3FF40CAF 		beq	.L54
 261:Core/Src/Traffic_Light.c ****                     bits = TL2_Green(bits, false);
 1164              		.loc 1 261 45 discriminator 1 view .LVU375
 1165 02e8 1D4B     		ldr	r3, .L96
 1166 02ea 1868     		ldr	r0, [r3]
 1167 02ec FFF7FEFF 		bl	TL2_isGreen
 1168              	.LVL60:
 261:Core/Src/Traffic_Light.c ****                     bits = TL2_Green(bits, false);
 1169              		.loc 1 261 40 discriminator 1 view .LVU376
 1170 02f0 0028     		cmp	r0, #0
 1171 02f2 7FF405AF 		bne	.L54
 262:Core/Src/Traffic_Light.c ****                     bits = TL2_Red(bits, true);
 1172              		.loc 1 262 21 is_stmt 1 view .LVU377
 262:Core/Src/Traffic_Light.c ****                     bits = TL2_Red(bits, true);
 1173              		.loc 1 262 28 is_stmt 0 view .LVU378
 1174 02f6 1A4C     		ldr	r4, .L96
ARM GAS  C:\Users\ehgre\AppData\Local\Temp\ccd3aLcI.s 			page 32


 1175 02f8 0021     		movs	r1, #0
 1176 02fa 2068     		ldr	r0, [r4]
 1177 02fc FFF7FEFF 		bl	TL2_Green
 1178              	.LVL61:
 262:Core/Src/Traffic_Light.c ****                     bits = TL2_Red(bits, true);
 1179              		.loc 1 262 26 view .LVU379
 1180 0300 2060     		str	r0, [r4]
 263:Core/Src/Traffic_Light.c ****                     bits = TL2_Yellow(bits, true);
 1181              		.loc 1 263 21 is_stmt 1 view .LVU380
 263:Core/Src/Traffic_Light.c ****                     bits = TL2_Yellow(bits, true);
 1182              		.loc 1 263 28 is_stmt 0 view .LVU381
 1183 0302 0121     		movs	r1, #1
 1184 0304 FFF7FEFF 		bl	TL2_Red
 1185              	.LVL62:
 263:Core/Src/Traffic_Light.c ****                     bits = TL2_Yellow(bits, true);
 1186              		.loc 1 263 26 view .LVU382
 1187 0308 2060     		str	r0, [r4]
 264:Core/Src/Traffic_Light.c ****                 }else{
 1188              		.loc 1 264 21 is_stmt 1 view .LVU383
 264:Core/Src/Traffic_Light.c ****                 }else{
 1189              		.loc 1 264 28 is_stmt 0 view .LVU384
 1190 030a 0121     		movs	r1, #1
 1191 030c FFF7FEFF 		bl	TL2_Yellow
 1192              	.LVL63:
 264:Core/Src/Traffic_Light.c ****                 }else{
 1193              		.loc 1 264 26 view .LVU385
 1194 0310 2060     		str	r0, [r4]
 1195 0312 03E7     		b	.L53
 1196              	.L52:
 272:Core/Src/Traffic_Light.c ****                     bits = TL2_Green(bits, false);
 1197              		.loc 1 272 17 is_stmt 1 view .LVU386
 272:Core/Src/Traffic_Light.c ****                     bits = TL2_Green(bits, false);
 1198              		.loc 1 272 35 is_stmt 0 view .LVU387
 1199 0314 144B     		ldr	r3, .L96+8
 1200 0316 1B78     		ldrb	r3, [r3]	@ zero_extendqisi2
 272:Core/Src/Traffic_Light.c ****                     bits = TL2_Green(bits, false);
 1201              		.loc 1 272 19 view .LVU388
 1202 0318 23B1     		cbz	r3, .L55
 272:Core/Src/Traffic_Light.c ****                     bits = TL2_Green(bits, false);
 1203              		.loc 1 272 45 discriminator 1 view .LVU389
 1204 031a 114B     		ldr	r3, .L96
 1205 031c 1868     		ldr	r0, [r3]
 1206 031e FFF7FEFF 		bl	TL2_isRed
 1207              	.LVL64:
 272:Core/Src/Traffic_Light.c ****                     bits = TL2_Green(bits, false);
 1208              		.loc 1 272 40 discriminator 1 view .LVU390
 1209 0322 70B1     		cbz	r0, .L91
 1210              	.L55:
 277:Core/Src/Traffic_Light.c ****                     bits = TL2_Red(bits, true);
 1211              		.loc 1 277 21 is_stmt 1 view .LVU391
 277:Core/Src/Traffic_Light.c ****                     bits = TL2_Red(bits, true);
 1212              		.loc 1 277 28 is_stmt 0 view .LVU392
 1213 0324 0E4C     		ldr	r4, .L96
 1214 0326 0021     		movs	r1, #0
 1215 0328 2068     		ldr	r0, [r4]
 1216 032a FFF7FEFF 		bl	TL2_Green
 1217              	.LVL65:
ARM GAS  C:\Users\ehgre\AppData\Local\Temp\ccd3aLcI.s 			page 33


 277:Core/Src/Traffic_Light.c ****                     bits = TL2_Red(bits, true);
 1218              		.loc 1 277 26 view .LVU393
 1219 032e 2060     		str	r0, [r4]
 278:Core/Src/Traffic_Light.c ****                     bits = TL2_Yellow(bits, false);
 1220              		.loc 1 278 21 is_stmt 1 view .LVU394
 278:Core/Src/Traffic_Light.c ****                     bits = TL2_Yellow(bits, false);
 1221              		.loc 1 278 28 is_stmt 0 view .LVU395
 1222 0330 0121     		movs	r1, #1
 1223 0332 FFF7FEFF 		bl	TL2_Red
 1224              	.LVL66:
 278:Core/Src/Traffic_Light.c ****                     bits = TL2_Yellow(bits, false);
 1225              		.loc 1 278 26 view .LVU396
 1226 0336 2060     		str	r0, [r4]
 279:Core/Src/Traffic_Light.c ****                 }
 1227              		.loc 1 279 21 is_stmt 1 view .LVU397
 279:Core/Src/Traffic_Light.c ****                 }
 1228              		.loc 1 279 28 is_stmt 0 view .LVU398
 1229 0338 0021     		movs	r1, #0
 1230 033a FFF7FEFF 		bl	TL2_Yellow
 1231              	.LVL67:
 279:Core/Src/Traffic_Light.c ****                 }
 1232              		.loc 1 279 26 view .LVU399
 1233 033e 2060     		str	r0, [r4]
 1234 0340 ECE6     		b	.L53
 1235              	.L91:
 273:Core/Src/Traffic_Light.c ****                     bits = TL2_Red(bits, false);
 1236              		.loc 1 273 21 is_stmt 1 view .LVU400
 273:Core/Src/Traffic_Light.c ****                     bits = TL2_Red(bits, false);
 1237              		.loc 1 273 28 is_stmt 0 view .LVU401
 1238 0342 074C     		ldr	r4, .L96
 1239 0344 0021     		movs	r1, #0
 1240 0346 2068     		ldr	r0, [r4]
 1241 0348 FFF7FEFF 		bl	TL2_Green
 1242              	.LVL68:
 273:Core/Src/Traffic_Light.c ****                     bits = TL2_Red(bits, false);
 1243              		.loc 1 273 26 view .LVU402
 1244 034c 2060     		str	r0, [r4]
 274:Core/Src/Traffic_Light.c ****                     bits = TL2_Yellow(bits, true);
 1245              		.loc 1 274 21 is_stmt 1 view .LVU403
 274:Core/Src/Traffic_Light.c ****                     bits = TL2_Yellow(bits, true);
 1246              		.loc 1 274 28 is_stmt 0 view .LVU404
 1247 034e 0021     		movs	r1, #0
 1248 0350 FFF7FEFF 		bl	TL2_Red
 1249              	.LVL69:
 274:Core/Src/Traffic_Light.c ****                     bits = TL2_Yellow(bits, true);
 1250              		.loc 1 274 26 view .LVU405
 1251 0354 2060     		str	r0, [r4]
 275:Core/Src/Traffic_Light.c ****                 }else{
 1252              		.loc 1 275 21 is_stmt 1 view .LVU406
 275:Core/Src/Traffic_Light.c ****                 }else{
 1253              		.loc 1 275 28 is_stmt 0 view .LVU407
 1254 0356 0121     		movs	r1, #1
 1255 0358 FFF7FEFF 		bl	TL2_Yellow
 1256              	.LVL70:
 275:Core/Src/Traffic_Light.c ****                 }else{
 1257              		.loc 1 275 26 view .LVU408
 1258 035c 2060     		str	r0, [r4]
ARM GAS  C:\Users\ehgre\AppData\Local\Temp\ccd3aLcI.s 			page 34


 1259 035e DDE6     		b	.L53
 1260              	.L97:
 1261              		.align	2
 1262              	.L96:
 1263 0360 00000000 		.word	bits
 1264 0364 00000000 		.word	C3
 1265 0368 00000000 		.word	TLYellowDelay
 1266 036c 00000000 		.word	C4
 1267 0370 00000000 		.word	CW1
 1268 0374 00000000 		.word	CW2
 1269 0378 00000000 		.word	brightness
 1270 037c 00000000 		.word	NoCarsWaiting
 1271 0380 00000000 		.word	TLRedWaitTime
 1272 0384 00000000 		.word	R2GDelay
 1273 0388 00000000 		.word	PLBlueDelay
 1274 038c 00000000 		.word	NCWaitingDelay
 1275 0390 00040048 		.word	1207960576
 1276 0394 00000000 		.word	C1
 1277 0398 00000000 		.word	C2
 1278              	.L84:
 289:Core/Src/Traffic_Light.c ****                     bits = TL3_Red(bits, true);
 1279              		.loc 1 289 21 is_stmt 1 view .LVU409
 289:Core/Src/Traffic_Light.c ****                     bits = TL3_Red(bits, true);
 1280              		.loc 1 289 28 is_stmt 0 view .LVU410
 1281 039c 8F4C     		ldr	r4, .L98
 1282 039e 0021     		movs	r1, #0
 1283 03a0 2068     		ldr	r0, [r4]
 1284 03a2 FFF7FEFF 		bl	TL3_Green
 1285              	.LVL71:
 289:Core/Src/Traffic_Light.c ****                     bits = TL3_Red(bits, true);
 1286              		.loc 1 289 26 view .LVU411
 1287 03a6 2060     		str	r0, [r4]
 290:Core/Src/Traffic_Light.c ****                     bits = TL3_Yellow(bits, true);
 1288              		.loc 1 290 21 is_stmt 1 view .LVU412
 290:Core/Src/Traffic_Light.c ****                     bits = TL3_Yellow(bits, true);
 1289              		.loc 1 290 28 is_stmt 0 view .LVU413
 1290 03a8 0121     		movs	r1, #1
 1291 03aa FFF7FEFF 		bl	TL3_Red
 1292              	.LVL72:
 290:Core/Src/Traffic_Light.c ****                     bits = TL3_Yellow(bits, true);
 1293              		.loc 1 290 26 view .LVU414
 1294 03ae 2060     		str	r0, [r4]
 291:Core/Src/Traffic_Light.c ****                 }else{
 1295              		.loc 1 291 21 is_stmt 1 view .LVU415
 291:Core/Src/Traffic_Light.c ****                 }else{
 1296              		.loc 1 291 28 is_stmt 0 view .LVU416
 1297 03b0 0121     		movs	r1, #1
 1298 03b2 FFF7FEFF 		bl	TL3_Yellow
 1299              	.LVL73:
 291:Core/Src/Traffic_Light.c ****                 }else{
 1300              		.loc 1 291 26 view .LVU417
 1301 03b6 2060     		str	r0, [r4]
 1302 03b8 CFE6     		b	.L57
 1303              	.L56:
 299:Core/Src/Traffic_Light.c ****                     bits = TL3_Green(bits, false);
 1304              		.loc 1 299 17 is_stmt 1 view .LVU418
 299:Core/Src/Traffic_Light.c ****                     bits = TL3_Green(bits, false);
ARM GAS  C:\Users\ehgre\AppData\Local\Temp\ccd3aLcI.s 			page 35


 1305              		.loc 1 299 35 is_stmt 0 view .LVU419
 1306 03ba 894B     		ldr	r3, .L98+4
 1307 03bc 1B78     		ldrb	r3, [r3]	@ zero_extendqisi2
 299:Core/Src/Traffic_Light.c ****                     bits = TL3_Green(bits, false);
 1308              		.loc 1 299 19 view .LVU420
 1309 03be 23B1     		cbz	r3, .L59
 299:Core/Src/Traffic_Light.c ****                     bits = TL3_Green(bits, false);
 1310              		.loc 1 299 45 discriminator 1 view .LVU421
 1311 03c0 864B     		ldr	r3, .L98
 1312 03c2 1868     		ldr	r0, [r3]
 1313 03c4 FFF7FEFF 		bl	TL3_isRed
 1314              	.LVL74:
 299:Core/Src/Traffic_Light.c ****                     bits = TL3_Green(bits, false);
 1315              		.loc 1 299 40 discriminator 1 view .LVU422
 1316 03c8 70B1     		cbz	r0, .L92
 1317              	.L59:
 304:Core/Src/Traffic_Light.c ****                     bits = TL3_Red(bits, true);
 1318              		.loc 1 304 21 is_stmt 1 view .LVU423
 304:Core/Src/Traffic_Light.c ****                     bits = TL3_Red(bits, true);
 1319              		.loc 1 304 28 is_stmt 0 view .LVU424
 1320 03ca 844C     		ldr	r4, .L98
 1321 03cc 0021     		movs	r1, #0
 1322 03ce 2068     		ldr	r0, [r4]
 1323 03d0 FFF7FEFF 		bl	TL3_Green
 1324              	.LVL75:
 304:Core/Src/Traffic_Light.c ****                     bits = TL3_Red(bits, true);
 1325              		.loc 1 304 26 view .LVU425
 1326 03d4 2060     		str	r0, [r4]
 305:Core/Src/Traffic_Light.c ****                     bits = TL3_Yellow(bits, false);
 1327              		.loc 1 305 21 is_stmt 1 view .LVU426
 305:Core/Src/Traffic_Light.c ****                     bits = TL3_Yellow(bits, false);
 1328              		.loc 1 305 28 is_stmt 0 view .LVU427
 1329 03d6 0121     		movs	r1, #1
 1330 03d8 FFF7FEFF 		bl	TL3_Red
 1331              	.LVL76:
 305:Core/Src/Traffic_Light.c ****                     bits = TL3_Yellow(bits, false);
 1332              		.loc 1 305 26 view .LVU428
 1333 03dc 2060     		str	r0, [r4]
 306:Core/Src/Traffic_Light.c ****                 }
 1334              		.loc 1 306 21 is_stmt 1 view .LVU429
 306:Core/Src/Traffic_Light.c ****                 }
 1335              		.loc 1 306 28 is_stmt 0 view .LVU430
 1336 03de 0021     		movs	r1, #0
 1337 03e0 FFF7FEFF 		bl	TL3_Yellow
 1338              	.LVL77:
 306:Core/Src/Traffic_Light.c ****                 }
 1339              		.loc 1 306 26 view .LVU431
 1340 03e4 2060     		str	r0, [r4]
 1341 03e6 B8E6     		b	.L57
 1342              	.L92:
 300:Core/Src/Traffic_Light.c ****                     bits = TL3_Red(bits, false);
 1343              		.loc 1 300 21 is_stmt 1 view .LVU432
 300:Core/Src/Traffic_Light.c ****                     bits = TL3_Red(bits, false);
 1344              		.loc 1 300 28 is_stmt 0 view .LVU433
 1345 03e8 7C4C     		ldr	r4, .L98
 1346 03ea 0021     		movs	r1, #0
 1347 03ec 2068     		ldr	r0, [r4]
ARM GAS  C:\Users\ehgre\AppData\Local\Temp\ccd3aLcI.s 			page 36


 1348 03ee FFF7FEFF 		bl	TL3_Green
 1349              	.LVL78:
 300:Core/Src/Traffic_Light.c ****                     bits = TL3_Red(bits, false);
 1350              		.loc 1 300 26 view .LVU434
 1351 03f2 2060     		str	r0, [r4]
 301:Core/Src/Traffic_Light.c ****                     bits = TL3_Yellow(bits, true);
 1352              		.loc 1 301 21 is_stmt 1 view .LVU435
 301:Core/Src/Traffic_Light.c ****                     bits = TL3_Yellow(bits, true);
 1353              		.loc 1 301 28 is_stmt 0 view .LVU436
 1354 03f4 0021     		movs	r1, #0
 1355 03f6 FFF7FEFF 		bl	TL3_Red
 1356              	.LVL79:
 301:Core/Src/Traffic_Light.c ****                     bits = TL3_Yellow(bits, true);
 1357              		.loc 1 301 26 view .LVU437
 1358 03fa 2060     		str	r0, [r4]
 302:Core/Src/Traffic_Light.c ****                 }else{
 1359              		.loc 1 302 21 is_stmt 1 view .LVU438
 302:Core/Src/Traffic_Light.c ****                 }else{
 1360              		.loc 1 302 28 is_stmt 0 view .LVU439
 1361 03fc 0121     		movs	r1, #1
 1362 03fe FFF7FEFF 		bl	TL3_Yellow
 1363              	.LVL80:
 302:Core/Src/Traffic_Light.c ****                 }else{
 1364              		.loc 1 302 26 view .LVU440
 1365 0402 2060     		str	r0, [r4]
 1366 0404 A9E6     		b	.L57
 1367              	.L85:
 316:Core/Src/Traffic_Light.c ****                     bits = TL4_Red(bits, true);
 1368              		.loc 1 316 21 is_stmt 1 view .LVU441
 316:Core/Src/Traffic_Light.c ****                     bits = TL4_Red(bits, true);
 1369              		.loc 1 316 28 is_stmt 0 view .LVU442
 1370 0406 754C     		ldr	r4, .L98
 1371 0408 0021     		movs	r1, #0
 1372 040a 2068     		ldr	r0, [r4]
 1373 040c FFF7FEFF 		bl	TL4_Green
 1374              	.LVL81:
 316:Core/Src/Traffic_Light.c ****                     bits = TL4_Red(bits, true);
 1375              		.loc 1 316 26 view .LVU443
 1376 0410 2060     		str	r0, [r4]
 317:Core/Src/Traffic_Light.c ****                     bits = TL4_Yellow(bits, true);
 1377              		.loc 1 317 21 is_stmt 1 view .LVU444
 317:Core/Src/Traffic_Light.c ****                     bits = TL4_Yellow(bits, true);
 1378              		.loc 1 317 28 is_stmt 0 view .LVU445
 1379 0412 0121     		movs	r1, #1
 1380 0414 FFF7FEFF 		bl	TL4_Red
 1381              	.LVL82:
 317:Core/Src/Traffic_Light.c ****                     bits = TL4_Yellow(bits, true);
 1382              		.loc 1 317 26 view .LVU446
 1383 0418 2060     		str	r0, [r4]
 318:Core/Src/Traffic_Light.c ****                 }else{
 1384              		.loc 1 318 21 is_stmt 1 view .LVU447
 318:Core/Src/Traffic_Light.c ****                 }else{
 1385              		.loc 1 318 28 is_stmt 0 view .LVU448
 1386 041a 0121     		movs	r1, #1
 1387 041c FFF7FEFF 		bl	TL4_Yellow
 1388              	.LVL83:
 318:Core/Src/Traffic_Light.c ****                 }else{
ARM GAS  C:\Users\ehgre\AppData\Local\Temp\ccd3aLcI.s 			page 37


 1389              		.loc 1 318 26 view .LVU449
 1390 0420 2060     		str	r0, [r4]
 1391 0422 B9E6     		b	.L61
 1392              	.L60:
 326:Core/Src/Traffic_Light.c ****                     bits = TL4_Green(bits, false);
 1393              		.loc 1 326 17 is_stmt 1 view .LVU450
 326:Core/Src/Traffic_Light.c ****                     bits = TL4_Green(bits, false);
 1394              		.loc 1 326 35 is_stmt 0 view .LVU451
 1395 0424 6E4B     		ldr	r3, .L98+4
 1396 0426 1B78     		ldrb	r3, [r3]	@ zero_extendqisi2
 326:Core/Src/Traffic_Light.c ****                     bits = TL4_Green(bits, false);
 1397              		.loc 1 326 19 view .LVU452
 1398 0428 23B1     		cbz	r3, .L63
 326:Core/Src/Traffic_Light.c ****                     bits = TL4_Green(bits, false);
 1399              		.loc 1 326 46 discriminator 1 view .LVU453
 1400 042a 6C4B     		ldr	r3, .L98
 1401 042c 1868     		ldr	r0, [r3]
 1402 042e FFF7FEFF 		bl	TL4_isRed
 1403              	.LVL84:
 326:Core/Src/Traffic_Light.c ****                     bits = TL4_Green(bits, false);
 1404              		.loc 1 326 41 discriminator 1 view .LVU454
 1405 0432 70B1     		cbz	r0, .L93
 1406              	.L63:
 331:Core/Src/Traffic_Light.c ****                     bits = TL4_Red(bits, true);
 1407              		.loc 1 331 21 is_stmt 1 view .LVU455
 331:Core/Src/Traffic_Light.c ****                     bits = TL4_Red(bits, true);
 1408              		.loc 1 331 28 is_stmt 0 view .LVU456
 1409 0434 694C     		ldr	r4, .L98
 1410 0436 0021     		movs	r1, #0
 1411 0438 2068     		ldr	r0, [r4]
 1412 043a FFF7FEFF 		bl	TL4_Green
 1413              	.LVL85:
 331:Core/Src/Traffic_Light.c ****                     bits = TL4_Red(bits, true);
 1414              		.loc 1 331 26 view .LVU457
 1415 043e 2060     		str	r0, [r4]
 332:Core/Src/Traffic_Light.c ****                     bits = TL4_Yellow(bits, false);
 1416              		.loc 1 332 21 is_stmt 1 view .LVU458
 332:Core/Src/Traffic_Light.c ****                     bits = TL4_Yellow(bits, false);
 1417              		.loc 1 332 28 is_stmt 0 view .LVU459
 1418 0440 0121     		movs	r1, #1
 1419 0442 FFF7FEFF 		bl	TL4_Red
 1420              	.LVL86:
 332:Core/Src/Traffic_Light.c ****                     bits = TL4_Yellow(bits, false);
 1421              		.loc 1 332 26 view .LVU460
 1422 0446 2060     		str	r0, [r4]
 333:Core/Src/Traffic_Light.c ****                 }
 1423              		.loc 1 333 21 is_stmt 1 view .LVU461
 333:Core/Src/Traffic_Light.c ****                 }
 1424              		.loc 1 333 28 is_stmt 0 view .LVU462
 1425 0448 0021     		movs	r1, #0
 1426 044a FFF7FEFF 		bl	TL4_Yellow
 1427              	.LVL87:
 333:Core/Src/Traffic_Light.c ****                 }
 1428              		.loc 1 333 26 view .LVU463
 1429 044e 2060     		str	r0, [r4]
 1430 0450 A2E6     		b	.L61
 1431              	.L93:
ARM GAS  C:\Users\ehgre\AppData\Local\Temp\ccd3aLcI.s 			page 38


 327:Core/Src/Traffic_Light.c ****                     bits = TL4_Red(bits, false);
 1432              		.loc 1 327 21 is_stmt 1 view .LVU464
 327:Core/Src/Traffic_Light.c ****                     bits = TL4_Red(bits, false);
 1433              		.loc 1 327 28 is_stmt 0 view .LVU465
 1434 0452 624C     		ldr	r4, .L98
 1435 0454 0021     		movs	r1, #0
 1436 0456 2068     		ldr	r0, [r4]
 1437 0458 FFF7FEFF 		bl	TL4_Green
 1438              	.LVL88:
 327:Core/Src/Traffic_Light.c ****                     bits = TL4_Red(bits, false);
 1439              		.loc 1 327 26 view .LVU466
 1440 045c 2060     		str	r0, [r4]
 328:Core/Src/Traffic_Light.c ****                     bits = TL4_Yellow(bits, true);
 1441              		.loc 1 328 21 is_stmt 1 view .LVU467
 328:Core/Src/Traffic_Light.c ****                     bits = TL4_Yellow(bits, true);
 1442              		.loc 1 328 28 is_stmt 0 view .LVU468
 1443 045e 0021     		movs	r1, #0
 1444 0460 FFF7FEFF 		bl	TL4_Red
 1445              	.LVL89:
 328:Core/Src/Traffic_Light.c ****                     bits = TL4_Yellow(bits, true);
 1446              		.loc 1 328 26 view .LVU469
 1447 0464 2060     		str	r0, [r4]
 329:Core/Src/Traffic_Light.c ****                 }else{
 1448              		.loc 1 329 21 is_stmt 1 view .LVU470
 329:Core/Src/Traffic_Light.c ****                 }else{
 1449              		.loc 1 329 28 is_stmt 0 view .LVU471
 1450 0466 0121     		movs	r1, #1
 1451 0468 FFF7FEFF 		bl	TL4_Yellow
 1452              	.LVL90:
 329:Core/Src/Traffic_Light.c ****                 }else{
 1453              		.loc 1 329 26 view .LVU472
 1454 046c 2060     		str	r0, [r4]
 1455 046e 93E6     		b	.L61
 1456              	.L64:
 342:Core/Src/Traffic_Light.c ****                     checkAndChangeTL();
 1457              		.loc 1 342 17 is_stmt 1 view .LVU473
 342:Core/Src/Traffic_Light.c ****                     checkAndChangeTL();
 1458              		.loc 1 342 23 is_stmt 0 view .LVU474
 1459 0470 5C4B     		ldr	r3, .L98+8
 1460 0472 1B79     		ldrb	r3, [r3, #4]	@ zero_extendqisi2
 342:Core/Src/Traffic_Light.c ****                     checkAndChangeTL();
 1461              		.loc 1 342 19 view .LVU475
 1462 0474 2BB9     		cbnz	r3, .L68
 342:Core/Src/Traffic_Light.c ****                     checkAndChangeTL();
 1463              		.loc 1 342 46 discriminator 1 view .LVU476
 1464 0476 5C4B     		ldr	r3, .L98+12
 1465 0478 1B79     		ldrb	r3, [r3, #4]	@ zero_extendqisi2
 342:Core/Src/Traffic_Light.c ****                     checkAndChangeTL();
 1466              		.loc 1 342 40 discriminator 1 view .LVU477
 1467 047a 13B9     		cbnz	r3, .L68
 342:Core/Src/Traffic_Light.c ****                     checkAndChangeTL();
 1468              		.loc 1 342 69 discriminator 2 view .LVU478
 1469 047c 5B4B     		ldr	r3, .L98+16
 1470 047e 1B79     		ldrb	r3, [r3, #4]	@ zero_extendqisi2
 342:Core/Src/Traffic_Light.c ****                     checkAndChangeTL();
 1471              		.loc 1 342 63 discriminator 2 view .LVU479
 1472 0480 2BB1     		cbz	r3, .L69
ARM GAS  C:\Users\ehgre\AppData\Local\Temp\ccd3aLcI.s 			page 39


 1473              	.L68:
 343:Core/Src/Traffic_Light.c ****                     TLYellowDelay = orangeDelay;
 1474              		.loc 1 343 21 is_stmt 1 view .LVU480
 1475 0482 FFF7FEFF 		bl	checkAndChangeTL
 1476              	.LVL91:
 344:Core/Src/Traffic_Light.c ****                 }else{
 1477              		.loc 1 344 21 view .LVU481
 344:Core/Src/Traffic_Light.c ****                 }else{
 1478              		.loc 1 344 35 is_stmt 0 view .LVU482
 1479 0486 564B     		ldr	r3, .L98+4
 1480 0488 0122     		movs	r2, #1
 1481 048a 1A70     		strb	r2, [r3]
 1482 048c 8FE6     		b	.L67
 1483              	.L69:
 346:Core/Src/Traffic_Light.c ****                         if(PLGreenDelay > 0){
 1484              		.loc 1 346 21 is_stmt 1 view .LVU483
 346:Core/Src/Traffic_Light.c ****                         if(PLGreenDelay > 0){
 1485              		.loc 1 346 38 is_stmt 0 view .LVU484
 1486 048e 544B     		ldr	r3, .L98+4
 1487 0490 1B78     		ldrb	r3, [r3]	@ zero_extendqisi2
 346:Core/Src/Traffic_Light.c ****                         if(PLGreenDelay > 0){
 1488              		.loc 1 346 23 view .LVU485
 1489 0492 002B     		cmp	r3, #0
 1490 0494 7FF48BAE 		bne	.L67
 347:Core/Src/Traffic_Light.c ****                             bits = PL1_Green(bits, true);
 1491              		.loc 1 347 25 is_stmt 1 view .LVU486
 347:Core/Src/Traffic_Light.c ****                             bits = PL1_Green(bits, true);
 1492              		.loc 1 347 41 is_stmt 0 view .LVU487
 1493 0498 554B     		ldr	r3, .L98+20
 1494 049a 1B78     		ldrb	r3, [r3]	@ zero_extendqisi2
 347:Core/Src/Traffic_Light.c ****                             bits = PL1_Green(bits, true);
 1495              		.loc 1 347 27 view .LVU488
 1496 049c 53B1     		cbz	r3, .L70
 348:Core/Src/Traffic_Light.c ****                             bits = PL1_Red(bits, false);
 1497              		.loc 1 348 29 is_stmt 1 view .LVU489
 348:Core/Src/Traffic_Light.c ****                             bits = PL1_Red(bits, false);
 1498              		.loc 1 348 36 is_stmt 0 view .LVU490
 1499 049e 4F4C     		ldr	r4, .L98
 1500 04a0 0121     		movs	r1, #1
 1501 04a2 2068     		ldr	r0, [r4]
 1502 04a4 FFF7FEFF 		bl	PL1_Green
 1503              	.LVL92:
 348:Core/Src/Traffic_Light.c ****                             bits = PL1_Red(bits, false);
 1504              		.loc 1 348 34 view .LVU491
 1505 04a8 2060     		str	r0, [r4]
 349:Core/Src/Traffic_Light.c ****                         }else{
 1506              		.loc 1 349 29 is_stmt 1 view .LVU492
 349:Core/Src/Traffic_Light.c ****                         }else{
 1507              		.loc 1 349 36 is_stmt 0 view .LVU493
 1508 04aa 0021     		movs	r1, #0
 1509 04ac FFF7FEFF 		bl	PL1_Red
 1510              	.LVL93:
 349:Core/Src/Traffic_Light.c ****                         }else{
 1511              		.loc 1 349 34 view .LVU494
 1512 04b0 2060     		str	r0, [r4]
 1513 04b2 7CE6     		b	.L67
 1514              	.L70:
ARM GAS  C:\Users\ehgre\AppData\Local\Temp\ccd3aLcI.s 			page 40


 351:Core/Src/Traffic_Light.c ****                             bits = PL1_Green(bits, false);
 1515              		.loc 1 351 29 is_stmt 1 view .LVU495
 351:Core/Src/Traffic_Light.c ****                             bits = PL1_Green(bits, false);
 1516              		.loc 1 351 33 is_stmt 0 view .LVU496
 1517 04b4 0021     		movs	r1, #0
 1518 04b6 4F4B     		ldr	r3, .L98+24
 1519 04b8 1970     		strb	r1, [r3]
 352:Core/Src/Traffic_Light.c ****                             bits = PL1_Red(bits, true);
 1520              		.loc 1 352 29 is_stmt 1 view .LVU497
 352:Core/Src/Traffic_Light.c ****                             bits = PL1_Red(bits, true);
 1521              		.loc 1 352 36 is_stmt 0 view .LVU498
 1522 04ba 484C     		ldr	r4, .L98
 1523 04bc 2068     		ldr	r0, [r4]
 1524 04be FFF7FEFF 		bl	PL1_Green
 1525              	.LVL94:
 352:Core/Src/Traffic_Light.c ****                             bits = PL1_Red(bits, true);
 1526              		.loc 1 352 34 view .LVU499
 1527 04c2 2060     		str	r0, [r4]
 353:Core/Src/Traffic_Light.c ****                         }
 1528              		.loc 1 353 29 is_stmt 1 view .LVU500
 353:Core/Src/Traffic_Light.c ****                         }
 1529              		.loc 1 353 36 is_stmt 0 view .LVU501
 1530 04c4 0121     		movs	r1, #1
 1531 04c6 FFF7FEFF 		bl	PL1_Red
 1532              	.LVL95:
 353:Core/Src/Traffic_Light.c ****                         }
 1533              		.loc 1 353 34 view .LVU502
 1534 04ca 2060     		str	r0, [r4]
 1535 04cc 6FE6     		b	.L67
 1536              	.L65:
 359:Core/Src/Traffic_Light.c ****                     if(BlueOn){
 1537              		.loc 1 359 17 is_stmt 1 view .LVU503
 359:Core/Src/Traffic_Light.c ****                     if(BlueOn){
 1538              		.loc 1 359 32 is_stmt 0 view .LVU504
 1539 04ce 4A4B     		ldr	r3, .L98+28
 1540 04d0 1B78     		ldrb	r3, [r3]	@ zero_extendqisi2
 359:Core/Src/Traffic_Light.c ****                     if(BlueOn){
 1541              		.loc 1 359 19 view .LVU505
 1542 04d2 83B1     		cbz	r3, .L71
 360:Core/Src/Traffic_Light.c ****                         bits = PL1_Blue(bits, true);
 1543              		.loc 1 360 21 is_stmt 1 view .LVU506
 360:Core/Src/Traffic_Light.c ****                         bits = PL1_Blue(bits, true);
 1544              		.loc 1 360 24 is_stmt 0 view .LVU507
 1545 04d4 494B     		ldr	r3, .L98+32
 1546 04d6 1B78     		ldrb	r3, [r3]	@ zero_extendqisi2
 360:Core/Src/Traffic_Light.c ****                         bits = PL1_Blue(bits, true);
 1547              		.loc 1 360 23 view .LVU508
 1548 04d8 33B1     		cbz	r3, .L72
 361:Core/Src/Traffic_Light.c ****                     }else{
 1549              		.loc 1 361 25 is_stmt 1 view .LVU509
 361:Core/Src/Traffic_Light.c ****                     }else{
 1550              		.loc 1 361 32 is_stmt 0 view .LVU510
 1551 04da 404C     		ldr	r4, .L98
 1552 04dc 0121     		movs	r1, #1
 1553 04de 2068     		ldr	r0, [r4]
 1554 04e0 FFF7FEFF 		bl	PL1_Blue
 1555              	.LVL96:
ARM GAS  C:\Users\ehgre\AppData\Local\Temp\ccd3aLcI.s 			page 41


 361:Core/Src/Traffic_Light.c ****                     }else{
 1556              		.loc 1 361 30 view .LVU511
 1557 04e4 2060     		str	r0, [r4]
 1558 04e6 62E6     		b	.L67
 1559              	.L72:
 363:Core/Src/Traffic_Light.c ****                     }
 1560              		.loc 1 363 25 is_stmt 1 view .LVU512
 363:Core/Src/Traffic_Light.c ****                     }
 1561              		.loc 1 363 32 is_stmt 0 view .LVU513
 1562 04e8 3C4C     		ldr	r4, .L98
 1563 04ea 0021     		movs	r1, #0
 1564 04ec 2068     		ldr	r0, [r4]
 1565 04ee FFF7FEFF 		bl	PL1_Blue
 1566              	.LVL97:
 363:Core/Src/Traffic_Light.c ****                     }
 1567              		.loc 1 363 30 view .LVU514
 1568 04f2 2060     		str	r0, [r4]
 1569 04f4 5BE6     		b	.L67
 1570              	.L71:
 366:Core/Src/Traffic_Light.c ****                     PLGreenDelay = walkingDelay;
 1571              		.loc 1 366 21 is_stmt 1 view .LVU515
 366:Core/Src/Traffic_Light.c ****                     PLGreenDelay = walkingDelay;
 1572              		.loc 1 366 25 is_stmt 0 view .LVU516
 1573 04f6 3F4B     		ldr	r3, .L98+24
 1574 04f8 0122     		movs	r2, #1
 1575 04fa 1A70     		strb	r2, [r3]
 367:Core/Src/Traffic_Light.c ****                     bits = PL1_Blue(bits, false);
 1576              		.loc 1 367 21 is_stmt 1 view .LVU517
 367:Core/Src/Traffic_Light.c ****                     bits = PL1_Blue(bits, false);
 1577              		.loc 1 367 34 is_stmt 0 view .LVU518
 1578 04fc 3C4B     		ldr	r3, .L98+20
 1579 04fe 0A22     		movs	r2, #10
 1580 0500 1A70     		strb	r2, [r3]
 368:Core/Src/Traffic_Light.c ****                 }
 1581              		.loc 1 368 21 is_stmt 1 view .LVU519
 368:Core/Src/Traffic_Light.c ****                 }
 1582              		.loc 1 368 28 is_stmt 0 view .LVU520
 1583 0502 364C     		ldr	r4, .L98
 1584 0504 0021     		movs	r1, #0
 1585 0506 2068     		ldr	r0, [r4]
 1586 0508 FFF7FEFF 		bl	PL1_Blue
 1587              	.LVL98:
 368:Core/Src/Traffic_Light.c ****                 }
 1588              		.loc 1 368 26 view .LVU521
 1589 050c 2060     		str	r0, [r4]
 1590 050e 4EE6     		b	.L67
 1591              	.L86:
 372:Core/Src/Traffic_Light.c ****                 bits = PL1_Green(bits,false);
 1592              		.loc 1 372 17 is_stmt 1 view .LVU522
 372:Core/Src/Traffic_Light.c ****                 bits = PL1_Green(bits,false);
 1593              		.loc 1 372 24 is_stmt 0 view .LVU523
 1594 0510 324C     		ldr	r4, .L98
 1595 0512 0121     		movs	r1, #1
 1596 0514 2068     		ldr	r0, [r4]
 1597 0516 FFF7FEFF 		bl	PL1_Red
 1598              	.LVL99:
 372:Core/Src/Traffic_Light.c ****                 bits = PL1_Green(bits,false);
ARM GAS  C:\Users\ehgre\AppData\Local\Temp\ccd3aLcI.s 			page 42


 1599              		.loc 1 372 22 view .LVU524
 1600 051a 2060     		str	r0, [r4]
 373:Core/Src/Traffic_Light.c ****                 break;
 1601              		.loc 1 373 17 is_stmt 1 view .LVU525
 373:Core/Src/Traffic_Light.c ****                 break;
 1602              		.loc 1 373 24 is_stmt 0 view .LVU526
 1603 051c 0021     		movs	r1, #0
 1604 051e FFF7FEFF 		bl	PL1_Green
 1605              	.LVL100:
 373:Core/Src/Traffic_Light.c ****                 break;
 1606              		.loc 1 373 22 view .LVU527
 1607 0522 2060     		str	r0, [r4]
 374:Core/Src/Traffic_Light.c ****             default:
 1608              		.loc 1 374 17 is_stmt 1 view .LVU528
 1609 0524 43E6     		b	.L67
 1610              	.L73:
 380:Core/Src/Traffic_Light.c ****             case PLGreen:
 381:Core/Src/Traffic_Light.c ****                 if((C4.light != TLRed) || (C2.light != TLRed) || (C3.light != TLRed)){
 1611              		.loc 1 381 17 view .LVU529
 1612              		.loc 1 381 23 is_stmt 0 view .LVU530
 1613 0526 314B     		ldr	r3, .L98+16
 1614 0528 1B79     		ldrb	r3, [r3, #4]	@ zero_extendqisi2
 1615              		.loc 1 381 19 view .LVU531
 1616 052a 2BB9     		cbnz	r3, .L77
 1617              		.loc 1 381 46 discriminator 1 view .LVU532
 1618 052c 344B     		ldr	r3, .L98+36
 1619 052e 1B79     		ldrb	r3, [r3, #4]	@ zero_extendqisi2
 1620              		.loc 1 381 40 discriminator 1 view .LVU533
 1621 0530 13B9     		cbnz	r3, .L77
 1622              		.loc 1 381 69 discriminator 2 view .LVU534
 1623 0532 2D4B     		ldr	r3, .L98+12
 1624 0534 1B79     		ldrb	r3, [r3, #4]	@ zero_extendqisi2
 1625              		.loc 1 381 63 discriminator 2 view .LVU535
 1626 0536 2BB1     		cbz	r3, .L78
 1627              	.L77:
 382:Core/Src/Traffic_Light.c ****                     checkAndChangeTL();
 1628              		.loc 1 382 21 is_stmt 1 view .LVU536
 1629 0538 FFF7FEFF 		bl	checkAndChangeTL
 1630              	.LVL101:
 383:Core/Src/Traffic_Light.c ****                     TLYellowDelay = orangeDelay;
 1631              		.loc 1 383 21 view .LVU537
 1632              		.loc 1 383 35 is_stmt 0 view .LVU538
 1633 053c 284B     		ldr	r3, .L98+4
 1634 053e 0122     		movs	r2, #1
 1635 0540 1A70     		strb	r2, [r3]
 1636 0542 3FE6     		b	.L35
 1637              	.L78:
 384:Core/Src/Traffic_Light.c ****                 }else{
 385:Core/Src/Traffic_Light.c ****                     if(TLYellowDelay == 0){
 1638              		.loc 1 385 21 is_stmt 1 view .LVU539
 1639              		.loc 1 385 38 is_stmt 0 view .LVU540
 1640 0544 264B     		ldr	r3, .L98+4
 1641 0546 1B78     		ldrb	r3, [r3]	@ zero_extendqisi2
 1642              		.loc 1 385 23 view .LVU541
 1643 0548 002B     		cmp	r3, #0
 1644 054a 7FF43BAE 		bne	.L35
 386:Core/Src/Traffic_Light.c ****                         if(PLGreenDelay > 0){
ARM GAS  C:\Users\ehgre\AppData\Local\Temp\ccd3aLcI.s 			page 43


 1645              		.loc 1 386 25 is_stmt 1 view .LVU542
 1646              		.loc 1 386 41 is_stmt 0 view .LVU543
 1647 054e 284B     		ldr	r3, .L98+20
 1648 0550 1B78     		ldrb	r3, [r3]	@ zero_extendqisi2
 1649              		.loc 1 386 27 view .LVU544
 1650 0552 53B1     		cbz	r3, .L79
 387:Core/Src/Traffic_Light.c ****                             bits = PL2_Green(bits, true);
 1651              		.loc 1 387 29 is_stmt 1 view .LVU545
 1652              		.loc 1 387 36 is_stmt 0 view .LVU546
 1653 0554 214C     		ldr	r4, .L98
 1654 0556 0121     		movs	r1, #1
 1655 0558 2068     		ldr	r0, [r4]
 1656 055a FFF7FEFF 		bl	PL2_Green
 1657              	.LVL102:
 1658              		.loc 1 387 34 view .LVU547
 1659 055e 2060     		str	r0, [r4]
 388:Core/Src/Traffic_Light.c ****                             bits = PL2_Red(bits, false);
 1660              		.loc 1 388 29 is_stmt 1 view .LVU548
 1661              		.loc 1 388 36 is_stmt 0 view .LVU549
 1662 0560 0021     		movs	r1, #0
 1663 0562 FFF7FEFF 		bl	PL2_Red
 1664              	.LVL103:
 1665              		.loc 1 388 34 view .LVU550
 1666 0566 2060     		str	r0, [r4]
 1667 0568 2CE6     		b	.L35
 1668              	.L79:
 389:Core/Src/Traffic_Light.c ****                         }else{
 390:Core/Src/Traffic_Light.c ****                             CW2 = PLRed;
 1669              		.loc 1 390 29 is_stmt 1 view .LVU551
 1670              		.loc 1 390 33 is_stmt 0 view .LVU552
 1671 056a 0021     		movs	r1, #0
 1672 056c 254B     		ldr	r3, .L98+40
 1673 056e 1970     		strb	r1, [r3]
 391:Core/Src/Traffic_Light.c ****                             bits = PL2_Green(bits, false);
 1674              		.loc 1 391 29 is_stmt 1 view .LVU553
 1675              		.loc 1 391 36 is_stmt 0 view .LVU554
 1676 0570 1A4C     		ldr	r4, .L98
 1677 0572 2068     		ldr	r0, [r4]
 1678 0574 FFF7FEFF 		bl	PL2_Green
 1679              	.LVL104:
 1680              		.loc 1 391 34 view .LVU555
 1681 0578 2060     		str	r0, [r4]
 392:Core/Src/Traffic_Light.c ****                             bits = PL2_Red(bits, true);
 1682              		.loc 1 392 29 is_stmt 1 view .LVU556
 1683              		.loc 1 392 36 is_stmt 0 view .LVU557
 1684 057a 0121     		movs	r1, #1
 1685 057c FFF7FEFF 		bl	PL2_Red
 1686              	.LVL105:
 1687              		.loc 1 392 34 view .LVU558
 1688 0580 2060     		str	r0, [r4]
 1689 0582 1FE6     		b	.L35
 1690              	.L74:
 393:Core/Src/Traffic_Light.c ****                         }
 394:Core/Src/Traffic_Light.c ****                     }
 395:Core/Src/Traffic_Light.c ****                 }
 396:Core/Src/Traffic_Light.c ****                 break;
 397:Core/Src/Traffic_Light.c ****             case PLBlue:
ARM GAS  C:\Users\ehgre\AppData\Local\Temp\ccd3aLcI.s 			page 44


 398:Core/Src/Traffic_Light.c ****                 if(PLBlueDelay > 0){
 1691              		.loc 1 398 17 is_stmt 1 view .LVU559
 1692              		.loc 1 398 32 is_stmt 0 view .LVU560
 1693 0584 1C4B     		ldr	r3, .L98+28
 1694 0586 1B78     		ldrb	r3, [r3]	@ zero_extendqisi2
 1695              		.loc 1 398 19 view .LVU561
 1696 0588 83B1     		cbz	r3, .L80
 399:Core/Src/Traffic_Light.c ****                     if(BlueOn){
 1697              		.loc 1 399 21 is_stmt 1 view .LVU562
 1698              		.loc 1 399 24 is_stmt 0 view .LVU563
 1699 058a 1C4B     		ldr	r3, .L98+32
 1700 058c 1B78     		ldrb	r3, [r3]	@ zero_extendqisi2
 1701              		.loc 1 399 23 view .LVU564
 1702 058e 33B1     		cbz	r3, .L81
 400:Core/Src/Traffic_Light.c ****                         bits = PL2_Blue(bits, true);
 1703              		.loc 1 400 25 is_stmt 1 view .LVU565
 1704              		.loc 1 400 32 is_stmt 0 view .LVU566
 1705 0590 124C     		ldr	r4, .L98
 1706 0592 0121     		movs	r1, #1
 1707 0594 2068     		ldr	r0, [r4]
 1708 0596 FFF7FEFF 		bl	PL2_Blue
 1709              	.LVL106:
 1710              		.loc 1 400 30 view .LVU567
 1711 059a 2060     		str	r0, [r4]
 1712 059c 12E6     		b	.L35
 1713              	.L81:
 401:Core/Src/Traffic_Light.c ****                     }else{
 402:Core/Src/Traffic_Light.c ****                         bits = PL2_Blue(bits, false);
 1714              		.loc 1 402 25 is_stmt 1 view .LVU568
 1715              		.loc 1 402 32 is_stmt 0 view .LVU569
 1716 059e 0F4C     		ldr	r4, .L98
 1717 05a0 0021     		movs	r1, #0
 1718 05a2 2068     		ldr	r0, [r4]
 1719 05a4 FFF7FEFF 		bl	PL2_Blue
 1720              	.LVL107:
 1721              		.loc 1 402 30 view .LVU570
 1722 05a8 2060     		str	r0, [r4]
 1723 05aa 0BE6     		b	.L35
 1724              	.L80:
 403:Core/Src/Traffic_Light.c ****                     }
 404:Core/Src/Traffic_Light.c ****                 }else{
 405:Core/Src/Traffic_Light.c ****                     CW2 = PLGreen;
 1725              		.loc 1 405 21 is_stmt 1 view .LVU571
 1726              		.loc 1 405 25 is_stmt 0 view .LVU572
 1727 05ac 154B     		ldr	r3, .L98+40
 1728 05ae 0122     		movs	r2, #1
 1729 05b0 1A70     		strb	r2, [r3]
 406:Core/Src/Traffic_Light.c ****                     PLGreenDelay = walkingDelay;
 1730              		.loc 1 406 21 is_stmt 1 view .LVU573
 1731              		.loc 1 406 34 is_stmt 0 view .LVU574
 1732 05b2 0F4B     		ldr	r3, .L98+20
 1733 05b4 0A22     		movs	r2, #10
 1734 05b6 1A70     		strb	r2, [r3]
 407:Core/Src/Traffic_Light.c ****                     bits = PL2_Blue(bits, false);
 1735              		.loc 1 407 21 is_stmt 1 view .LVU575
 1736              		.loc 1 407 28 is_stmt 0 view .LVU576
 1737 05b8 084C     		ldr	r4, .L98
ARM GAS  C:\Users\ehgre\AppData\Local\Temp\ccd3aLcI.s 			page 45


 1738 05ba 0021     		movs	r1, #0
 1739 05bc 2068     		ldr	r0, [r4]
 1740 05be FFF7FEFF 		bl	PL2_Blue
 1741              	.LVL108:
 1742              		.loc 1 407 26 view .LVU577
 1743 05c2 2060     		str	r0, [r4]
 1744 05c4 FEE5     		b	.L35
 1745              	.L87:
 408:Core/Src/Traffic_Light.c ****                 }
 409:Core/Src/Traffic_Light.c ****                 break;
 410:Core/Src/Traffic_Light.c ****             case PLRed:
 411:Core/Src/Traffic_Light.c ****                 bits = PL2_Red(bits,true);
 1746              		.loc 1 411 17 is_stmt 1 view .LVU578
 1747              		.loc 1 411 24 is_stmt 0 view .LVU579
 1748 05c6 054C     		ldr	r4, .L98
 1749 05c8 0121     		movs	r1, #1
 1750 05ca 2068     		ldr	r0, [r4]
 1751 05cc FFF7FEFF 		bl	PL2_Red
 1752              	.LVL109:
 1753              		.loc 1 411 22 view .LVU580
 1754 05d0 2060     		str	r0, [r4]
 412:Core/Src/Traffic_Light.c ****                 bits = PL2_Green(bits,false);
 1755              		.loc 1 412 17 is_stmt 1 view .LVU581
 1756              		.loc 1 412 24 is_stmt 0 view .LVU582
 1757 05d2 0021     		movs	r1, #0
 1758 05d4 FFF7FEFF 		bl	PL2_Green
 1759              	.LVL110:
 1760              		.loc 1 412 22 view .LVU583
 1761 05d8 2060     		str	r0, [r4]
 413:Core/Src/Traffic_Light.c ****                 break;
 1762              		.loc 1 413 17 is_stmt 1 view .LVU584
 1763 05da F3E5     		b	.L35
 1764              	.L99:
 1765              		.align	2
 1766              	.L98:
 1767 05dc 00000000 		.word	bits
 1768 05e0 00000000 		.word	TLYellowDelay
 1769 05e4 00000000 		.word	C1
 1770 05e8 00000000 		.word	C3
 1771 05ec 00000000 		.word	C4
 1772 05f0 00000000 		.word	PLGreenDelay
 1773 05f4 00000000 		.word	CW1
 1774 05f8 00000000 		.word	PLBlueDelay
 1775 05fc 00000000 		.word	BlueOn
 1776 0600 00000000 		.word	C2
 1777 0604 00000000 		.word	CW2
 1778              		.cfi_endproc
 1779              	.LFE323:
 1781              		.section	.text.HAL_TIM_PeriodElapsedCallback,"ax",%progbits
 1782              		.align	1
 1783              		.global	HAL_TIM_PeriodElapsedCallback
 1784              		.syntax unified
 1785              		.thumb
 1786              		.thumb_func
 1788              	HAL_TIM_PeriodElapsedCallback:
 1789              	.LVL111:
 1790              	.LFB324:
ARM GAS  C:\Users\ehgre\AppData\Local\Temp\ccd3aLcI.s 			page 46


 414:Core/Src/Traffic_Light.c ****             default:
 415:Core/Src/Traffic_Light.c ****                 break;
 416:Core/Src/Traffic_Light.c ****         }
 417:Core/Src/Traffic_Light.c ****     }
 418:Core/Src/Traffic_Light.c **** }
 419:Core/Src/Traffic_Light.c **** 
 420:Core/Src/Traffic_Light.c **** void HAL_TIM_PeriodElapsedCallback(TIM_HandleTypeDef *htim){
 1791              		.loc 1 420 60 view -0
 1792              		.cfi_startproc
 1793              		@ args = 0, pretend = 0, frame = 0
 1794              		@ frame_needed = 0, uses_anonymous_args = 0
 1795              		.loc 1 420 60 is_stmt 0 view .LVU586
 1796 0000 08B5     		push	{r3, lr}
 1797              	.LCFI8:
 1798              		.cfi_def_cfa_offset 8
 1799              		.cfi_offset 3, -8
 1800              		.cfi_offset 14, -4
 421:Core/Src/Traffic_Light.c ****     if(htim == &htim16){
 1801              		.loc 1 421 5 is_stmt 1 view .LVU587
 1802              		.loc 1 421 7 is_stmt 0 view .LVU588
 1803 0002 A74B     		ldr	r3, .L136
 1804 0004 8342     		cmp	r3, r0
 1805 0006 00D0     		beq	.L131
 1806              	.LVL112:
 1807              	.L100:
 422:Core/Src/Traffic_Light.c ****         if(msTick >= 10000){ //1 second
 423:Core/Src/Traffic_Light.c **** 
 424:Core/Src/Traffic_Light.c ****             HAL_GPIO_TogglePin(USR_LED1_GPIO_Port, USR_LED1_Pin);
 425:Core/Src/Traffic_Light.c **** 
 426:Core/Src/Traffic_Light.c ****             if(TLYellowDelay > 0){
 427:Core/Src/Traffic_Light.c ****                 TLYellowDelay--;
 428:Core/Src/Traffic_Light.c ****             }
 429:Core/Src/Traffic_Light.c **** 
 430:Core/Src/Traffic_Light.c ****             if(R2GDelay > 0){
 431:Core/Src/Traffic_Light.c ****                 R2GDelay--;
 432:Core/Src/Traffic_Light.c ****             }
 433:Core/Src/Traffic_Light.c **** 
 434:Core/Src/Traffic_Light.c ****             if(NCWaitingDelay > 0){
 435:Core/Src/Traffic_Light.c ****                 if(TLYellowDelay == 0){
 436:Core/Src/Traffic_Light.c ****                     NCWaitingDelay--;
 437:Core/Src/Traffic_Light.c ****                 }
 438:Core/Src/Traffic_Light.c ****                 if(NCWaitingState == G1){
 439:Core/Src/Traffic_Light.c ****                     Show_G1Bar(true, (100 - ((NCWaitingDelay*100)/greenDelay)));
 440:Core/Src/Traffic_Light.c ****                     Show_G2Bar(true, 0);
 441:Core/Src/Traffic_Light.c ****                 }else{
 442:Core/Src/Traffic_Light.c ****                     Show_G2Bar(true, (100 - ((NCWaitingDelay*100)/greenDelay)));
 443:Core/Src/Traffic_Light.c ****                     Show_G1Bar(true, 0);
 444:Core/Src/Traffic_Light.c ****                 }
 445:Core/Src/Traffic_Light.c ****                 if(NCWaitingDelay == 0){
 446:Core/Src/Traffic_Light.c ****                     if(NCWaitingState == G1){
 447:Core/Src/Traffic_Light.c ****                         NCWaitingState = G2;
 448:Core/Src/Traffic_Light.c ****                     }else{
 449:Core/Src/Traffic_Light.c ****                         NCWaitingState = G1;
 450:Core/Src/Traffic_Light.c ****                     }
 451:Core/Src/Traffic_Light.c ****                 }
 452:Core/Src/Traffic_Light.c ****             }
 453:Core/Src/Traffic_Light.c **** 
ARM GAS  C:\Users\ehgre\AppData\Local\Temp\ccd3aLcI.s 			page 47


 454:Core/Src/Traffic_Light.c ****             if(TLRedWaitTime > 0){
 455:Core/Src/Traffic_Light.c ****                 if(TLYellowDelay == 0){
 456:Core/Src/Traffic_Light.c ****                     TLRedWaitTime--;
 457:Core/Src/Traffic_Light.c ****                 }
 458:Core/Src/Traffic_Light.c ****                 if(NCWaitingState == G1){
 459:Core/Src/Traffic_Light.c ****                     Show_R2Bar(true, (100 - ((TLRedWaitTime*100)/redDelayMax)));
 460:Core/Src/Traffic_Light.c ****                     Show_R1Bar(true, 0);
 461:Core/Src/Traffic_Light.c ****                 }else{
 462:Core/Src/Traffic_Light.c ****                     Show_R1Bar(true, (100 - ((TLRedWaitTime*100)/redDelayMax)));
 463:Core/Src/Traffic_Light.c ****                     Show_R2Bar(true, 0);
 464:Core/Src/Traffic_Light.c ****                 }
 465:Core/Src/Traffic_Light.c ****                 if(TLRedWaitTime == 0){
 466:Core/Src/Traffic_Light.c ****                     if(NCWaitingState == G1){
 467:Core/Src/Traffic_Light.c ****                         NCWaitingState = G2;
 468:Core/Src/Traffic_Light.c ****                     }else{
 469:Core/Src/Traffic_Light.c ****                         NCWaitingState = G1;
 470:Core/Src/Traffic_Light.c ****                     }
 471:Core/Src/Traffic_Light.c ****                 }
 472:Core/Src/Traffic_Light.c ****             }else{
 473:Core/Src/Traffic_Light.c ****                 Show_R1Bar(true, 0);
 474:Core/Src/Traffic_Light.c ****                 Show_R2Bar(true, 0);
 475:Core/Src/Traffic_Light.c ****             }
 476:Core/Src/Traffic_Light.c **** 
 477:Core/Src/Traffic_Light.c ****             if(PLBlueDelay > 0){
 478:Core/Src/Traffic_Light.c ****                 PLBlueDelay--;
 479:Core/Src/Traffic_Light.c ****                 if(CW1 == PLBlue){
 480:Core/Src/Traffic_Light.c ****                     Show_P1Bar(true, (100 - ((PLBlueDelay*100)/pedestrianDelay)));
 481:Core/Src/Traffic_Light.c ****                 }
 482:Core/Src/Traffic_Light.c ****                 if(CW2 == PLBlue){
 483:Core/Src/Traffic_Light.c ****                     Show_P2Bar(true, (100 - ((PLBlueDelay*100)/pedestrianDelay)));
 484:Core/Src/Traffic_Light.c ****                 }
 485:Core/Src/Traffic_Light.c ****             }else{
 486:Core/Src/Traffic_Light.c ****                 if(PLGreenDelay > 0){
 487:Core/Src/Traffic_Light.c ****                     PLGreenDelay--;
 488:Core/Src/Traffic_Light.c ****                     if(CW1 == PLGreen){
 489:Core/Src/Traffic_Light.c ****                         Show_W1Bar(true, (100 - ((PLGreenDelay*100)/walkingDelay)));
 490:Core/Src/Traffic_Light.c ****                     }
 491:Core/Src/Traffic_Light.c ****                     if(CW2 == PLGreen){
 492:Core/Src/Traffic_Light.c ****                         Show_W2Bar(true, (100 - ((PLGreenDelay*100)/walkingDelay)));
 493:Core/Src/Traffic_Light.c ****                     }
 494:Core/Src/Traffic_Light.c ****                 }else{
 495:Core/Src/Traffic_Light.c ****                     Show_W1Bar(true, 0);
 496:Core/Src/Traffic_Light.c ****                     Show_W2Bar(true, 0);
 497:Core/Src/Traffic_Light.c ****                 }
 498:Core/Src/Traffic_Light.c ****                 Show_P1Bar(true, 0);
 499:Core/Src/Traffic_Light.c ****                 Show_P2Bar(true, 0);
 500:Core/Src/Traffic_Light.c ****             }
 501:Core/Src/Traffic_Light.c **** 
 502:Core/Src/Traffic_Light.c ****             msTick = 1;
 503:Core/Src/Traffic_Light.c ****         }else{
 504:Core/Src/Traffic_Light.c ****             msTick++;
 505:Core/Src/Traffic_Light.c ****         }
 506:Core/Src/Traffic_Light.c **** 
 507:Core/Src/Traffic_Light.c ****         if(TickFlash >= (toggleFreq*10)){ //10 ms
 508:Core/Src/Traffic_Light.c ****             if(BlueOn){
 509:Core/Src/Traffic_Light.c ****                 BlueOn = false;
 510:Core/Src/Traffic_Light.c ****             }else{
ARM GAS  C:\Users\ehgre\AppData\Local\Temp\ccd3aLcI.s 			page 48


 511:Core/Src/Traffic_Light.c ****                 BlueOn = true;
 512:Core/Src/Traffic_Light.c ****             }
 513:Core/Src/Traffic_Light.c ****             TickFlash = 1;
 514:Core/Src/Traffic_Light.c ****         }else{
 515:Core/Src/Traffic_Light.c ****             TickFlash++;
 516:Core/Src/Traffic_Light.c ****         }
 517:Core/Src/Traffic_Light.c **** 
 518:Core/Src/Traffic_Light.c ****         if(Tick >= 100){ //10 ms
 519:Core/Src/Traffic_Light.c ****             Tick = 1;
 520:Core/Src/Traffic_Light.c ****         }else{
 521:Core/Src/Traffic_Light.c ****             Tick++;
 522:Core/Src/Traffic_Light.c ****         }
 523:Core/Src/Traffic_Light.c **** 
 524:Core/Src/Traffic_Light.c ****         if(Tick > brightness){
 525:Core/Src/Traffic_Light.c ****             HAL_GPIO_WritePin(Enable_595_GPIO_Port, Enable_595_Pin, GPIO_PIN_SET);
 526:Core/Src/Traffic_Light.c ****         }else{
 527:Core/Src/Traffic_Light.c ****             HAL_GPIO_WritePin(Enable_595_GPIO_Port, Enable_595_Pin, GPIO_PIN_RESET);
 528:Core/Src/Traffic_Light.c ****         }
 529:Core/Src/Traffic_Light.c **** 
 530:Core/Src/Traffic_Light.c ****     }
 531:Core/Src/Traffic_Light.c **** }...
 1808              		.loc 1 531 1 view .LVU589
 1809 0008 08BD     		pop	{r3, pc}
 1810              	.LVL113:
 1811              	.L131:
 422:Core/Src/Traffic_Light.c ****         if(msTick >= 10000){ //1 second
 1812              		.loc 1 422 9 is_stmt 1 view .LVU590
 422:Core/Src/Traffic_Light.c ****         if(msTick >= 10000){ //1 second
 1813              		.loc 1 422 19 is_stmt 0 view .LVU591
 1814 000a A64B     		ldr	r3, .L136+4
 1815 000c 1B88     		ldrh	r3, [r3]
 422:Core/Src/Traffic_Light.c ****         if(msTick >= 10000){ //1 second
 1816              		.loc 1 422 11 view .LVU592
 1817 000e 42F20F72 		movw	r2, #9999
 1818 0012 9342     		cmp	r3, r2
 1819 0014 28D8     		bhi	.L132
 504:Core/Src/Traffic_Light.c ****             msTick++;
 1820              		.loc 1 504 13 is_stmt 1 view .LVU593
 504:Core/Src/Traffic_Light.c ****             msTick++;
 1821              		.loc 1 504 19 is_stmt 0 view .LVU594
 1822 0016 0133     		adds	r3, r3, #1
 1823 0018 A24A     		ldr	r2, .L136+4
 1824 001a 1380     		strh	r3, [r2]	@ movhi
 1825              	.LVL114:
 1826              	.L122:
 507:Core/Src/Traffic_Light.c ****         if(TickFlash >= (toggleFreq*10)){ //10 ms
 1827              		.loc 1 507 9 is_stmt 1 view .LVU595
 507:Core/Src/Traffic_Light.c ****         if(TickFlash >= (toggleFreq*10)){ //10 ms
 1828              		.loc 1 507 22 is_stmt 0 view .LVU596
 1829 001c A24B     		ldr	r3, .L136+8
 1830 001e 1B88     		ldrh	r3, [r3]
 507:Core/Src/Traffic_Light.c ****         if(TickFlash >= (toggleFreq*10)){ //10 ms
 1831              		.loc 1 507 11 view .LVU597
 1832 0020 B3F5FA6F 		cmp	r3, #2000
 1833 0024 C0F02D81 		bcc	.L123
 508:Core/Src/Traffic_Light.c ****             if(BlueOn){
 1834              		.loc 1 508 13 is_stmt 1 view .LVU598
ARM GAS  C:\Users\ehgre\AppData\Local\Temp\ccd3aLcI.s 			page 49


 508:Core/Src/Traffic_Light.c ****             if(BlueOn){
 1835              		.loc 1 508 16 is_stmt 0 view .LVU599
 1836 0028 A04B     		ldr	r3, .L136+12
 1837 002a 1B78     		ldrb	r3, [r3]	@ zero_extendqisi2
 508:Core/Src/Traffic_Light.c ****             if(BlueOn){
 1838              		.loc 1 508 15 view .LVU600
 1839 002c 002B     		cmp	r3, #0
 1840 002e 00F02481 		beq	.L124
 509:Core/Src/Traffic_Light.c ****                 BlueOn = false;
 1841              		.loc 1 509 17 is_stmt 1 view .LVU601
 509:Core/Src/Traffic_Light.c ****                 BlueOn = false;
 1842              		.loc 1 509 24 is_stmt 0 view .LVU602
 1843 0032 9E4B     		ldr	r3, .L136+12
 1844 0034 0022     		movs	r2, #0
 1845 0036 1A70     		strb	r2, [r3]
 1846              	.L125:
 513:Core/Src/Traffic_Light.c ****             TickFlash = 1;
 1847              		.loc 1 513 13 is_stmt 1 view .LVU603
 513:Core/Src/Traffic_Light.c ****             TickFlash = 1;
 1848              		.loc 1 513 23 is_stmt 0 view .LVU604
 1849 0038 9B4B     		ldr	r3, .L136+8
 1850 003a 0122     		movs	r2, #1
 1851 003c 1A80     		strh	r2, [r3]	@ movhi
 1852              	.L126:
 518:Core/Src/Traffic_Light.c ****         if(Tick >= 100){ //10 ms
 1853              		.loc 1 518 9 is_stmt 1 view .LVU605
 518:Core/Src/Traffic_Light.c ****         if(Tick >= 100){ //10 ms
 1854              		.loc 1 518 17 is_stmt 0 view .LVU606
 1855 003e 9C4B     		ldr	r3, .L136+16
 1856 0040 1B78     		ldrb	r3, [r3]	@ zero_extendqisi2
 518:Core/Src/Traffic_Light.c ****         if(Tick >= 100){ //10 ms
 1857              		.loc 1 518 11 view .LVU607
 1858 0042 632B     		cmp	r3, #99
 1859 0044 40F22181 		bls	.L127
 519:Core/Src/Traffic_Light.c ****             Tick = 1;
 1860              		.loc 1 519 13 is_stmt 1 view .LVU608
 519:Core/Src/Traffic_Light.c ****             Tick = 1;
 1861              		.loc 1 519 18 is_stmt 0 view .LVU609
 1862 0048 994B     		ldr	r3, .L136+16
 1863 004a 0122     		movs	r2, #1
 1864 004c 1A70     		strb	r2, [r3]
 1865              	.L128:
 524:Core/Src/Traffic_Light.c ****         if(Tick > brightness){
 1866              		.loc 1 524 9 is_stmt 1 view .LVU610
 524:Core/Src/Traffic_Light.c ****         if(Tick > brightness){
 1867              		.loc 1 524 17 is_stmt 0 view .LVU611
 1868 004e 984B     		ldr	r3, .L136+16
 1869 0050 1A78     		ldrb	r2, [r3]	@ zero_extendqisi2
 1870 0052 984B     		ldr	r3, .L136+20
 1871 0054 1B78     		ldrb	r3, [r3]	@ zero_extendqisi2
 524:Core/Src/Traffic_Light.c ****         if(Tick > brightness){
 1872              		.loc 1 524 11 view .LVU612
 1873 0056 9A42     		cmp	r2, r3
 1874 0058 40F21B81 		bls	.L129
 525:Core/Src/Traffic_Light.c ****             HAL_GPIO_WritePin(Enable_595_GPIO_Port, Enable_595_Pin, GPIO_PIN_SET);
 1875              		.loc 1 525 13 is_stmt 1 view .LVU613
 1876 005c 0122     		movs	r2, #1
ARM GAS  C:\Users\ehgre\AppData\Local\Temp\ccd3aLcI.s 			page 50


 1877 005e 8021     		movs	r1, #128
 1878 0060 9548     		ldr	r0, .L136+24
 1879 0062 FFF7FEFF 		bl	HAL_GPIO_WritePin
 1880              	.LVL115:
 1881 0066 CFE7     		b	.L100
 1882              	.LVL116:
 1883              	.L132:
 424:Core/Src/Traffic_Light.c ****             HAL_GPIO_TogglePin(USR_LED1_GPIO_Port, USR_LED1_Pin);
 1884              		.loc 1 424 13 view .LVU614
 1885 0068 0421     		movs	r1, #4
 1886 006a 9448     		ldr	r0, .L136+28
 1887              	.LVL117:
 424:Core/Src/Traffic_Light.c ****             HAL_GPIO_TogglePin(USR_LED1_GPIO_Port, USR_LED1_Pin);
 1888              		.loc 1 424 13 is_stmt 0 view .LVU615
 1889 006c FFF7FEFF 		bl	HAL_GPIO_TogglePin
 1890              	.LVL118:
 426:Core/Src/Traffic_Light.c ****             if(TLYellowDelay > 0){
 1891              		.loc 1 426 13 is_stmt 1 view .LVU616
 426:Core/Src/Traffic_Light.c ****             if(TLYellowDelay > 0){
 1892              		.loc 1 426 30 is_stmt 0 view .LVU617
 1893 0070 934B     		ldr	r3, .L136+32
 1894 0072 1B78     		ldrb	r3, [r3]	@ zero_extendqisi2
 426:Core/Src/Traffic_Light.c ****             if(TLYellowDelay > 0){
 1895              		.loc 1 426 15 view .LVU618
 1896 0074 13B1     		cbz	r3, .L103
 427:Core/Src/Traffic_Light.c ****                 TLYellowDelay--;
 1897              		.loc 1 427 17 is_stmt 1 view .LVU619
 427:Core/Src/Traffic_Light.c ****                 TLYellowDelay--;
 1898              		.loc 1 427 30 is_stmt 0 view .LVU620
 1899 0076 013B     		subs	r3, r3, #1
 1900 0078 914A     		ldr	r2, .L136+32
 1901 007a 1370     		strb	r3, [r2]
 1902              	.L103:
 430:Core/Src/Traffic_Light.c ****             if(R2GDelay > 0){
 1903              		.loc 1 430 13 is_stmt 1 view .LVU621
 430:Core/Src/Traffic_Light.c ****             if(R2GDelay > 0){
 1904              		.loc 1 430 25 is_stmt 0 view .LVU622
 1905 007c 914B     		ldr	r3, .L136+36
 1906 007e 1B78     		ldrb	r3, [r3]	@ zero_extendqisi2
 430:Core/Src/Traffic_Light.c ****             if(R2GDelay > 0){
 1907              		.loc 1 430 15 view .LVU623
 1908 0080 13B1     		cbz	r3, .L104
 431:Core/Src/Traffic_Light.c ****                 R2GDelay--;
 1909              		.loc 1 431 17 is_stmt 1 view .LVU624
 431:Core/Src/Traffic_Light.c ****                 R2GDelay--;
 1910              		.loc 1 431 25 is_stmt 0 view .LVU625
 1911 0082 013B     		subs	r3, r3, #1
 1912 0084 8F4A     		ldr	r2, .L136+36
 1913 0086 1370     		strb	r3, [r2]
 1914              	.L104:
 434:Core/Src/Traffic_Light.c ****             if(NCWaitingDelay > 0){
 1915              		.loc 1 434 13 is_stmt 1 view .LVU626
 434:Core/Src/Traffic_Light.c ****             if(NCWaitingDelay > 0){
 1916              		.loc 1 434 31 is_stmt 0 view .LVU627
 1917 0088 8F4B     		ldr	r3, .L136+40
 1918 008a 1B78     		ldrb	r3, [r3]	@ zero_extendqisi2
 434:Core/Src/Traffic_Light.c ****             if(NCWaitingDelay > 0){
ARM GAS  C:\Users\ehgre\AppData\Local\Temp\ccd3aLcI.s 			page 51


 1919              		.loc 1 434 15 view .LVU628
 1920 008c 3BB3     		cbz	r3, .L105
 435:Core/Src/Traffic_Light.c ****                 if(TLYellowDelay == 0){
 1921              		.loc 1 435 17 is_stmt 1 view .LVU629
 435:Core/Src/Traffic_Light.c ****                 if(TLYellowDelay == 0){
 1922              		.loc 1 435 34 is_stmt 0 view .LVU630
 1923 008e 8C4A     		ldr	r2, .L136+32
 1924 0090 1278     		ldrb	r2, [r2]	@ zero_extendqisi2
 435:Core/Src/Traffic_Light.c ****                 if(TLYellowDelay == 0){
 1925              		.loc 1 435 19 view .LVU631
 1926 0092 12B9     		cbnz	r2, .L106
 436:Core/Src/Traffic_Light.c ****                     NCWaitingDelay--;
 1927              		.loc 1 436 21 is_stmt 1 view .LVU632
 436:Core/Src/Traffic_Light.c ****                     NCWaitingDelay--;
 1928              		.loc 1 436 35 is_stmt 0 view .LVU633
 1929 0094 013B     		subs	r3, r3, #1
 1930 0096 8C4A     		ldr	r2, .L136+40
 1931 0098 1370     		strb	r3, [r2]
 1932              	.L106:
 438:Core/Src/Traffic_Light.c ****                 if(NCWaitingState == G1){
 1933              		.loc 1 438 17 is_stmt 1 view .LVU634
 438:Core/Src/Traffic_Light.c ****                 if(NCWaitingState == G1){
 1934              		.loc 1 438 35 is_stmt 0 view .LVU635
 1935 009a 8C4B     		ldr	r3, .L136+44
 1936 009c 1B78     		ldrb	r3, [r3]	@ zero_extendqisi2
 438:Core/Src/Traffic_Light.c ****                 if(NCWaitingState == G1){
 1937              		.loc 1 438 19 view .LVU636
 1938 009e 002B     		cmp	r3, #0
 1939 00a0 4AD1     		bne	.L107
 439:Core/Src/Traffic_Light.c ****                     Show_G1Bar(true, (100 - ((NCWaitingDelay*100)/greenDelay)));
 1940              		.loc 1 439 21 is_stmt 1 view .LVU637
 439:Core/Src/Traffic_Light.c ****                     Show_G1Bar(true, (100 - ((NCWaitingDelay*100)/greenDelay)));
 1941              		.loc 1 439 61 is_stmt 0 view .LVU638
 1942 00a2 894B     		ldr	r3, .L136+40
 1943 00a4 1B78     		ldrb	r3, [r3]	@ zero_extendqisi2
 1944 00a6 6422     		movs	r2, #100
 1945 00a8 02FB03F3 		mul	r3, r2, r3
 439:Core/Src/Traffic_Light.c ****                     Show_G1Bar(true, (100 - ((NCWaitingDelay*100)/greenDelay)));
 1946              		.loc 1 439 66 view .LVU639
 1947 00ac 8849     		ldr	r1, .L136+48
 1948 00ae 81FB0321 		smull	r2, r1, r1, r3
 1949 00b2 1944     		add	r1, r1, r3
 1950 00b4 8910     		asrs	r1, r1, #2
 439:Core/Src/Traffic_Light.c ****                     Show_G1Bar(true, (100 - ((NCWaitingDelay*100)/greenDelay)));
 1951              		.loc 1 439 21 view .LVU640
 1952 00b6 C1F16401 		rsb	r1, r1, #100
 1953 00ba C9B2     		uxtb	r1, r1
 1954 00bc 0120     		movs	r0, #1
 1955 00be FFF7FEFF 		bl	Show_G1Bar
 1956              	.LVL119:
 440:Core/Src/Traffic_Light.c ****                     Show_G2Bar(true, 0);
 1957              		.loc 1 440 21 is_stmt 1 view .LVU641
 1958 00c2 0021     		movs	r1, #0
 1959 00c4 0120     		movs	r0, #1
 1960 00c6 FFF7FEFF 		bl	Show_G2Bar
 1961              	.LVL120:
 1962              	.L108:
ARM GAS  C:\Users\ehgre\AppData\Local\Temp\ccd3aLcI.s 			page 52


 445:Core/Src/Traffic_Light.c ****                 if(NCWaitingDelay == 0){
 1963              		.loc 1 445 17 view .LVU642
 445:Core/Src/Traffic_Light.c ****                 if(NCWaitingDelay == 0){
 1964              		.loc 1 445 35 is_stmt 0 view .LVU643
 1965 00ca 7F4B     		ldr	r3, .L136+40
 1966 00cc 1B78     		ldrb	r3, [r3]	@ zero_extendqisi2
 445:Core/Src/Traffic_Light.c ****                 if(NCWaitingDelay == 0){
 1967              		.loc 1 445 19 view .LVU644
 1968 00ce 33B9     		cbnz	r3, .L105
 446:Core/Src/Traffic_Light.c ****                     if(NCWaitingState == G1){
 1969              		.loc 1 446 21 is_stmt 1 view .LVU645
 446:Core/Src/Traffic_Light.c ****                     if(NCWaitingState == G1){
 1970              		.loc 1 446 39 is_stmt 0 view .LVU646
 1971 00d0 7E4B     		ldr	r3, .L136+44
 1972 00d2 1B78     		ldrb	r3, [r3]	@ zero_extendqisi2
 446:Core/Src/Traffic_Light.c ****                     if(NCWaitingState == G1){
 1973              		.loc 1 446 23 view .LVU647
 1974 00d4 002B     		cmp	r3, #0
 1975 00d6 44D1     		bne	.L109
 447:Core/Src/Traffic_Light.c ****                         NCWaitingState = G2;
 1976              		.loc 1 447 25 is_stmt 1 view .LVU648
 447:Core/Src/Traffic_Light.c ****                         NCWaitingState = G2;
 1977              		.loc 1 447 40 is_stmt 0 view .LVU649
 1978 00d8 7C4B     		ldr	r3, .L136+44
 1979 00da 0122     		movs	r2, #1
 1980 00dc 1A70     		strb	r2, [r3]
 1981              	.L105:
 454:Core/Src/Traffic_Light.c ****             if(TLRedWaitTime > 0){
 1982              		.loc 1 454 13 is_stmt 1 view .LVU650
 454:Core/Src/Traffic_Light.c ****             if(TLRedWaitTime > 0){
 1983              		.loc 1 454 30 is_stmt 0 view .LVU651
 1984 00de 7D4B     		ldr	r3, .L136+52
 1985 00e0 1B78     		ldrb	r3, [r3]	@ zero_extendqisi2
 454:Core/Src/Traffic_Light.c ****             if(TLRedWaitTime > 0){
 1986              		.loc 1 454 15 view .LVU652
 1987 00e2 002B     		cmp	r3, #0
 1988 00e4 5AD0     		beq	.L110
 455:Core/Src/Traffic_Light.c ****                 if(TLYellowDelay == 0){
 1989              		.loc 1 455 17 is_stmt 1 view .LVU653
 455:Core/Src/Traffic_Light.c ****                 if(TLYellowDelay == 0){
 1990              		.loc 1 455 34 is_stmt 0 view .LVU654
 1991 00e6 764A     		ldr	r2, .L136+32
 1992 00e8 1278     		ldrb	r2, [r2]	@ zero_extendqisi2
 455:Core/Src/Traffic_Light.c ****                 if(TLYellowDelay == 0){
 1993              		.loc 1 455 19 view .LVU655
 1994 00ea 12B9     		cbnz	r2, .L111
 456:Core/Src/Traffic_Light.c ****                     TLRedWaitTime--;
 1995              		.loc 1 456 21 is_stmt 1 view .LVU656
 456:Core/Src/Traffic_Light.c ****                     TLRedWaitTime--;
 1996              		.loc 1 456 34 is_stmt 0 view .LVU657
 1997 00ec 013B     		subs	r3, r3, #1
 1998 00ee 794A     		ldr	r2, .L136+52
 1999 00f0 1370     		strb	r3, [r2]
 2000              	.L111:
 458:Core/Src/Traffic_Light.c ****                 if(NCWaitingState == G1){
 2001              		.loc 1 458 17 is_stmt 1 view .LVU658
 458:Core/Src/Traffic_Light.c ****                 if(NCWaitingState == G1){
ARM GAS  C:\Users\ehgre\AppData\Local\Temp\ccd3aLcI.s 			page 53


 2002              		.loc 1 458 35 is_stmt 0 view .LVU659
 2003 00f2 764B     		ldr	r3, .L136+44
 2004 00f4 1B78     		ldrb	r3, [r3]	@ zero_extendqisi2
 458:Core/Src/Traffic_Light.c ****                 if(NCWaitingState == G1){
 2005              		.loc 1 458 19 view .LVU660
 2006 00f6 002B     		cmp	r3, #0
 2007 00f8 37D1     		bne	.L112
 459:Core/Src/Traffic_Light.c ****                     Show_R2Bar(true, (100 - ((TLRedWaitTime*100)/redDelayMax)));
 2008              		.loc 1 459 21 is_stmt 1 view .LVU661
 459:Core/Src/Traffic_Light.c ****                     Show_R2Bar(true, (100 - ((TLRedWaitTime*100)/redDelayMax)));
 2009              		.loc 1 459 60 is_stmt 0 view .LVU662
 2010 00fa 764B     		ldr	r3, .L136+52
 2011 00fc 1B78     		ldrb	r3, [r3]	@ zero_extendqisi2
 2012 00fe 6422     		movs	r2, #100
 2013 0100 02FB03F3 		mul	r3, r2, r3
 459:Core/Src/Traffic_Light.c ****                     Show_R2Bar(true, (100 - ((TLRedWaitTime*100)/redDelayMax)));
 2014              		.loc 1 459 65 view .LVU663
 2015 0104 7249     		ldr	r1, .L136+48
 2016 0106 81FB0321 		smull	r2, r1, r1, r3
 2017 010a 1944     		add	r1, r1, r3
 2018 010c 8910     		asrs	r1, r1, #2
 459:Core/Src/Traffic_Light.c ****                     Show_R2Bar(true, (100 - ((TLRedWaitTime*100)/redDelayMax)));
 2019              		.loc 1 459 21 view .LVU664
 2020 010e C1F16401 		rsb	r1, r1, #100
 2021 0112 C9B2     		uxtb	r1, r1
 2022 0114 0120     		movs	r0, #1
 2023 0116 FFF7FEFF 		bl	Show_R2Bar
 2024              	.LVL121:
 460:Core/Src/Traffic_Light.c ****                     Show_R1Bar(true, 0);
 2025              		.loc 1 460 21 is_stmt 1 view .LVU665
 2026 011a 0021     		movs	r1, #0
 2027 011c 0120     		movs	r0, #1
 2028 011e FFF7FEFF 		bl	Show_R1Bar
 2029              	.LVL122:
 2030              	.L113:
 465:Core/Src/Traffic_Light.c ****                 if(TLRedWaitTime == 0){
 2031              		.loc 1 465 17 view .LVU666
 465:Core/Src/Traffic_Light.c ****                 if(TLRedWaitTime == 0){
 2032              		.loc 1 465 34 is_stmt 0 view .LVU667
 2033 0122 6C4B     		ldr	r3, .L136+52
 2034 0124 1B78     		ldrb	r3, [r3]	@ zero_extendqisi2
 465:Core/Src/Traffic_Light.c ****                 if(TLRedWaitTime == 0){
 2035              		.loc 1 465 19 view .LVU668
 2036 0126 002B     		cmp	r3, #0
 2037 0128 40D1     		bne	.L114
 466:Core/Src/Traffic_Light.c ****                     if(NCWaitingState == G1){
 2038              		.loc 1 466 21 is_stmt 1 view .LVU669
 466:Core/Src/Traffic_Light.c ****                     if(NCWaitingState == G1){
 2039              		.loc 1 466 39 is_stmt 0 view .LVU670
 2040 012a 684B     		ldr	r3, .L136+44
 2041 012c 1B78     		ldrb	r3, [r3]	@ zero_extendqisi2
 466:Core/Src/Traffic_Light.c ****                     if(NCWaitingState == G1){
 2042              		.loc 1 466 23 view .LVU671
 2043 012e 8BBB     		cbnz	r3, .L115
 467:Core/Src/Traffic_Light.c ****                         NCWaitingState = G2;
 2044              		.loc 1 467 25 is_stmt 1 view .LVU672
 467:Core/Src/Traffic_Light.c ****                         NCWaitingState = G2;
ARM GAS  C:\Users\ehgre\AppData\Local\Temp\ccd3aLcI.s 			page 54


 2045              		.loc 1 467 40 is_stmt 0 view .LVU673
 2046 0130 664B     		ldr	r3, .L136+44
 2047 0132 0122     		movs	r2, #1
 2048 0134 1A70     		strb	r2, [r3]
 2049 0136 39E0     		b	.L114
 2050              	.L107:
 442:Core/Src/Traffic_Light.c ****                     Show_G2Bar(true, (100 - ((NCWaitingDelay*100)/greenDelay)));
 2051              		.loc 1 442 21 is_stmt 1 view .LVU674
 442:Core/Src/Traffic_Light.c ****                     Show_G2Bar(true, (100 - ((NCWaitingDelay*100)/greenDelay)));
 2052              		.loc 1 442 61 is_stmt 0 view .LVU675
 2053 0138 634B     		ldr	r3, .L136+40
 2054 013a 1B78     		ldrb	r3, [r3]	@ zero_extendqisi2
 2055 013c 6422     		movs	r2, #100
 2056 013e 02FB03F3 		mul	r3, r2, r3
 442:Core/Src/Traffic_Light.c ****                     Show_G2Bar(true, (100 - ((NCWaitingDelay*100)/greenDelay)));
 2057              		.loc 1 442 66 view .LVU676
 2058 0142 6349     		ldr	r1, .L136+48
 2059 0144 81FB0321 		smull	r2, r1, r1, r3
 2060 0148 1944     		add	r1, r1, r3
 2061 014a 8910     		asrs	r1, r1, #2
 442:Core/Src/Traffic_Light.c ****                     Show_G2Bar(true, (100 - ((NCWaitingDelay*100)/greenDelay)));
 2062              		.loc 1 442 21 view .LVU677
 2063 014c C1F16401 		rsb	r1, r1, #100
 2064 0150 C9B2     		uxtb	r1, r1
 2065 0152 0120     		movs	r0, #1
 2066 0154 FFF7FEFF 		bl	Show_G2Bar
 2067              	.LVL123:
 443:Core/Src/Traffic_Light.c ****                     Show_G1Bar(true, 0);
 2068              		.loc 1 443 21 is_stmt 1 view .LVU678
 2069 0158 0021     		movs	r1, #0
 2070 015a 0120     		movs	r0, #1
 2071 015c FFF7FEFF 		bl	Show_G1Bar
 2072              	.LVL124:
 2073 0160 B3E7     		b	.L108
 2074              	.L109:
 449:Core/Src/Traffic_Light.c ****                         NCWaitingState = G1;
 2075              		.loc 1 449 25 view .LVU679
 449:Core/Src/Traffic_Light.c ****                         NCWaitingState = G1;
 2076              		.loc 1 449 40 is_stmt 0 view .LVU680
 2077 0162 5A4B     		ldr	r3, .L136+44
 2078 0164 0022     		movs	r2, #0
 2079 0166 1A70     		strb	r2, [r3]
 2080 0168 B9E7     		b	.L105
 2081              	.L112:
 462:Core/Src/Traffic_Light.c ****                     Show_R1Bar(true, (100 - ((TLRedWaitTime*100)/redDelayMax)));
 2082              		.loc 1 462 21 is_stmt 1 view .LVU681
 462:Core/Src/Traffic_Light.c ****                     Show_R1Bar(true, (100 - ((TLRedWaitTime*100)/redDelayMax)));
 2083              		.loc 1 462 60 is_stmt 0 view .LVU682
 2084 016a 5A4B     		ldr	r3, .L136+52
 2085 016c 1B78     		ldrb	r3, [r3]	@ zero_extendqisi2
 2086 016e 6422     		movs	r2, #100
 2087 0170 02FB03F3 		mul	r3, r2, r3
 462:Core/Src/Traffic_Light.c ****                     Show_R1Bar(true, (100 - ((TLRedWaitTime*100)/redDelayMax)));
 2088              		.loc 1 462 65 view .LVU683
 2089 0174 5649     		ldr	r1, .L136+48
 2090 0176 81FB0321 		smull	r2, r1, r1, r3
 2091 017a 1944     		add	r1, r1, r3
ARM GAS  C:\Users\ehgre\AppData\Local\Temp\ccd3aLcI.s 			page 55


 2092 017c 8910     		asrs	r1, r1, #2
 462:Core/Src/Traffic_Light.c ****                     Show_R1Bar(true, (100 - ((TLRedWaitTime*100)/redDelayMax)));
 2093              		.loc 1 462 21 view .LVU684
 2094 017e C1F16401 		rsb	r1, r1, #100
 2095 0182 C9B2     		uxtb	r1, r1
 2096 0184 0120     		movs	r0, #1
 2097 0186 FFF7FEFF 		bl	Show_R1Bar
 2098              	.LVL125:
 463:Core/Src/Traffic_Light.c ****                     Show_R2Bar(true, 0);
 2099              		.loc 1 463 21 is_stmt 1 view .LVU685
 2100 018a 0021     		movs	r1, #0
 2101 018c 0120     		movs	r0, #1
 2102 018e FFF7FEFF 		bl	Show_R2Bar
 2103              	.LVL126:
 2104 0192 C6E7     		b	.L113
 2105              	.L115:
 469:Core/Src/Traffic_Light.c ****                         NCWaitingState = G1;
 2106              		.loc 1 469 25 view .LVU686
 469:Core/Src/Traffic_Light.c ****                         NCWaitingState = G1;
 2107              		.loc 1 469 40 is_stmt 0 view .LVU687
 2108 0194 4D4B     		ldr	r3, .L136+44
 2109 0196 0022     		movs	r2, #0
 2110 0198 1A70     		strb	r2, [r3]
 2111 019a 07E0     		b	.L114
 2112              	.L110:
 473:Core/Src/Traffic_Light.c ****                 Show_R1Bar(true, 0);
 2113              		.loc 1 473 17 is_stmt 1 view .LVU688
 2114 019c 0021     		movs	r1, #0
 2115 019e 0120     		movs	r0, #1
 2116 01a0 FFF7FEFF 		bl	Show_R1Bar
 2117              	.LVL127:
 474:Core/Src/Traffic_Light.c ****                 Show_R2Bar(true, 0);
 2118              		.loc 1 474 17 view .LVU689
 2119 01a4 0021     		movs	r1, #0
 2120 01a6 0120     		movs	r0, #1
 2121 01a8 FFF7FEFF 		bl	Show_R2Bar
 2122              	.LVL128:
 2123              	.L114:
 477:Core/Src/Traffic_Light.c ****             if(PLBlueDelay > 0){
 2124              		.loc 1 477 13 view .LVU690
 477:Core/Src/Traffic_Light.c ****             if(PLBlueDelay > 0){
 2125              		.loc 1 477 28 is_stmt 0 view .LVU691
 2126 01ac 4A4B     		ldr	r3, .L136+56
 2127 01ae 1B78     		ldrb	r3, [r3]	@ zero_extendqisi2
 477:Core/Src/Traffic_Light.c ****             if(PLBlueDelay > 0){
 2128              		.loc 1 477 15 view .LVU692
 2129 01b0 2BB3     		cbz	r3, .L116
 478:Core/Src/Traffic_Light.c ****                 PLBlueDelay--;
 2130              		.loc 1 478 17 is_stmt 1 view .LVU693
 478:Core/Src/Traffic_Light.c ****                 PLBlueDelay--;
 2131              		.loc 1 478 28 is_stmt 0 view .LVU694
 2132 01b2 013B     		subs	r3, r3, #1
 2133 01b4 DBB2     		uxtb	r3, r3
 2134 01b6 484A     		ldr	r2, .L136+56
 2135 01b8 1370     		strb	r3, [r2]
 479:Core/Src/Traffic_Light.c ****                 if(CW1 == PLBlue){
 2136              		.loc 1 479 17 is_stmt 1 view .LVU695
ARM GAS  C:\Users\ehgre\AppData\Local\Temp\ccd3aLcI.s 			page 56


 479:Core/Src/Traffic_Light.c ****                 if(CW1 == PLBlue){
 2137              		.loc 1 479 24 is_stmt 0 view .LVU696
 2138 01ba 484A     		ldr	r2, .L136+60
 2139 01bc 1278     		ldrb	r2, [r2]	@ zero_extendqisi2
 479:Core/Src/Traffic_Light.c ****                 if(CW1 == PLBlue){
 2140              		.loc 1 479 19 view .LVU697
 2141 01be 022A     		cmp	r2, #2
 2142 01c0 11D0     		beq	.L133
 2143              	.L117:
 482:Core/Src/Traffic_Light.c ****                 if(CW2 == PLBlue){
 2144              		.loc 1 482 17 is_stmt 1 view .LVU698
 482:Core/Src/Traffic_Light.c ****                 if(CW2 == PLBlue){
 2145              		.loc 1 482 24 is_stmt 0 view .LVU699
 2146 01c2 474B     		ldr	r3, .L136+64
 2147 01c4 1B78     		ldrb	r3, [r3]	@ zero_extendqisi2
 482:Core/Src/Traffic_Light.c ****                 if(CW2 == PLBlue){
 2148              		.loc 1 482 19 view .LVU700
 2149 01c6 022B     		cmp	r3, #2
 2150 01c8 30D1     		bne	.L118
 483:Core/Src/Traffic_Light.c ****                     Show_P2Bar(true, (100 - ((PLBlueDelay*100)/pedestrianDelay)));
 2151              		.loc 1 483 21 is_stmt 1 view .LVU701
 2152 01ca 434B     		ldr	r3, .L136+56
 2153 01cc 1B78     		ldrb	r3, [r3]	@ zero_extendqisi2
 2154 01ce C3EB0312 		rsb	r2, r3, r3, lsl #4
 2155 01d2 C3EB8201 		rsb	r1, r3, r2, lsl #2
 2156 01d6 8900     		lsls	r1, r1, #2
 2157 01d8 6431     		adds	r1, r1, #100
 2158 01da 01F0FC01 		and	r1, r1, #252
 2159 01de 0120     		movs	r0, #1
 2160 01e0 FFF7FEFF 		bl	Show_P2Bar
 2161              	.LVL129:
 2162 01e4 22E0     		b	.L118
 2163              	.L133:
 480:Core/Src/Traffic_Light.c ****                     Show_P1Bar(true, (100 - ((PLBlueDelay*100)/pedestrianDelay)));
 2164              		.loc 1 480 21 view .LVU702
 2165 01e6 C3EB0312 		rsb	r2, r3, r3, lsl #4
 2166 01ea C3EB8201 		rsb	r1, r3, r2, lsl #2
 2167 01ee 8900     		lsls	r1, r1, #2
 2168 01f0 6431     		adds	r1, r1, #100
 2169 01f2 01F0FC01 		and	r1, r1, #252
 2170 01f6 0120     		movs	r0, #1
 2171 01f8 FFF7FEFF 		bl	Show_P1Bar
 2172              	.LVL130:
 2173 01fc E1E7     		b	.L117
 2174              	.L116:
 486:Core/Src/Traffic_Light.c ****                 if(PLGreenDelay > 0){
 2175              		.loc 1 486 17 view .LVU703
 486:Core/Src/Traffic_Light.c ****                 if(PLGreenDelay > 0){
 2176              		.loc 1 486 33 is_stmt 0 view .LVU704
 2177 01fe 394B     		ldr	r3, .L136+68
 2178 0200 1B78     		ldrb	r3, [r3]	@ zero_extendqisi2
 486:Core/Src/Traffic_Light.c ****                 if(PLGreenDelay > 0){
 2179              		.loc 1 486 19 view .LVU705
 2180 0202 8BB3     		cbz	r3, .L119
 487:Core/Src/Traffic_Light.c ****                     PLGreenDelay--;
 2181              		.loc 1 487 21 is_stmt 1 view .LVU706
 487:Core/Src/Traffic_Light.c ****                     PLGreenDelay--;
ARM GAS  C:\Users\ehgre\AppData\Local\Temp\ccd3aLcI.s 			page 57


 2182              		.loc 1 487 33 is_stmt 0 view .LVU707
 2183 0204 013B     		subs	r3, r3, #1
 2184 0206 DBB2     		uxtb	r3, r3
 2185 0208 364A     		ldr	r2, .L136+68
 2186 020a 1370     		strb	r3, [r2]
 488:Core/Src/Traffic_Light.c ****                     if(CW1 == PLGreen){
 2187              		.loc 1 488 21 is_stmt 1 view .LVU708
 488:Core/Src/Traffic_Light.c ****                     if(CW1 == PLGreen){
 2188              		.loc 1 488 28 is_stmt 0 view .LVU709
 2189 020c 334A     		ldr	r2, .L136+60
 2190 020e 1278     		ldrb	r2, [r2]	@ zero_extendqisi2
 488:Core/Src/Traffic_Light.c ****                     if(CW1 == PLGreen){
 2191              		.loc 1 488 23 view .LVU710
 2192 0210 012A     		cmp	r2, #1
 2193 0212 0FD0     		beq	.L134
 2194              	.L120:
 491:Core/Src/Traffic_Light.c ****                     if(CW2 == PLGreen){
 2195              		.loc 1 491 21 is_stmt 1 view .LVU711
 491:Core/Src/Traffic_Light.c ****                     if(CW2 == PLGreen){
 2196              		.loc 1 491 28 is_stmt 0 view .LVU712
 2197 0214 324B     		ldr	r3, .L136+64
 2198 0216 1B78     		ldrb	r3, [r3]	@ zero_extendqisi2
 491:Core/Src/Traffic_Light.c ****                     if(CW2 == PLGreen){
 2199              		.loc 1 491 23 view .LVU713
 2200 0218 012B     		cmp	r3, #1
 2201 021a 17D0     		beq	.L135
 2202              	.L121:
 498:Core/Src/Traffic_Light.c ****                 Show_P1Bar(true, 0);
 2203              		.loc 1 498 17 is_stmt 1 view .LVU714
 2204 021c 0021     		movs	r1, #0
 2205 021e 0120     		movs	r0, #1
 2206 0220 FFF7FEFF 		bl	Show_P1Bar
 2207              	.LVL131:
 499:Core/Src/Traffic_Light.c ****                 Show_P2Bar(true, 0);
 2208              		.loc 1 499 17 view .LVU715
 2209 0224 0021     		movs	r1, #0
 2210 0226 0120     		movs	r0, #1
 2211 0228 FFF7FEFF 		bl	Show_P2Bar
 2212              	.LVL132:
 2213              	.L118:
 502:Core/Src/Traffic_Light.c ****             msTick = 1;
 2214              		.loc 1 502 13 view .LVU716
 502:Core/Src/Traffic_Light.c ****             msTick = 1;
 2215              		.loc 1 502 20 is_stmt 0 view .LVU717
 2216 022c 1D4B     		ldr	r3, .L136+4
 2217 022e 0122     		movs	r2, #1
 2218 0230 1A80     		strh	r2, [r3]	@ movhi
 2219 0232 F3E6     		b	.L122
 2220              	.L134:
 489:Core/Src/Traffic_Light.c ****                         Show_W1Bar(true, (100 - ((PLGreenDelay*100)/walkingDelay)));
 2221              		.loc 1 489 25 is_stmt 1 view .LVU718
 2222 0234 C3EB4312 		rsb	r2, r3, r3, lsl #5
 2223 0238 C3EB8201 		rsb	r1, r3, r2, lsl #2
 2224 023c 4900     		lsls	r1, r1, #1
 2225 023e 6431     		adds	r1, r1, #100
 2226 0240 01F0FE01 		and	r1, r1, #254
 2227 0244 0120     		movs	r0, #1
ARM GAS  C:\Users\ehgre\AppData\Local\Temp\ccd3aLcI.s 			page 58


 2228 0246 FFF7FEFF 		bl	Show_W1Bar
 2229              	.LVL133:
 2230 024a E3E7     		b	.L120
 2231              	.L135:
 492:Core/Src/Traffic_Light.c ****                         Show_W2Bar(true, (100 - ((PLGreenDelay*100)/walkingDelay)));
 2232              		.loc 1 492 25 view .LVU719
 2233 024c 254B     		ldr	r3, .L136+68
 2234 024e 1B78     		ldrb	r3, [r3]	@ zero_extendqisi2
 2235 0250 C3EB4312 		rsb	r2, r3, r3, lsl #5
 2236 0254 C3EB8201 		rsb	r1, r3, r2, lsl #2
 2237 0258 4900     		lsls	r1, r1, #1
 2238 025a 6431     		adds	r1, r1, #100
 2239 025c 01F0FE01 		and	r1, r1, #254
 2240 0260 0120     		movs	r0, #1
 2241 0262 FFF7FEFF 		bl	Show_W2Bar
 2242              	.LVL134:
 2243 0266 D9E7     		b	.L121
 2244              	.L119:
 495:Core/Src/Traffic_Light.c ****                     Show_W1Bar(true, 0);
 2245              		.loc 1 495 21 view .LVU720
 2246 0268 0021     		movs	r1, #0
 2247 026a 0120     		movs	r0, #1
 2248 026c FFF7FEFF 		bl	Show_W1Bar
 2249              	.LVL135:
 496:Core/Src/Traffic_Light.c ****                     Show_W2Bar(true, 0);
 2250              		.loc 1 496 21 view .LVU721
 2251 0270 0021     		movs	r1, #0
 2252 0272 0120     		movs	r0, #1
 2253 0274 FFF7FEFF 		bl	Show_W2Bar
 2254              	.LVL136:
 2255 0278 D0E7     		b	.L121
 2256              	.L124:
 511:Core/Src/Traffic_Light.c ****                 BlueOn = true;
 2257              		.loc 1 511 17 view .LVU722
 511:Core/Src/Traffic_Light.c ****                 BlueOn = true;
 2258              		.loc 1 511 24 is_stmt 0 view .LVU723
 2259 027a 0C4B     		ldr	r3, .L136+12
 2260 027c 0122     		movs	r2, #1
 2261 027e 1A70     		strb	r2, [r3]
 2262 0280 DAE6     		b	.L125
 2263              	.L123:
 515:Core/Src/Traffic_Light.c ****             TickFlash++;
 2264              		.loc 1 515 13 is_stmt 1 view .LVU724
 515:Core/Src/Traffic_Light.c ****             TickFlash++;
 2265              		.loc 1 515 22 is_stmt 0 view .LVU725
 2266 0282 0133     		adds	r3, r3, #1
 2267 0284 084A     		ldr	r2, .L136+8
 2268 0286 1380     		strh	r3, [r2]	@ movhi
 2269 0288 D9E6     		b	.L126
 2270              	.L127:
 521:Core/Src/Traffic_Light.c ****             Tick++;
 2271              		.loc 1 521 13 is_stmt 1 view .LVU726
 521:Core/Src/Traffic_Light.c ****             Tick++;
 2272              		.loc 1 521 17 is_stmt 0 view .LVU727
 2273 028a 0133     		adds	r3, r3, #1
 2274 028c 084A     		ldr	r2, .L136+16
 2275 028e 1370     		strb	r3, [r2]
ARM GAS  C:\Users\ehgre\AppData\Local\Temp\ccd3aLcI.s 			page 59


 2276 0290 DDE6     		b	.L128
 2277              	.L129:
 527:Core/Src/Traffic_Light.c ****             HAL_GPIO_WritePin(Enable_595_GPIO_Port, Enable_595_Pin, GPIO_PIN_RESET);
 2278              		.loc 1 527 13 is_stmt 1 view .LVU728
 2279 0292 0022     		movs	r2, #0
 2280 0294 8021     		movs	r1, #128
 2281 0296 0848     		ldr	r0, .L136+24
 2282 0298 FFF7FEFF 		bl	HAL_GPIO_WritePin
 2283              	.LVL137:
 2284              		.loc 1 531 1 is_stmt 0 view .LVU729
 2285 029c B4E6     		b	.L100
 2286              	.L137:
 2287 029e 00BF     		.align	2
 2288              	.L136:
 2289 02a0 00000000 		.word	htim16
 2290 02a4 00000000 		.word	msTick
 2291 02a8 00000000 		.word	TickFlash
 2292 02ac 00000000 		.word	BlueOn
 2293 02b0 00000000 		.word	Tick
 2294 02b4 00000000 		.word	brightness
 2295 02b8 00080048 		.word	1207961600
 2296 02bc 00040048 		.word	1207960576
 2297 02c0 00000000 		.word	TLYellowDelay
 2298 02c4 00000000 		.word	R2GDelay
 2299 02c8 00000000 		.word	NCWaitingDelay
 2300 02cc 00000000 		.word	NCWaitingState
 2301 02d0 93244992 		.word	-1840700269
 2302 02d4 00000000 		.word	TLRedWaitTime
 2303 02d8 00000000 		.word	PLBlueDelay
 2304 02dc 00000000 		.word	CW1
 2305 02e0 00000000 		.word	CW2
 2306 02e4 00000000 		.word	PLGreenDelay
 2307              		.cfi_endproc
 2308              	.LFE324:
 2310              		.global	BlueOn
 2311              		.section	.bss.BlueOn,"aw",%nobits
 2314              	BlueOn:
 2315 0000 00       		.space	1
 2316              		.global	NoCarsWaiting
 2317              		.section	.data.NoCarsWaiting,"aw"
 2320              	NoCarsWaiting:
 2321 0000 01       		.byte	1
 2322              		.global	bits
 2323              		.section	.bss.bits,"aw",%nobits
 2324              		.align	2
 2327              	bits:
 2328 0000 00000000 		.space	4
 2329              		.global	Tick
 2330              		.section	.data.Tick,"aw"
 2333              	Tick:
 2334 0000 01       		.byte	1
 2335              		.global	TickFlash
 2336              		.section	.data.TickFlash,"aw"
 2337              		.align	1
 2340              	TickFlash:
 2341 0000 0100     		.short	1
 2342              		.global	msTick
ARM GAS  C:\Users\ehgre\AppData\Local\Temp\ccd3aLcI.s 			page 60


 2343              		.section	.data.msTick,"aw"
 2344              		.align	1
 2347              	msTick:
 2348 0000 0100     		.short	1
 2349              		.global	R2GDelay
 2350              		.section	.bss.R2GDelay,"aw",%nobits
 2353              	R2GDelay:
 2354 0000 00       		.space	1
 2355              		.global	NCWaitingDelay
 2356              		.section	.bss.NCWaitingDelay,"aw",%nobits
 2359              	NCWaitingDelay:
 2360 0000 00       		.space	1
 2361              		.global	TLRedWaitTime
 2362              		.section	.bss.TLRedWaitTime,"aw",%nobits
 2365              	TLRedWaitTime:
 2366 0000 00       		.space	1
 2367              		.global	TLYellowDelay
 2368              		.section	.bss.TLYellowDelay,"aw",%nobits
 2371              	TLYellowDelay:
 2372 0000 00       		.space	1
 2373              		.global	PLGreenDelay
 2374              		.section	.bss.PLGreenDelay,"aw",%nobits
 2377              	PLGreenDelay:
 2378 0000 00       		.space	1
 2379              		.global	PLBlueDelay
 2380              		.section	.bss.PLBlueDelay,"aw",%nobits
 2383              	PLBlueDelay:
 2384 0000 00       		.space	1
 2385              		.global	brightness
 2386              		.section	.bss.brightness,"aw",%nobits
 2389              	brightness:
 2390 0000 00       		.space	1
 2391              		.section	.bss.NCWaitingState,"aw",%nobits
 2394              	NCWaitingState:
 2395 0000 00       		.space	1
 2396              		.section	.bss.CW2,"aw",%nobits
 2399              	CW2:
 2400 0000 00       		.space	1
 2401              		.section	.bss.CW1,"aw",%nobits
 2404              	CW1:
 2405 0000 00       		.space	1
 2406              		.global	C4
 2407              		.section	.bss.C4,"aw",%nobits
 2408              		.align	2
 2411              	C4:
 2412 0000 00000000 		.space	5
 2412      00
 2413              		.global	C3
 2414              		.section	.bss.C3,"aw",%nobits
 2415              		.align	2
 2418              	C3:
 2419 0000 00000000 		.space	5
 2419      00
 2420              		.global	C2
 2421              		.section	.bss.C2,"aw",%nobits
 2422              		.align	2
 2425              	C2:
ARM GAS  C:\Users\ehgre\AppData\Local\Temp\ccd3aLcI.s 			page 61


 2426 0000 00000000 		.space	5
 2426      00
 2427              		.global	C1
 2428              		.section	.bss.C1,"aw",%nobits
 2429              		.align	2
 2432              	C1:
 2433 0000 00000000 		.space	5
 2433      00
 2434              		.text
 2435              	.Letext0:
 2436              		.file 2 "c:\\users\\ehgre\\desktop\\plugg\\inbyggda system\\tools\\arm-gnu-toolchain-12.2.mpacbti-
 2437              		.file 3 "c:\\users\\ehgre\\desktop\\plugg\\inbyggda system\\tools\\arm-gnu-toolchain-12.2.mpacbti-
 2438              		.file 4 "Drivers/CMSIS/Device/ST/STM32L4xx/Include/stm32l476xx.h"
 2439              		.file 5 "Drivers/STM32L4xx_HAL_Driver/Inc/stm32l4xx_hal_def.h"
 2440              		.file 6 "Drivers/STM32L4xx_HAL_Driver/Inc/stm32l4xx_hal_gpio.h"
 2441              		.file 7 "Drivers/STM32L4xx_HAL_Driver/Inc/stm32l4xx_hal_dma.h"
 2442              		.file 8 "Drivers/STM32L4xx_HAL_Driver/Inc/stm32l4xx_hal_tim.h"
 2443              		.file 9 "Core/Inc/light_logic.h"
 2444              		.file 10 "Core/Inc/tim.h"
 2445              		.file 11 "Core/Inc/OledDelayBars.h"
 2446              		.file 12 "Core/Inc/interactions.h"
 2447              		.file 13 "Core/Inc/potentiometer.h"
 2448              		.file 14 "c:\\users\\ehgre\\desktop\\plugg\\inbyggda system\\tools\\arm-gnu-toolchain-12.2.mpacbti
ARM GAS  C:\Users\ehgre\AppData\Local\Temp\ccd3aLcI.s 			page 62

