ARM GAS  C:\Users\ehgre\AppData\Local\Temp\ccQxqZR3.s 			page 1


   1              		.cpu cortex-m4
   2              		.arch armv7e-m
   3              		.fpu fpv4-sp-d16
   4              		.eabi_attribute 27, 1
   5              		.eabi_attribute 28, 1
   6              		.eabi_attribute 20, 1
   7              		.eabi_attribute 21, 1
   8              		.eabi_attribute 23, 3
   9              		.eabi_attribute 24, 1
  10              		.eabi_attribute 25, 1
  11              		.eabi_attribute 26, 1
  12              		.eabi_attribute 30, 1
  13              		.eabi_attribute 34, 1
  14              		.eabi_attribute 18, 4
  15              		.file	"Traffic_Light.c"
  16              		.text
  17              	.Ltext0:
  18              		.cfi_sections	.debug_frame
  19              		.file 1 "Core/Src/Traffic_Light.c"
  20              		.section	.text.Init_States,"ax",%progbits
  21              		.align	1
  22              		.global	Init_States
  23              		.syntax unified
  24              		.thumb
  25              		.thumb_func
  27              	Init_States:
  28              	.LFB320:
   1:Core/Src/Traffic_Light.c **** #include <stdio.h>
   2:Core/Src/Traffic_Light.c **** #include <stdlib.h>
   3:Core/Src/Traffic_Light.c **** #include <stdbool.h>
   4:Core/Src/Traffic_Light.c **** 
   5:Core/Src/Traffic_Light.c **** #include "main.h"
   6:Core/Src/Traffic_Light.c **** #include "stm32l4xx_it.h"
   7:Core/Src/Traffic_Light.c **** #include "stm32l4xx_hal_conf.h"
   8:Core/Src/Traffic_Light.c **** #include "shift_register.h"
   9:Core/Src/Traffic_Light.c **** #include "light_logic.h"
  10:Core/Src/Traffic_Light.c **** #include "Traffic_Light.h"
  11:Core/Src/Traffic_Light.c **** #include "tim.h"
  12:Core/Src/Traffic_Light.c **** #include "interactions.h"
  13:Core/Src/Traffic_Light.c **** #include "OledDelayBars.h"
  14:Core/Src/Traffic_Light.c **** #include "potentiometer.h"
  15:Core/Src/Traffic_Light.c **** #include "math.h"
  16:Core/Src/Traffic_Light.c **** #include "ssd1306.h"
  17:Core/Src/Traffic_Light.c **** 
  18:Core/Src/Traffic_Light.c **** //In Miliseconds
  19:Core/Src/Traffic_Light.c **** #define toggleFreq 200 //Pedestrian blue light toggle frequency
  20:Core/Src/Traffic_Light.c **** 
  21:Core/Src/Traffic_Light.c **** //In Seconds
  22:Core/Src/Traffic_Light.c **** #define pedestrianDelay 5 //Pedestrian on blue blink wait delay
  23:Core/Src/Traffic_Light.c **** #define walkingDelay 10 //Pedestrian on green walk delay
  24:Core/Src/Traffic_Light.c **** #define orangeDelay 1 // In Orange/Yellow state delay
  25:Core/Src/Traffic_Light.c **** 
  26:Core/Src/Traffic_Light.c **** typedef enum{   
  27:Core/Src/Traffic_Light.c ****     PLRed,
  28:Core/Src/Traffic_Light.c ****     PLGreen,
  29:Core/Src/Traffic_Light.c ****     PLBlue
  30:Core/Src/Traffic_Light.c **** } crosswalk;
ARM GAS  C:\Users\ehgre\AppData\Local\Temp\ccQxqZR3.s 			page 2


  31:Core/Src/Traffic_Light.c **** 
  32:Core/Src/Traffic_Light.c **** typedef enum{   
  33:Core/Src/Traffic_Light.c ****     TLRed,
  34:Core/Src/Traffic_Light.c ****     TLGreen
  35:Core/Src/Traffic_Light.c **** } crossing;
  36:Core/Src/Traffic_Light.c **** 
  37:Core/Src/Traffic_Light.c **** static crossing C1, C2, C3, C4;
  38:Core/Src/Traffic_Light.c **** 
  39:Core/Src/Traffic_Light.c **** static crosswalk CW1, CW2;
  40:Core/Src/Traffic_Light.c **** 
  41:Core/Src/Traffic_Light.c **** uint8_t brightness = 0;
  42:Core/Src/Traffic_Light.c **** 
  43:Core/Src/Traffic_Light.c **** uint8_t PLBlueDelay = 0;
  44:Core/Src/Traffic_Light.c **** 
  45:Core/Src/Traffic_Light.c **** uint8_t PLGreenDelay = 0;
  46:Core/Src/Traffic_Light.c **** 
  47:Core/Src/Traffic_Light.c **** uint8_t TLYellowDelay = 0;
  48:Core/Src/Traffic_Light.c **** 
  49:Core/Src/Traffic_Light.c **** bool toggleBrightness = false;
  50:Core/Src/Traffic_Light.c **** 
  51:Core/Src/Traffic_Light.c **** bool toggleBlue = false;
  52:Core/Src/Traffic_Light.c **** 
  53:Core/Src/Traffic_Light.c **** uint16_t msTick = 1;
  54:Core/Src/Traffic_Light.c **** 
  55:Core/Src/Traffic_Light.c **** uint8_t Tick = 1;
  56:Core/Src/Traffic_Light.c **** 
  57:Core/Src/Traffic_Light.c **** uint32_t bits = 0;
  58:Core/Src/Traffic_Light.c **** 
  59:Core/Src/Traffic_Light.c **** void Init_States(){
  29              		.loc 1 59 19 view -0
  30              		.cfi_startproc
  31              		@ args = 0, pretend = 0, frame = 0
  32              		@ frame_needed = 0, uses_anonymous_args = 0
  33              		@ link register save eliminated.
  60:Core/Src/Traffic_Light.c ****     C1 = TLRed;
  34              		.loc 1 60 5 view .LVU1
  35              		.loc 1 60 8 is_stmt 0 view .LVU2
  36 0000 0023     		movs	r3, #0
  37 0002 074A     		ldr	r2, .L2
  38 0004 1370     		strb	r3, [r2]
  61:Core/Src/Traffic_Light.c ****     C2 = TLGreen;
  39              		.loc 1 61 5 is_stmt 1 view .LVU3
  40              		.loc 1 61 8 is_stmt 0 view .LVU4
  41 0006 0122     		movs	r2, #1
  42 0008 0649     		ldr	r1, .L2+4
  43 000a 0A70     		strb	r2, [r1]
  62:Core/Src/Traffic_Light.c ****     C3 = TLRed;
  44              		.loc 1 62 5 is_stmt 1 view .LVU5
  45              		.loc 1 62 8 is_stmt 0 view .LVU6
  46 000c 0649     		ldr	r1, .L2+8
  47 000e 0B70     		strb	r3, [r1]
  63:Core/Src/Traffic_Light.c ****     C4 = TLGreen;
  48              		.loc 1 63 5 is_stmt 1 view .LVU7
  49              		.loc 1 63 8 is_stmt 0 view .LVU8
  50 0010 0649     		ldr	r1, .L2+12
  51 0012 0A70     		strb	r2, [r1]
  64:Core/Src/Traffic_Light.c ****     CW1 = PLRed;
ARM GAS  C:\Users\ehgre\AppData\Local\Temp\ccQxqZR3.s 			page 3


  52              		.loc 1 64 5 is_stmt 1 view .LVU9
  53              		.loc 1 64 9 is_stmt 0 view .LVU10
  54 0014 064A     		ldr	r2, .L2+16
  55 0016 1370     		strb	r3, [r2]
  65:Core/Src/Traffic_Light.c ****     CW2 = PLRed;
  56              		.loc 1 65 5 is_stmt 1 view .LVU11
  57              		.loc 1 65 9 is_stmt 0 view .LVU12
  58 0018 064A     		ldr	r2, .L2+20
  59 001a 1370     		strb	r3, [r2]
  66:Core/Src/Traffic_Light.c **** }
  60              		.loc 1 66 1 view .LVU13
  61 001c 7047     		bx	lr
  62              	.L3:
  63 001e 00BF     		.align	2
  64              	.L2:
  65 0020 00000000 		.word	C1
  66 0024 00000000 		.word	C2
  67 0028 00000000 		.word	C3
  68 002c 00000000 		.word	C4
  69 0030 00000000 		.word	CW1
  70 0034 00000000 		.word	CW2
  71              		.cfi_endproc
  72              	.LFE320:
  74              		.section	.text.traffic_lights,"ax",%progbits
  75              		.align	1
  76              		.global	traffic_lights
  77              		.syntax unified
  78              		.thumb
  79              		.thumb_func
  81              	traffic_lights:
  82              	.LFB321:
  67:Core/Src/Traffic_Light.c **** 
  68:Core/Src/Traffic_Light.c **** void traffic_lights(){
  83              		.loc 1 68 22 is_stmt 1 view -0
  84              		.cfi_startproc
  85              		@ Volatile: function does not return.
  86              		@ args = 0, pretend = 0, frame = 0
  87              		@ frame_needed = 0, uses_anonymous_args = 0
  88 0000 08B5     		push	{r3, lr}
  89              	.LCFI0:
  90              		.cfi_def_cfa_offset 8
  91              		.cfi_offset 3, -8
  92              		.cfi_offset 14, -4
  69:Core/Src/Traffic_Light.c ****     HAL_TIM_Base_Start_IT(&htim16);
  93              		.loc 1 69 5 view .LVU15
  94 0002 9B48     		ldr	r0, .L50
  95 0004 FFF7FEFF 		bl	HAL_TIM_Base_Start_IT
  96              	.LVL0:
  70:Core/Src/Traffic_Light.c **** 
  71:Core/Src/Traffic_Light.c ****     Init_States();
  97              		.loc 1 71 5 view .LVU16
  98 0008 FFF7FEFF 		bl	Init_States
  99              	.LVL1:
  72:Core/Src/Traffic_Light.c **** 
  73:Core/Src/Traffic_Light.c ****     Show_All_DelayBars(true, 0);
 100              		.loc 1 73 5 view .LVU17
 101 000c 0021     		movs	r1, #0
ARM GAS  C:\Users\ehgre\AppData\Local\Temp\ccQxqZR3.s 			page 4


 102 000e 0120     		movs	r0, #1
 103 0010 FFF7FEFF 		bl	Show_All_DelayBars
 104              	.LVL2:
  74:Core/Src/Traffic_Light.c **** 
  75:Core/Src/Traffic_Light.c ****     bits = Init_Task2(bits);
 105              		.loc 1 75 5 view .LVU18
 106              		.loc 1 75 12 is_stmt 0 view .LVU19
 107 0014 974C     		ldr	r4, .L50+4
 108 0016 2068     		ldr	r0, [r4]
 109 0018 FFF7FEFF 		bl	Init_Task2
 110              	.LVL3:
 111              		.loc 1 75 10 view .LVU20
 112 001c 2060     		str	r0, [r4]
 113 001e 96E0     		b	.L5
 114              	.L46:
  76:Core/Src/Traffic_Light.c ****     while(1){
  77:Core/Src/Traffic_Light.c **** 
  78:Core/Src/Traffic_Light.c ****         brightness = getPotiPercent();
  79:Core/Src/Traffic_Light.c **** 
  80:Core/Src/Traffic_Light.c ****         /* // Brightness OLED
  81:Core/Src/Traffic_Light.c ****         char strBri[20] = "Brightness ";
  82:Core/Src/Traffic_Light.c ****         char strBrValue[3] = "";
  83:Core/Src/Traffic_Light.c ****         itoa(brightness, strBrValue, 10);
  84:Core/Src/Traffic_Light.c ****         strcat(strBri, strBrValue);
  85:Core/Src/Traffic_Light.c ****         strcat(strBri, " ");
  86:Core/Src/Traffic_Light.c ****         ssd1306_SetCursor(2,0);
  87:Core/Src/Traffic_Light.c ****         ssd1306_WriteString(strBri, Font_7x10, White);
  88:Core/Src/Traffic_Light.c ****         ssd1306_UpdateScreen();
  89:Core/Src/Traffic_Light.c ****         */
  90:Core/Src/Traffic_Light.c **** 
  91:Core/Src/Traffic_Light.c ****        if(is_pl1() && (CW2 == PLRed)){
  92:Core/Src/Traffic_Light.c ****             CW1 = PLBlue;
  93:Core/Src/Traffic_Light.c ****             PLBlueDelay = pedestrianDelay;
  94:Core/Src/Traffic_Light.c ****         }
  95:Core/Src/Traffic_Light.c **** 
  96:Core/Src/Traffic_Light.c ****         if(is_pl2() && (CW1 == PLRed)){
  97:Core/Src/Traffic_Light.c ****             CW2 = PLBlue;
  98:Core/Src/Traffic_Light.c ****             PLBlueDelay = pedestrianDelay;
  99:Core/Src/Traffic_Light.c ****         }
 100:Core/Src/Traffic_Light.c **** 
 101:Core/Src/Traffic_Light.c ****         switch (C1){
 102:Core/Src/Traffic_Light.c ****             case TLGreen:
 103:Core/Src/Traffic_Light.c ****                 if((TLYellowDelay > 0) && (!TL1_isGreen(bits))){
 104:Core/Src/Traffic_Light.c ****                     bits = TL1_Green(bits, false);
 115              		.loc 1 104 21 is_stmt 1 view .LVU21
 116              		.loc 1 104 28 is_stmt 0 view .LVU22
 117 0020 944C     		ldr	r4, .L50+4
 118 0022 0021     		movs	r1, #0
 119 0024 2068     		ldr	r0, [r4]
 120 0026 FFF7FEFF 		bl	TL1_Green
 121              	.LVL4:
 122              		.loc 1 104 26 view .LVU23
 123 002a 2060     		str	r0, [r4]
 105:Core/Src/Traffic_Light.c ****                     bits = TL1_Red(bits, false);
 124              		.loc 1 105 21 is_stmt 1 view .LVU24
 125              		.loc 1 105 28 is_stmt 0 view .LVU25
 126 002c 0021     		movs	r1, #0
ARM GAS  C:\Users\ehgre\AppData\Local\Temp\ccQxqZR3.s 			page 5


 127 002e FFF7FEFF 		bl	TL1_Red
 128              	.LVL5:
 129              		.loc 1 105 26 view .LVU26
 130 0032 2060     		str	r0, [r4]
 106:Core/Src/Traffic_Light.c ****                     bits = TL1_Yellow(bits, true);
 131              		.loc 1 106 21 is_stmt 1 view .LVU27
 132              		.loc 1 106 28 is_stmt 0 view .LVU28
 133 0034 0121     		movs	r1, #1
 134 0036 FFF7FEFF 		bl	TL1_Yellow
 135              	.LVL6:
 136              		.loc 1 106 26 view .LVU29
 137 003a 2060     		str	r0, [r4]
 138 003c C2E0     		b	.L9
 139              	.L8:
 107:Core/Src/Traffic_Light.c ****                 }else{
 108:Core/Src/Traffic_Light.c ****                     bits = TL1_Green(bits, false);
 109:Core/Src/Traffic_Light.c ****                     bits = TL1_Red(bits, true);
 110:Core/Src/Traffic_Light.c ****                     bits = TL1_Yellow(bits, false);
 111:Core/Src/Traffic_Light.c ****                 }
 112:Core/Src/Traffic_Light.c ****                 break;
 113:Core/Src/Traffic_Light.c ****             case TLRed:
 114:Core/Src/Traffic_Light.c ****                 if((TLYellowDelay > 0)  && (!TL1_isRed(bits))){
 140              		.loc 1 114 17 is_stmt 1 view .LVU30
 141              		.loc 1 114 35 is_stmt 0 view .LVU31
 142 003e 8E4B     		ldr	r3, .L50+8
 143 0040 1B78     		ldrb	r3, [r3]	@ zero_extendqisi2
 144              		.loc 1 114 19 view .LVU32
 145 0042 23B1     		cbz	r3, .L11
 146              		.loc 1 114 46 discriminator 1 view .LVU33
 147 0044 8B4B     		ldr	r3, .L50+4
 148 0046 1868     		ldr	r0, [r3]
 149 0048 FFF7FEFF 		bl	TL1_isRed
 150              	.LVL7:
 151              		.loc 1 114 41 discriminator 1 view .LVU34
 152 004c 70B1     		cbz	r0, .L41
 153              	.L11:
 115:Core/Src/Traffic_Light.c ****                     bits = TL1_Green(bits, false);
 116:Core/Src/Traffic_Light.c ****                     bits = TL1_Red(bits, false);
 117:Core/Src/Traffic_Light.c ****                     bits = TL1_Yellow(bits, true);
 118:Core/Src/Traffic_Light.c ****                 }else{
 119:Core/Src/Traffic_Light.c ****                     bits = TL1_Green(bits, false);
 154              		.loc 1 119 21 is_stmt 1 view .LVU35
 155              		.loc 1 119 28 is_stmt 0 view .LVU36
 156 004e 894C     		ldr	r4, .L50+4
 157 0050 0021     		movs	r1, #0
 158 0052 2068     		ldr	r0, [r4]
 159 0054 FFF7FEFF 		bl	TL1_Green
 160              	.LVL8:
 161              		.loc 1 119 26 view .LVU37
 162 0058 2060     		str	r0, [r4]
 120:Core/Src/Traffic_Light.c ****                     bits = TL1_Red(bits, true);
 163              		.loc 1 120 21 is_stmt 1 view .LVU38
 164              		.loc 1 120 28 is_stmt 0 view .LVU39
 165 005a 0121     		movs	r1, #1
 166 005c FFF7FEFF 		bl	TL1_Red
 167              	.LVL9:
 168              		.loc 1 120 26 view .LVU40
ARM GAS  C:\Users\ehgre\AppData\Local\Temp\ccQxqZR3.s 			page 6


 169 0060 2060     		str	r0, [r4]
 121:Core/Src/Traffic_Light.c ****                     bits = TL1_Yellow(bits, false);
 170              		.loc 1 121 21 is_stmt 1 view .LVU41
 171              		.loc 1 121 28 is_stmt 0 view .LVU42
 172 0062 0021     		movs	r1, #0
 173 0064 FFF7FEFF 		bl	TL1_Yellow
 174              	.LVL10:
 175              		.loc 1 121 26 view .LVU43
 176 0068 2060     		str	r0, [r4]
 177 006a ABE0     		b	.L9
 178              	.L41:
 115:Core/Src/Traffic_Light.c ****                     bits = TL1_Green(bits, false);
 179              		.loc 1 115 21 is_stmt 1 view .LVU44
 115:Core/Src/Traffic_Light.c ****                     bits = TL1_Green(bits, false);
 180              		.loc 1 115 28 is_stmt 0 view .LVU45
 181 006c 814C     		ldr	r4, .L50+4
 182 006e 0021     		movs	r1, #0
 183 0070 2068     		ldr	r0, [r4]
 184 0072 FFF7FEFF 		bl	TL1_Green
 185              	.LVL11:
 115:Core/Src/Traffic_Light.c ****                     bits = TL1_Green(bits, false);
 186              		.loc 1 115 26 view .LVU46
 187 0076 2060     		str	r0, [r4]
 116:Core/Src/Traffic_Light.c ****                     bits = TL1_Yellow(bits, true);
 188              		.loc 1 116 21 is_stmt 1 view .LVU47
 116:Core/Src/Traffic_Light.c ****                     bits = TL1_Yellow(bits, true);
 189              		.loc 1 116 28 is_stmt 0 view .LVU48
 190 0078 0021     		movs	r1, #0
 191 007a FFF7FEFF 		bl	TL1_Red
 192              	.LVL12:
 116:Core/Src/Traffic_Light.c ****                     bits = TL1_Yellow(bits, true);
 193              		.loc 1 116 26 view .LVU49
 194 007e 2060     		str	r0, [r4]
 117:Core/Src/Traffic_Light.c ****                 }else{
 195              		.loc 1 117 21 is_stmt 1 view .LVU50
 117:Core/Src/Traffic_Light.c ****                 }else{
 196              		.loc 1 117 28 is_stmt 0 view .LVU51
 197 0080 0121     		movs	r1, #1
 198 0082 FFF7FEFF 		bl	TL1_Yellow
 199              	.LVL13:
 117:Core/Src/Traffic_Light.c ****                 }else{
 200              		.loc 1 117 26 view .LVU52
 201 0086 2060     		str	r0, [r4]
 202 0088 9CE0     		b	.L9
 203              	.L14:
 122:Core/Src/Traffic_Light.c ****                 }
 123:Core/Src/Traffic_Light.c ****                 break;
 124:Core/Src/Traffic_Light.c ****             default:
 125:Core/Src/Traffic_Light.c ****                 break;
 126:Core/Src/Traffic_Light.c ****         }
 127:Core/Src/Traffic_Light.c **** 
 128:Core/Src/Traffic_Light.c ****         switch (C2){
 129:Core/Src/Traffic_Light.c ****             case TLGreen:
 130:Core/Src/Traffic_Light.c ****                 if((TLYellowDelay > 0)  && (!TL2_isGreen(bits))){
 131:Core/Src/Traffic_Light.c ****                     bits = TL2_Green(bits, false);
 132:Core/Src/Traffic_Light.c ****                     bits = TL2_Red(bits, false);
 133:Core/Src/Traffic_Light.c ****                     bits = TL2_Yellow(bits, true);
ARM GAS  C:\Users\ehgre\AppData\Local\Temp\ccQxqZR3.s 			page 7


 134:Core/Src/Traffic_Light.c ****                 }else{
 135:Core/Src/Traffic_Light.c ****                     bits = TL2_Green(bits, true);
 204              		.loc 1 135 21 is_stmt 1 view .LVU53
 205              		.loc 1 135 28 is_stmt 0 view .LVU54
 206 008a 7A4C     		ldr	r4, .L50+4
 207 008c 0121     		movs	r1, #1
 208 008e 2068     		ldr	r0, [r4]
 209 0090 FFF7FEFF 		bl	TL2_Green
 210              	.LVL14:
 211              		.loc 1 135 26 view .LVU55
 212 0094 2060     		str	r0, [r4]
 136:Core/Src/Traffic_Light.c ****                     bits = TL2_Red(bits, false);
 213              		.loc 1 136 21 is_stmt 1 view .LVU56
 214              		.loc 1 136 28 is_stmt 0 view .LVU57
 215 0096 0021     		movs	r1, #0
 216 0098 FFF7FEFF 		bl	TL2_Red
 217              	.LVL15:
 218              		.loc 1 136 26 view .LVU58
 219 009c 2060     		str	r0, [r4]
 137:Core/Src/Traffic_Light.c ****                     bits = TL2_Yellow(bits, false);
 220              		.loc 1 137 21 is_stmt 1 view .LVU59
 221              		.loc 1 137 28 is_stmt 0 view .LVU60
 222 009e 0021     		movs	r1, #0
 223 00a0 FFF7FEFF 		bl	TL2_Yellow
 224              	.LVL16:
 225              		.loc 1 137 26 view .LVU61
 226 00a4 2060     		str	r0, [r4]
 227              	.L13:
 138:Core/Src/Traffic_Light.c ****                 }
 139:Core/Src/Traffic_Light.c ****                 break;
 140:Core/Src/Traffic_Light.c ****             case TLRed:
 141:Core/Src/Traffic_Light.c ****                 if((TLYellowDelay > 0)  && (!TL2_isRed(bits))){
 142:Core/Src/Traffic_Light.c ****                     bits = TL2_Green(bits, false);
 143:Core/Src/Traffic_Light.c ****                     bits = TL2_Red(bits, false);
 144:Core/Src/Traffic_Light.c ****                     bits = TL2_Yellow(bits, true);
 145:Core/Src/Traffic_Light.c ****                 }else{
 146:Core/Src/Traffic_Light.c ****                     bits = TL2_Green(bits, false);
 147:Core/Src/Traffic_Light.c ****                     bits = TL2_Red(bits, true);
 148:Core/Src/Traffic_Light.c ****                     bits = TL2_Yellow(bits, false);
 149:Core/Src/Traffic_Light.c ****                 }
 150:Core/Src/Traffic_Light.c ****                 break;
 151:Core/Src/Traffic_Light.c ****             default:
 152:Core/Src/Traffic_Light.c ****                 break;
 153:Core/Src/Traffic_Light.c ****         }
 154:Core/Src/Traffic_Light.c **** 
 155:Core/Src/Traffic_Light.c ****         switch (C3){
 228              		.loc 1 155 9 is_stmt 1 view .LVU62
 229 00a6 754B     		ldr	r3, .L50+12
 230 00a8 1B78     		ldrb	r3, [r3]	@ zero_extendqisi2
 231 00aa 002B     		cmp	r3, #0
 232 00ac 00F0F680 		beq	.L16
 233 00b0 012B     		cmp	r3, #1
 234 00b2 17D1     		bne	.L17
 156:Core/Src/Traffic_Light.c ****             case TLGreen:
 157:Core/Src/Traffic_Light.c ****                 if((TLYellowDelay > 0)  && (!TL3_isGreen(bits))){
 235              		.loc 1 157 17 view .LVU63
 236              		.loc 1 157 35 is_stmt 0 view .LVU64
ARM GAS  C:\Users\ehgre\AppData\Local\Temp\ccQxqZR3.s 			page 8


 237 00b4 704B     		ldr	r3, .L50+8
 238 00b6 1B78     		ldrb	r3, [r3]	@ zero_extendqisi2
 239              		.loc 1 157 19 view .LVU65
 240 00b8 33B1     		cbz	r3, .L18
 241              		.loc 1 157 46 discriminator 1 view .LVU66
 242 00ba 6E4B     		ldr	r3, .L50+4
 243 00bc 1868     		ldr	r0, [r3]
 244 00be FFF7FEFF 		bl	TL3_isGreen
 245              	.LVL17:
 246              		.loc 1 157 41 discriminator 1 view .LVU67
 247 00c2 0028     		cmp	r0, #0
 248 00c4 00F0C580 		beq	.L42
 249              	.L18:
 158:Core/Src/Traffic_Light.c ****                     bits = TL3_Green(bits, false);
 159:Core/Src/Traffic_Light.c ****                     bits = TL3_Red(bits, false);
 160:Core/Src/Traffic_Light.c ****                     bits = TL3_Yellow(bits, true);
 161:Core/Src/Traffic_Light.c ****                 }else{
 162:Core/Src/Traffic_Light.c ****                     bits = TL3_Green(bits, true);
 250              		.loc 1 162 21 is_stmt 1 view .LVU68
 251              		.loc 1 162 28 is_stmt 0 view .LVU69
 252 00c8 6A4C     		ldr	r4, .L50+4
 253 00ca 0121     		movs	r1, #1
 254 00cc 2068     		ldr	r0, [r4]
 255 00ce FFF7FEFF 		bl	TL3_Green
 256              	.LVL18:
 257              		.loc 1 162 26 view .LVU70
 258 00d2 2060     		str	r0, [r4]
 163:Core/Src/Traffic_Light.c ****                     bits = TL3_Red(bits, false);
 259              		.loc 1 163 21 is_stmt 1 view .LVU71
 260              		.loc 1 163 28 is_stmt 0 view .LVU72
 261 00d4 0021     		movs	r1, #0
 262 00d6 FFF7FEFF 		bl	TL3_Red
 263              	.LVL19:
 264              		.loc 1 163 26 view .LVU73
 265 00da 2060     		str	r0, [r4]
 164:Core/Src/Traffic_Light.c ****                     bits = TL3_Yellow(bits, false);
 266              		.loc 1 164 21 is_stmt 1 view .LVU74
 267              		.loc 1 164 28 is_stmt 0 view .LVU75
 268 00dc 0021     		movs	r1, #0
 269 00de FFF7FEFF 		bl	TL3_Yellow
 270              	.LVL20:
 271              		.loc 1 164 26 view .LVU76
 272 00e2 2060     		str	r0, [r4]
 273              	.L17:
 165:Core/Src/Traffic_Light.c ****                 }
 166:Core/Src/Traffic_Light.c ****                 break;
 167:Core/Src/Traffic_Light.c ****             case TLRed:
 168:Core/Src/Traffic_Light.c ****                 if((TLYellowDelay > 0) && (!TL3_isRed(bits))){
 169:Core/Src/Traffic_Light.c ****                     bits = TL3_Green(bits, false);
 170:Core/Src/Traffic_Light.c ****                     bits = TL3_Red(bits, false);
 171:Core/Src/Traffic_Light.c ****                     bits = TL3_Yellow(bits, true);
 172:Core/Src/Traffic_Light.c ****                 }else{
 173:Core/Src/Traffic_Light.c ****                     bits = TL3_Green(bits, false);
 174:Core/Src/Traffic_Light.c ****                     bits = TL3_Red(bits, true);
 175:Core/Src/Traffic_Light.c ****                     bits = TL3_Yellow(bits, false);
 176:Core/Src/Traffic_Light.c ****                 }
 177:Core/Src/Traffic_Light.c ****                 break;
ARM GAS  C:\Users\ehgre\AppData\Local\Temp\ccQxqZR3.s 			page 9


 178:Core/Src/Traffic_Light.c ****             default:
 179:Core/Src/Traffic_Light.c ****                 break;
 180:Core/Src/Traffic_Light.c ****         }
 181:Core/Src/Traffic_Light.c **** 
 182:Core/Src/Traffic_Light.c ****         switch (C4){
 274              		.loc 1 182 9 is_stmt 1 view .LVU77
 275 00e4 664B     		ldr	r3, .L50+16
 276 00e6 1B78     		ldrb	r3, [r3]	@ zero_extendqisi2
 277 00e8 002B     		cmp	r3, #0
 278 00ea 00F00C81 		beq	.L20
 279 00ee 012B     		cmp	r3, #1
 280 00f0 17D1     		bne	.L21
 183:Core/Src/Traffic_Light.c ****             case TLGreen:
 184:Core/Src/Traffic_Light.c ****                 if((TLYellowDelay > 0) && (!TL4_isGreen(bits))){
 281              		.loc 1 184 17 view .LVU78
 282              		.loc 1 184 35 is_stmt 0 view .LVU79
 283 00f2 614B     		ldr	r3, .L50+8
 284 00f4 1B78     		ldrb	r3, [r3]	@ zero_extendqisi2
 285              		.loc 1 184 19 view .LVU80
 286 00f6 33B1     		cbz	r3, .L22
 287              		.loc 1 184 45 discriminator 1 view .LVU81
 288 00f8 5E4B     		ldr	r3, .L50+4
 289 00fa 1868     		ldr	r0, [r3]
 290 00fc FFF7FEFF 		bl	TL4_isGreen
 291              	.LVL21:
 292              		.loc 1 184 40 discriminator 1 view .LVU82
 293 0100 0028     		cmp	r0, #0
 294 0102 00F0F180 		beq	.L43
 295              	.L22:
 185:Core/Src/Traffic_Light.c ****                     bits = TL4_Green(bits, false);
 186:Core/Src/Traffic_Light.c ****                     bits = TL4_Red(bits, false);
 187:Core/Src/Traffic_Light.c ****                     bits = TL4_Yellow(bits, true);
 188:Core/Src/Traffic_Light.c ****                 }else{
 189:Core/Src/Traffic_Light.c ****                     bits = TL4_Green(bits, true);
 296              		.loc 1 189 21 is_stmt 1 view .LVU83
 297              		.loc 1 189 28 is_stmt 0 view .LVU84
 298 0106 5B4C     		ldr	r4, .L50+4
 299 0108 0121     		movs	r1, #1
 300 010a 2068     		ldr	r0, [r4]
 301 010c FFF7FEFF 		bl	TL4_Green
 302              	.LVL22:
 303              		.loc 1 189 26 view .LVU85
 304 0110 2060     		str	r0, [r4]
 190:Core/Src/Traffic_Light.c ****                     bits = TL4_Red(bits, false);
 305              		.loc 1 190 21 is_stmt 1 view .LVU86
 306              		.loc 1 190 28 is_stmt 0 view .LVU87
 307 0112 0021     		movs	r1, #0
 308 0114 FFF7FEFF 		bl	TL4_Red
 309              	.LVL23:
 310              		.loc 1 190 26 view .LVU88
 311 0118 2060     		str	r0, [r4]
 191:Core/Src/Traffic_Light.c ****                     bits = TL4_Yellow(bits, false);
 312              		.loc 1 191 21 is_stmt 1 view .LVU89
 313              		.loc 1 191 28 is_stmt 0 view .LVU90
 314 011a 0021     		movs	r1, #0
 315 011c FFF7FEFF 		bl	TL4_Yellow
 316              	.LVL24:
ARM GAS  C:\Users\ehgre\AppData\Local\Temp\ccQxqZR3.s 			page 10


 317              		.loc 1 191 26 view .LVU91
 318 0120 2060     		str	r0, [r4]
 319              	.L21:
 192:Core/Src/Traffic_Light.c ****                 }
 193:Core/Src/Traffic_Light.c ****                 break;
 194:Core/Src/Traffic_Light.c ****             case TLRed:
 195:Core/Src/Traffic_Light.c ****                 if((TLYellowDelay > 0)  && (!TL4_isRed(bits))){
 196:Core/Src/Traffic_Light.c ****                     bits = TL4_Green(bits, false);
 197:Core/Src/Traffic_Light.c ****                     bits = TL4_Red(bits, false);
 198:Core/Src/Traffic_Light.c ****                     bits = TL4_Yellow(bits, true);
 199:Core/Src/Traffic_Light.c ****                 }else{
 200:Core/Src/Traffic_Light.c ****                     bits = TL4_Green(bits, false);
 201:Core/Src/Traffic_Light.c ****                     bits = TL4_Red(bits, true);
 202:Core/Src/Traffic_Light.c ****                     bits = TL4_Yellow(bits, false);
 203:Core/Src/Traffic_Light.c ****                 }
 204:Core/Src/Traffic_Light.c ****                 break;
 205:Core/Src/Traffic_Light.c ****             default:
 206:Core/Src/Traffic_Light.c ****                 break;
 207:Core/Src/Traffic_Light.c ****         }
 208:Core/Src/Traffic_Light.c **** 
 209:Core/Src/Traffic_Light.c ****         switch (CW1){
 320              		.loc 1 209 9 is_stmt 1 view .LVU92
 321 0122 584B     		ldr	r3, .L50+20
 322 0124 1B78     		ldrb	r3, [r3]	@ zero_extendqisi2
 323 0126 012B     		cmp	r3, #1
 324 0128 00F01381 		beq	.L24
 325 012c 022B     		cmp	r3, #2
 326 012e 00F04481 		beq	.L25
 327 0132 002B     		cmp	r3, #0
 328 0134 00F06581 		beq	.L44
 329              	.L27:
 210:Core/Src/Traffic_Light.c ****             case PLGreen:
 211:Core/Src/Traffic_Light.c ****                 if((C1 != TLRed) || (C3 != TLRed) || (C4 != TLRed)){
 212:Core/Src/Traffic_Light.c ****                     C1 = TLRed;
 213:Core/Src/Traffic_Light.c ****                     C3 = TLRed;
 214:Core/Src/Traffic_Light.c ****                     C4 = TLRed;
 215:Core/Src/Traffic_Light.c ****                     TLYellowDelay = orangeDelay+1;
 216:Core/Src/Traffic_Light.c ****                 }else{
 217:Core/Src/Traffic_Light.c ****                     if(TLYellowDelay == 0){
 218:Core/Src/Traffic_Light.c ****                         if(PLGreenDelay > 0){
 219:Core/Src/Traffic_Light.c ****                             bits = PL1_Green(bits, true);
 220:Core/Src/Traffic_Light.c ****                             bits = PL1_Red(bits, false);
 221:Core/Src/Traffic_Light.c ****                         }else{
 222:Core/Src/Traffic_Light.c ****                             CW1 = PLRed;
 223:Core/Src/Traffic_Light.c ****                             bits = PL1_Green(bits, false);
 224:Core/Src/Traffic_Light.c ****                             bits = PL1_Red(bits, true);
 225:Core/Src/Traffic_Light.c ****                         }
 226:Core/Src/Traffic_Light.c ****                     }
 227:Core/Src/Traffic_Light.c ****                 }
 228:Core/Src/Traffic_Light.c ****                 break;
 229:Core/Src/Traffic_Light.c ****             case PLBlue:
 230:Core/Src/Traffic_Light.c ****                 if(PLBlueDelay > 0){
 231:Core/Src/Traffic_Light.c ****                     if((msTick % (uint16_t)(toggleFreq*10)) == 0){
 232:Core/Src/Traffic_Light.c ****                         bits = PL1_Blue_Toggle(bits);
 233:Core/Src/Traffic_Light.c ****                     }
 234:Core/Src/Traffic_Light.c ****                 }else{
 235:Core/Src/Traffic_Light.c ****                     CW1 = PLGreen;
ARM GAS  C:\Users\ehgre\AppData\Local\Temp\ccQxqZR3.s 			page 11


 236:Core/Src/Traffic_Light.c ****                     PLGreenDelay = walkingDelay;
 237:Core/Src/Traffic_Light.c ****                     bits = PL1_Blue(bits, false);
 238:Core/Src/Traffic_Light.c ****                 }
 239:Core/Src/Traffic_Light.c ****                 break;
 240:Core/Src/Traffic_Light.c ****             case PLRed:
 241:Core/Src/Traffic_Light.c ****                 bits = PL1_Red(bits,true);
 242:Core/Src/Traffic_Light.c ****                 bits = PL1_Green(bits,false);
 243:Core/Src/Traffic_Light.c ****                 break;
 244:Core/Src/Traffic_Light.c ****             default:
 245:Core/Src/Traffic_Light.c ****                 break;
 246:Core/Src/Traffic_Light.c ****         }
 247:Core/Src/Traffic_Light.c **** 
 248:Core/Src/Traffic_Light.c ****         switch (CW2){
 330              		.loc 1 248 9 view .LVU93
 331 0138 534B     		ldr	r3, .L50+24
 332 013a 1B78     		ldrb	r3, [r3]	@ zero_extendqisi2
 333 013c 012B     		cmp	r3, #1
 334 013e 00F06B81 		beq	.L32
 335 0142 022B     		cmp	r3, #2
 336 0144 00F09C81 		beq	.L33
 337 0148 002B     		cmp	r3, #0
 338 014a 00F0BD81 		beq	.L45
 339              	.L5:
  76:Core/Src/Traffic_Light.c **** 
 340              		.loc 1 76 5 view .LVU94
  78:Core/Src/Traffic_Light.c **** 
 341              		.loc 1 78 9 view .LVU95
  78:Core/Src/Traffic_Light.c **** 
 342              		.loc 1 78 22 is_stmt 0 view .LVU96
 343 014e FFF7FEFF 		bl	getPotiPercent
 344              	.LVL25:
  78:Core/Src/Traffic_Light.c **** 
 345              		.loc 1 78 20 view .LVU97
 346 0152 4E4B     		ldr	r3, .L50+28
 347 0154 1870     		strb	r0, [r3]
  91:Core/Src/Traffic_Light.c ****             CW1 = PLBlue;
 348              		.loc 1 91 8 is_stmt 1 view .LVU98
  91:Core/Src/Traffic_Light.c ****             CW1 = PLBlue;
 349              		.loc 1 91 11 is_stmt 0 view .LVU99
 350 0156 FFF7FEFF 		bl	is_pl1
 351              	.LVL26:
  91:Core/Src/Traffic_Light.c ****             CW1 = PLBlue;
 352              		.loc 1 91 10 view .LVU100
 353 015a 40B1     		cbz	r0, .L6
  91:Core/Src/Traffic_Light.c ****             CW1 = PLBlue;
 354              		.loc 1 91 28 discriminator 1 view .LVU101
 355 015c 4A4B     		ldr	r3, .L50+24
 356 015e 1B78     		ldrb	r3, [r3]	@ zero_extendqisi2
  91:Core/Src/Traffic_Light.c ****             CW1 = PLBlue;
 357              		.loc 1 91 20 discriminator 1 view .LVU102
 358 0160 2BB9     		cbnz	r3, .L6
  92:Core/Src/Traffic_Light.c ****             PLBlueDelay = pedestrianDelay;
 359              		.loc 1 92 13 is_stmt 1 view .LVU103
  92:Core/Src/Traffic_Light.c ****             PLBlueDelay = pedestrianDelay;
 360              		.loc 1 92 17 is_stmt 0 view .LVU104
 361 0162 484B     		ldr	r3, .L50+20
 362 0164 0222     		movs	r2, #2
ARM GAS  C:\Users\ehgre\AppData\Local\Temp\ccQxqZR3.s 			page 12


 363 0166 1A70     		strb	r2, [r3]
  93:Core/Src/Traffic_Light.c ****         }
 364              		.loc 1 93 13 is_stmt 1 view .LVU105
  93:Core/Src/Traffic_Light.c ****         }
 365              		.loc 1 93 25 is_stmt 0 view .LVU106
 366 0168 494B     		ldr	r3, .L50+32
 367 016a 0522     		movs	r2, #5
 368 016c 1A70     		strb	r2, [r3]
 369              	.L6:
  96:Core/Src/Traffic_Light.c ****             CW2 = PLBlue;
 370              		.loc 1 96 9 is_stmt 1 view .LVU107
  96:Core/Src/Traffic_Light.c ****             CW2 = PLBlue;
 371              		.loc 1 96 12 is_stmt 0 view .LVU108
 372 016e FFF7FEFF 		bl	is_pl2
 373              	.LVL27:
  96:Core/Src/Traffic_Light.c ****             CW2 = PLBlue;
 374              		.loc 1 96 11 view .LVU109
 375 0172 40B1     		cbz	r0, .L7
  96:Core/Src/Traffic_Light.c ****             CW2 = PLBlue;
 376              		.loc 1 96 29 discriminator 1 view .LVU110
 377 0174 434B     		ldr	r3, .L50+20
 378 0176 1B78     		ldrb	r3, [r3]	@ zero_extendqisi2
  96:Core/Src/Traffic_Light.c ****             CW2 = PLBlue;
 379              		.loc 1 96 21 discriminator 1 view .LVU111
 380 0178 2BB9     		cbnz	r3, .L7
  97:Core/Src/Traffic_Light.c ****             PLBlueDelay = pedestrianDelay;
 381              		.loc 1 97 13 is_stmt 1 view .LVU112
  97:Core/Src/Traffic_Light.c ****             PLBlueDelay = pedestrianDelay;
 382              		.loc 1 97 17 is_stmt 0 view .LVU113
 383 017a 434B     		ldr	r3, .L50+24
 384 017c 0222     		movs	r2, #2
 385 017e 1A70     		strb	r2, [r3]
  98:Core/Src/Traffic_Light.c ****         }
 386              		.loc 1 98 13 is_stmt 1 view .LVU114
  98:Core/Src/Traffic_Light.c ****         }
 387              		.loc 1 98 25 is_stmt 0 view .LVU115
 388 0180 434B     		ldr	r3, .L50+32
 389 0182 0522     		movs	r2, #5
 390 0184 1A70     		strb	r2, [r3]
 391              	.L7:
 101:Core/Src/Traffic_Light.c ****             case TLGreen:
 392              		.loc 1 101 9 is_stmt 1 view .LVU116
 393 0186 434B     		ldr	r3, .L50+36
 394 0188 1B78     		ldrb	r3, [r3]	@ zero_extendqisi2
 395 018a 002B     		cmp	r3, #0
 396 018c 3FF457AF 		beq	.L8
 397 0190 012B     		cmp	r3, #1
 398 0192 17D1     		bne	.L9
 103:Core/Src/Traffic_Light.c ****                     bits = TL1_Green(bits, false);
 399              		.loc 1 103 17 view .LVU117
 103:Core/Src/Traffic_Light.c ****                     bits = TL1_Green(bits, false);
 400              		.loc 1 103 35 is_stmt 0 view .LVU118
 401 0194 384B     		ldr	r3, .L50+8
 402 0196 1B78     		ldrb	r3, [r3]	@ zero_extendqisi2
 103:Core/Src/Traffic_Light.c ****                     bits = TL1_Green(bits, false);
 403              		.loc 1 103 19 view .LVU119
 404 0198 33B1     		cbz	r3, .L10
ARM GAS  C:\Users\ehgre\AppData\Local\Temp\ccQxqZR3.s 			page 13


 103:Core/Src/Traffic_Light.c ****                     bits = TL1_Green(bits, false);
 405              		.loc 1 103 45 discriminator 1 view .LVU120
 406 019a 364B     		ldr	r3, .L50+4
 407 019c 1868     		ldr	r0, [r3]
 408 019e FFF7FEFF 		bl	TL1_isGreen
 409              	.LVL28:
 103:Core/Src/Traffic_Light.c ****                     bits = TL1_Green(bits, false);
 410              		.loc 1 103 40 discriminator 1 view .LVU121
 411 01a2 0028     		cmp	r0, #0
 412 01a4 3FF43CAF 		beq	.L46
 413              	.L10:
 108:Core/Src/Traffic_Light.c ****                     bits = TL1_Red(bits, true);
 414              		.loc 1 108 21 is_stmt 1 view .LVU122
 108:Core/Src/Traffic_Light.c ****                     bits = TL1_Red(bits, true);
 415              		.loc 1 108 28 is_stmt 0 view .LVU123
 416 01a8 324C     		ldr	r4, .L50+4
 417 01aa 0021     		movs	r1, #0
 418 01ac 2068     		ldr	r0, [r4]
 419 01ae FFF7FEFF 		bl	TL1_Green
 420              	.LVL29:
 108:Core/Src/Traffic_Light.c ****                     bits = TL1_Red(bits, true);
 421              		.loc 1 108 26 view .LVU124
 422 01b2 2060     		str	r0, [r4]
 109:Core/Src/Traffic_Light.c ****                     bits = TL1_Yellow(bits, false);
 423              		.loc 1 109 21 is_stmt 1 view .LVU125
 109:Core/Src/Traffic_Light.c ****                     bits = TL1_Yellow(bits, false);
 424              		.loc 1 109 28 is_stmt 0 view .LVU126
 425 01b4 0121     		movs	r1, #1
 426 01b6 FFF7FEFF 		bl	TL1_Red
 427              	.LVL30:
 109:Core/Src/Traffic_Light.c ****                     bits = TL1_Yellow(bits, false);
 428              		.loc 1 109 26 view .LVU127
 429 01ba 2060     		str	r0, [r4]
 110:Core/Src/Traffic_Light.c ****                 }
 430              		.loc 1 110 21 is_stmt 1 view .LVU128
 110:Core/Src/Traffic_Light.c ****                 }
 431              		.loc 1 110 28 is_stmt 0 view .LVU129
 432 01bc 0021     		movs	r1, #0
 433 01be FFF7FEFF 		bl	TL1_Yellow
 434              	.LVL31:
 110:Core/Src/Traffic_Light.c ****                 }
 435              		.loc 1 110 26 view .LVU130
 436 01c2 2060     		str	r0, [r4]
 437              	.L9:
 128:Core/Src/Traffic_Light.c ****             case TLGreen:
 438              		.loc 1 128 9 is_stmt 1 view .LVU131
 439 01c4 344B     		ldr	r3, .L50+40
 440 01c6 1B78     		ldrb	r3, [r3]	@ zero_extendqisi2
 441 01c8 EBB1     		cbz	r3, .L12
 442 01ca 012B     		cmp	r3, #1
 443 01cc 7FF46BAF 		bne	.L13
 130:Core/Src/Traffic_Light.c ****                     bits = TL2_Green(bits, false);
 444              		.loc 1 130 17 view .LVU132
 130:Core/Src/Traffic_Light.c ****                     bits = TL2_Green(bits, false);
 445              		.loc 1 130 35 is_stmt 0 view .LVU133
 446 01d0 294B     		ldr	r3, .L50+8
 447 01d2 1B78     		ldrb	r3, [r3]	@ zero_extendqisi2
ARM GAS  C:\Users\ehgre\AppData\Local\Temp\ccQxqZR3.s 			page 14


 130:Core/Src/Traffic_Light.c ****                     bits = TL2_Green(bits, false);
 448              		.loc 1 130 19 view .LVU134
 449 01d4 002B     		cmp	r3, #0
 450 01d6 3FF458AF 		beq	.L14
 130:Core/Src/Traffic_Light.c ****                     bits = TL2_Green(bits, false);
 451              		.loc 1 130 46 discriminator 1 view .LVU135
 452 01da 264B     		ldr	r3, .L50+4
 453 01dc 1868     		ldr	r0, [r3]
 454 01de FFF7FEFF 		bl	TL2_isGreen
 455              	.LVL32:
 130:Core/Src/Traffic_Light.c ****                     bits = TL2_Green(bits, false);
 456              		.loc 1 130 41 discriminator 1 view .LVU136
 457 01e2 0028     		cmp	r0, #0
 458 01e4 7FF451AF 		bne	.L14
 131:Core/Src/Traffic_Light.c ****                     bits = TL2_Red(bits, false);
 459              		.loc 1 131 21 is_stmt 1 view .LVU137
 131:Core/Src/Traffic_Light.c ****                     bits = TL2_Red(bits, false);
 460              		.loc 1 131 28 is_stmt 0 view .LVU138
 461 01e8 224C     		ldr	r4, .L50+4
 462 01ea 0021     		movs	r1, #0
 463 01ec 2068     		ldr	r0, [r4]
 464 01ee FFF7FEFF 		bl	TL2_Green
 465              	.LVL33:
 131:Core/Src/Traffic_Light.c ****                     bits = TL2_Red(bits, false);
 466              		.loc 1 131 26 view .LVU139
 467 01f2 2060     		str	r0, [r4]
 132:Core/Src/Traffic_Light.c ****                     bits = TL2_Yellow(bits, true);
 468              		.loc 1 132 21 is_stmt 1 view .LVU140
 132:Core/Src/Traffic_Light.c ****                     bits = TL2_Yellow(bits, true);
 469              		.loc 1 132 28 is_stmt 0 view .LVU141
 470 01f4 0021     		movs	r1, #0
 471 01f6 FFF7FEFF 		bl	TL2_Red
 472              	.LVL34:
 132:Core/Src/Traffic_Light.c ****                     bits = TL2_Yellow(bits, true);
 473              		.loc 1 132 26 view .LVU142
 474 01fa 2060     		str	r0, [r4]
 133:Core/Src/Traffic_Light.c ****                 }else{
 475              		.loc 1 133 21 is_stmt 1 view .LVU143
 133:Core/Src/Traffic_Light.c ****                 }else{
 476              		.loc 1 133 28 is_stmt 0 view .LVU144
 477 01fc 0121     		movs	r1, #1
 478 01fe FFF7FEFF 		bl	TL2_Yellow
 479              	.LVL35:
 133:Core/Src/Traffic_Light.c ****                 }else{
 480              		.loc 1 133 26 view .LVU145
 481 0202 2060     		str	r0, [r4]
 482 0204 4FE7     		b	.L13
 483              	.L12:
 141:Core/Src/Traffic_Light.c ****                     bits = TL2_Green(bits, false);
 484              		.loc 1 141 17 is_stmt 1 view .LVU146
 141:Core/Src/Traffic_Light.c ****                     bits = TL2_Green(bits, false);
 485              		.loc 1 141 35 is_stmt 0 view .LVU147
 486 0206 1C4B     		ldr	r3, .L50+8
 487 0208 1B78     		ldrb	r3, [r3]	@ zero_extendqisi2
 141:Core/Src/Traffic_Light.c ****                     bits = TL2_Green(bits, false);
 488              		.loc 1 141 19 view .LVU148
 489 020a 23B1     		cbz	r3, .L15
ARM GAS  C:\Users\ehgre\AppData\Local\Temp\ccQxqZR3.s 			page 15


 141:Core/Src/Traffic_Light.c ****                     bits = TL2_Green(bits, false);
 490              		.loc 1 141 46 discriminator 1 view .LVU149
 491 020c 194B     		ldr	r3, .L50+4
 492 020e 1868     		ldr	r0, [r3]
 493 0210 FFF7FEFF 		bl	TL2_isRed
 494              	.LVL36:
 141:Core/Src/Traffic_Light.c ****                     bits = TL2_Green(bits, false);
 495              		.loc 1 141 41 discriminator 1 view .LVU150
 496 0214 70B1     		cbz	r0, .L47
 497              	.L15:
 146:Core/Src/Traffic_Light.c ****                     bits = TL2_Red(bits, true);
 498              		.loc 1 146 21 is_stmt 1 view .LVU151
 146:Core/Src/Traffic_Light.c ****                     bits = TL2_Red(bits, true);
 499              		.loc 1 146 28 is_stmt 0 view .LVU152
 500 0216 174C     		ldr	r4, .L50+4
 501 0218 0021     		movs	r1, #0
 502 021a 2068     		ldr	r0, [r4]
 503 021c FFF7FEFF 		bl	TL2_Green
 504              	.LVL37:
 146:Core/Src/Traffic_Light.c ****                     bits = TL2_Red(bits, true);
 505              		.loc 1 146 26 view .LVU153
 506 0220 2060     		str	r0, [r4]
 147:Core/Src/Traffic_Light.c ****                     bits = TL2_Yellow(bits, false);
 507              		.loc 1 147 21 is_stmt 1 view .LVU154
 147:Core/Src/Traffic_Light.c ****                     bits = TL2_Yellow(bits, false);
 508              		.loc 1 147 28 is_stmt 0 view .LVU155
 509 0222 0121     		movs	r1, #1
 510 0224 FFF7FEFF 		bl	TL2_Red
 511              	.LVL38:
 147:Core/Src/Traffic_Light.c ****                     bits = TL2_Yellow(bits, false);
 512              		.loc 1 147 26 view .LVU156
 513 0228 2060     		str	r0, [r4]
 148:Core/Src/Traffic_Light.c ****                 }
 514              		.loc 1 148 21 is_stmt 1 view .LVU157
 148:Core/Src/Traffic_Light.c ****                 }
 515              		.loc 1 148 28 is_stmt 0 view .LVU158
 516 022a 0021     		movs	r1, #0
 517 022c FFF7FEFF 		bl	TL2_Yellow
 518              	.LVL39:
 148:Core/Src/Traffic_Light.c ****                 }
 519              		.loc 1 148 26 view .LVU159
 520 0230 2060     		str	r0, [r4]
 521 0232 38E7     		b	.L13
 522              	.L47:
 142:Core/Src/Traffic_Light.c ****                     bits = TL2_Red(bits, false);
 523              		.loc 1 142 21 is_stmt 1 view .LVU160
 142:Core/Src/Traffic_Light.c ****                     bits = TL2_Red(bits, false);
 524              		.loc 1 142 28 is_stmt 0 view .LVU161
 525 0234 0F4C     		ldr	r4, .L50+4
 526 0236 0021     		movs	r1, #0
 527 0238 2068     		ldr	r0, [r4]
 528 023a FFF7FEFF 		bl	TL2_Green
 529              	.LVL40:
 142:Core/Src/Traffic_Light.c ****                     bits = TL2_Red(bits, false);
 530              		.loc 1 142 26 view .LVU162
 531 023e 2060     		str	r0, [r4]
 143:Core/Src/Traffic_Light.c ****                     bits = TL2_Yellow(bits, true);
ARM GAS  C:\Users\ehgre\AppData\Local\Temp\ccQxqZR3.s 			page 16


 532              		.loc 1 143 21 is_stmt 1 view .LVU163
 143:Core/Src/Traffic_Light.c ****                     bits = TL2_Yellow(bits, true);
 533              		.loc 1 143 28 is_stmt 0 view .LVU164
 534 0240 0021     		movs	r1, #0
 535 0242 FFF7FEFF 		bl	TL2_Red
 536              	.LVL41:
 143:Core/Src/Traffic_Light.c ****                     bits = TL2_Yellow(bits, true);
 537              		.loc 1 143 26 view .LVU165
 538 0246 2060     		str	r0, [r4]
 144:Core/Src/Traffic_Light.c ****                 }else{
 539              		.loc 1 144 21 is_stmt 1 view .LVU166
 144:Core/Src/Traffic_Light.c ****                 }else{
 540              		.loc 1 144 28 is_stmt 0 view .LVU167
 541 0248 0121     		movs	r1, #1
 542 024a FFF7FEFF 		bl	TL2_Yellow
 543              	.LVL42:
 144:Core/Src/Traffic_Light.c ****                 }else{
 544              		.loc 1 144 26 view .LVU168
 545 024e 2060     		str	r0, [r4]
 546 0250 29E7     		b	.L13
 547              	.L42:
 158:Core/Src/Traffic_Light.c ****                     bits = TL3_Red(bits, false);
 548              		.loc 1 158 21 is_stmt 1 view .LVU169
 158:Core/Src/Traffic_Light.c ****                     bits = TL3_Red(bits, false);
 549              		.loc 1 158 28 is_stmt 0 view .LVU170
 550 0252 084C     		ldr	r4, .L50+4
 551 0254 0021     		movs	r1, #0
 552 0256 2068     		ldr	r0, [r4]
 553 0258 FFF7FEFF 		bl	TL3_Green
 554              	.LVL43:
 158:Core/Src/Traffic_Light.c ****                     bits = TL3_Red(bits, false);
 555              		.loc 1 158 26 view .LVU171
 556 025c 2060     		str	r0, [r4]
 159:Core/Src/Traffic_Light.c ****                     bits = TL3_Yellow(bits, true);
 557              		.loc 1 159 21 is_stmt 1 view .LVU172
 159:Core/Src/Traffic_Light.c ****                     bits = TL3_Yellow(bits, true);
 558              		.loc 1 159 28 is_stmt 0 view .LVU173
 559 025e 0021     		movs	r1, #0
 560 0260 FFF7FEFF 		bl	TL3_Red
 561              	.LVL44:
 159:Core/Src/Traffic_Light.c ****                     bits = TL3_Yellow(bits, true);
 562              		.loc 1 159 26 view .LVU174
 563 0264 2060     		str	r0, [r4]
 160:Core/Src/Traffic_Light.c ****                 }else{
 564              		.loc 1 160 21 is_stmt 1 view .LVU175
 160:Core/Src/Traffic_Light.c ****                 }else{
 565              		.loc 1 160 28 is_stmt 0 view .LVU176
 566 0266 0121     		movs	r1, #1
 567 0268 FFF7FEFF 		bl	TL3_Yellow
 568              	.LVL45:
 160:Core/Src/Traffic_Light.c ****                 }else{
 569              		.loc 1 160 26 view .LVU177
 570 026c 2060     		str	r0, [r4]
 571 026e 39E7     		b	.L17
 572              	.L51:
 573              		.align	2
 574              	.L50:
ARM GAS  C:\Users\ehgre\AppData\Local\Temp\ccQxqZR3.s 			page 17


 575 0270 00000000 		.word	htim16
 576 0274 00000000 		.word	bits
 577 0278 00000000 		.word	TLYellowDelay
 578 027c 00000000 		.word	C3
 579 0280 00000000 		.word	C4
 580 0284 00000000 		.word	CW1
 581 0288 00000000 		.word	CW2
 582 028c 00000000 		.word	brightness
 583 0290 00000000 		.word	PLBlueDelay
 584 0294 00000000 		.word	C1
 585 0298 00000000 		.word	C2
 586              	.L16:
 168:Core/Src/Traffic_Light.c ****                     bits = TL3_Green(bits, false);
 587              		.loc 1 168 17 is_stmt 1 view .LVU178
 168:Core/Src/Traffic_Light.c ****                     bits = TL3_Green(bits, false);
 588              		.loc 1 168 35 is_stmt 0 view .LVU179
 589 029c 904B     		ldr	r3, .L52
 590 029e 1B78     		ldrb	r3, [r3]	@ zero_extendqisi2
 168:Core/Src/Traffic_Light.c ****                     bits = TL3_Green(bits, false);
 591              		.loc 1 168 19 view .LVU180
 592 02a0 23B1     		cbz	r3, .L19
 168:Core/Src/Traffic_Light.c ****                     bits = TL3_Green(bits, false);
 593              		.loc 1 168 45 discriminator 1 view .LVU181
 594 02a2 904B     		ldr	r3, .L52+4
 595 02a4 1868     		ldr	r0, [r3]
 596 02a6 FFF7FEFF 		bl	TL3_isRed
 597              	.LVL46:
 168:Core/Src/Traffic_Light.c ****                     bits = TL3_Green(bits, false);
 598              		.loc 1 168 40 discriminator 1 view .LVU182
 599 02aa 70B1     		cbz	r0, .L48
 600              	.L19:
 173:Core/Src/Traffic_Light.c ****                     bits = TL3_Red(bits, true);
 601              		.loc 1 173 21 is_stmt 1 view .LVU183
 173:Core/Src/Traffic_Light.c ****                     bits = TL3_Red(bits, true);
 602              		.loc 1 173 28 is_stmt 0 view .LVU184
 603 02ac 8D4C     		ldr	r4, .L52+4
 604 02ae 0021     		movs	r1, #0
 605 02b0 2068     		ldr	r0, [r4]
 606 02b2 FFF7FEFF 		bl	TL3_Green
 607              	.LVL47:
 173:Core/Src/Traffic_Light.c ****                     bits = TL3_Red(bits, true);
 608              		.loc 1 173 26 view .LVU185
 609 02b6 2060     		str	r0, [r4]
 174:Core/Src/Traffic_Light.c ****                     bits = TL3_Yellow(bits, false);
 610              		.loc 1 174 21 is_stmt 1 view .LVU186
 174:Core/Src/Traffic_Light.c ****                     bits = TL3_Yellow(bits, false);
 611              		.loc 1 174 28 is_stmt 0 view .LVU187
 612 02b8 0121     		movs	r1, #1
 613 02ba FFF7FEFF 		bl	TL3_Red
 614              	.LVL48:
 174:Core/Src/Traffic_Light.c ****                     bits = TL3_Yellow(bits, false);
 615              		.loc 1 174 26 view .LVU188
 616 02be 2060     		str	r0, [r4]
 175:Core/Src/Traffic_Light.c ****                 }
 617              		.loc 1 175 21 is_stmt 1 view .LVU189
 175:Core/Src/Traffic_Light.c ****                 }
 618              		.loc 1 175 28 is_stmt 0 view .LVU190
ARM GAS  C:\Users\ehgre\AppData\Local\Temp\ccQxqZR3.s 			page 18


 619 02c0 0021     		movs	r1, #0
 620 02c2 FFF7FEFF 		bl	TL3_Yellow
 621              	.LVL49:
 175:Core/Src/Traffic_Light.c ****                 }
 622              		.loc 1 175 26 view .LVU191
 623 02c6 2060     		str	r0, [r4]
 624 02c8 0CE7     		b	.L17
 625              	.L48:
 169:Core/Src/Traffic_Light.c ****                     bits = TL3_Red(bits, false);
 626              		.loc 1 169 21 is_stmt 1 view .LVU192
 169:Core/Src/Traffic_Light.c ****                     bits = TL3_Red(bits, false);
 627              		.loc 1 169 28 is_stmt 0 view .LVU193
 628 02ca 864C     		ldr	r4, .L52+4
 629 02cc 0021     		movs	r1, #0
 630 02ce 2068     		ldr	r0, [r4]
 631 02d0 FFF7FEFF 		bl	TL3_Green
 632              	.LVL50:
 169:Core/Src/Traffic_Light.c ****                     bits = TL3_Red(bits, false);
 633              		.loc 1 169 26 view .LVU194
 634 02d4 2060     		str	r0, [r4]
 170:Core/Src/Traffic_Light.c ****                     bits = TL3_Yellow(bits, true);
 635              		.loc 1 170 21 is_stmt 1 view .LVU195
 170:Core/Src/Traffic_Light.c ****                     bits = TL3_Yellow(bits, true);
 636              		.loc 1 170 28 is_stmt 0 view .LVU196
 637 02d6 0021     		movs	r1, #0
 638 02d8 FFF7FEFF 		bl	TL3_Red
 639              	.LVL51:
 170:Core/Src/Traffic_Light.c ****                     bits = TL3_Yellow(bits, true);
 640              		.loc 1 170 26 view .LVU197
 641 02dc 2060     		str	r0, [r4]
 171:Core/Src/Traffic_Light.c ****                 }else{
 642              		.loc 1 171 21 is_stmt 1 view .LVU198
 171:Core/Src/Traffic_Light.c ****                 }else{
 643              		.loc 1 171 28 is_stmt 0 view .LVU199
 644 02de 0121     		movs	r1, #1
 645 02e0 FFF7FEFF 		bl	TL3_Yellow
 646              	.LVL52:
 171:Core/Src/Traffic_Light.c ****                 }else{
 647              		.loc 1 171 26 view .LVU200
 648 02e4 2060     		str	r0, [r4]
 649 02e6 FDE6     		b	.L17
 650              	.L43:
 185:Core/Src/Traffic_Light.c ****                     bits = TL4_Red(bits, false);
 651              		.loc 1 185 21 is_stmt 1 view .LVU201
 185:Core/Src/Traffic_Light.c ****                     bits = TL4_Red(bits, false);
 652              		.loc 1 185 28 is_stmt 0 view .LVU202
 653 02e8 7E4C     		ldr	r4, .L52+4
 654 02ea 0021     		movs	r1, #0
 655 02ec 2068     		ldr	r0, [r4]
 656 02ee FFF7FEFF 		bl	TL4_Green
 657              	.LVL53:
 185:Core/Src/Traffic_Light.c ****                     bits = TL4_Red(bits, false);
 658              		.loc 1 185 26 view .LVU203
 659 02f2 2060     		str	r0, [r4]
 186:Core/Src/Traffic_Light.c ****                     bits = TL4_Yellow(bits, true);
 660              		.loc 1 186 21 is_stmt 1 view .LVU204
 186:Core/Src/Traffic_Light.c ****                     bits = TL4_Yellow(bits, true);
ARM GAS  C:\Users\ehgre\AppData\Local\Temp\ccQxqZR3.s 			page 19


 661              		.loc 1 186 28 is_stmt 0 view .LVU205
 662 02f4 0021     		movs	r1, #0
 663 02f6 FFF7FEFF 		bl	TL4_Red
 664              	.LVL54:
 186:Core/Src/Traffic_Light.c ****                     bits = TL4_Yellow(bits, true);
 665              		.loc 1 186 26 view .LVU206
 666 02fa 2060     		str	r0, [r4]
 187:Core/Src/Traffic_Light.c ****                 }else{
 667              		.loc 1 187 21 is_stmt 1 view .LVU207
 187:Core/Src/Traffic_Light.c ****                 }else{
 668              		.loc 1 187 28 is_stmt 0 view .LVU208
 669 02fc 0121     		movs	r1, #1
 670 02fe FFF7FEFF 		bl	TL4_Yellow
 671              	.LVL55:
 187:Core/Src/Traffic_Light.c ****                 }else{
 672              		.loc 1 187 26 view .LVU209
 673 0302 2060     		str	r0, [r4]
 674 0304 0DE7     		b	.L21
 675              	.L20:
 195:Core/Src/Traffic_Light.c ****                     bits = TL4_Green(bits, false);
 676              		.loc 1 195 17 is_stmt 1 view .LVU210
 195:Core/Src/Traffic_Light.c ****                     bits = TL4_Green(bits, false);
 677              		.loc 1 195 35 is_stmt 0 view .LVU211
 678 0306 764B     		ldr	r3, .L52
 679 0308 1B78     		ldrb	r3, [r3]	@ zero_extendqisi2
 195:Core/Src/Traffic_Light.c ****                     bits = TL4_Green(bits, false);
 680              		.loc 1 195 19 view .LVU212
 681 030a 23B1     		cbz	r3, .L23
 195:Core/Src/Traffic_Light.c ****                     bits = TL4_Green(bits, false);
 682              		.loc 1 195 46 discriminator 1 view .LVU213
 683 030c 754B     		ldr	r3, .L52+4
 684 030e 1868     		ldr	r0, [r3]
 685 0310 FFF7FEFF 		bl	TL4_isRed
 686              	.LVL56:
 195:Core/Src/Traffic_Light.c ****                     bits = TL4_Green(bits, false);
 687              		.loc 1 195 41 discriminator 1 view .LVU214
 688 0314 70B1     		cbz	r0, .L49
 689              	.L23:
 200:Core/Src/Traffic_Light.c ****                     bits = TL4_Red(bits, true);
 690              		.loc 1 200 21 is_stmt 1 view .LVU215
 200:Core/Src/Traffic_Light.c ****                     bits = TL4_Red(bits, true);
 691              		.loc 1 200 28 is_stmt 0 view .LVU216
 692 0316 734C     		ldr	r4, .L52+4
 693 0318 0021     		movs	r1, #0
 694 031a 2068     		ldr	r0, [r4]
 695 031c FFF7FEFF 		bl	TL4_Green
 696              	.LVL57:
 200:Core/Src/Traffic_Light.c ****                     bits = TL4_Red(bits, true);
 697              		.loc 1 200 26 view .LVU217
 698 0320 2060     		str	r0, [r4]
 201:Core/Src/Traffic_Light.c ****                     bits = TL4_Yellow(bits, false);
 699              		.loc 1 201 21 is_stmt 1 view .LVU218
 201:Core/Src/Traffic_Light.c ****                     bits = TL4_Yellow(bits, false);
 700              		.loc 1 201 28 is_stmt 0 view .LVU219
 701 0322 0121     		movs	r1, #1
 702 0324 FFF7FEFF 		bl	TL4_Red
 703              	.LVL58:
ARM GAS  C:\Users\ehgre\AppData\Local\Temp\ccQxqZR3.s 			page 20


 201:Core/Src/Traffic_Light.c ****                     bits = TL4_Yellow(bits, false);
 704              		.loc 1 201 26 view .LVU220
 705 0328 2060     		str	r0, [r4]
 202:Core/Src/Traffic_Light.c ****                 }
 706              		.loc 1 202 21 is_stmt 1 view .LVU221
 202:Core/Src/Traffic_Light.c ****                 }
 707              		.loc 1 202 28 is_stmt 0 view .LVU222
 708 032a 0021     		movs	r1, #0
 709 032c FFF7FEFF 		bl	TL4_Yellow
 710              	.LVL59:
 202:Core/Src/Traffic_Light.c ****                 }
 711              		.loc 1 202 26 view .LVU223
 712 0330 2060     		str	r0, [r4]
 713 0332 F6E6     		b	.L21
 714              	.L49:
 196:Core/Src/Traffic_Light.c ****                     bits = TL4_Red(bits, false);
 715              		.loc 1 196 21 is_stmt 1 view .LVU224
 196:Core/Src/Traffic_Light.c ****                     bits = TL4_Red(bits, false);
 716              		.loc 1 196 28 is_stmt 0 view .LVU225
 717 0334 6B4C     		ldr	r4, .L52+4
 718 0336 0021     		movs	r1, #0
 719 0338 2068     		ldr	r0, [r4]
 720 033a FFF7FEFF 		bl	TL4_Green
 721              	.LVL60:
 196:Core/Src/Traffic_Light.c ****                     bits = TL4_Red(bits, false);
 722              		.loc 1 196 26 view .LVU226
 723 033e 2060     		str	r0, [r4]
 197:Core/Src/Traffic_Light.c ****                     bits = TL4_Yellow(bits, true);
 724              		.loc 1 197 21 is_stmt 1 view .LVU227
 197:Core/Src/Traffic_Light.c ****                     bits = TL4_Yellow(bits, true);
 725              		.loc 1 197 28 is_stmt 0 view .LVU228
 726 0340 0021     		movs	r1, #0
 727 0342 FFF7FEFF 		bl	TL4_Red
 728              	.LVL61:
 197:Core/Src/Traffic_Light.c ****                     bits = TL4_Yellow(bits, true);
 729              		.loc 1 197 26 view .LVU229
 730 0346 2060     		str	r0, [r4]
 198:Core/Src/Traffic_Light.c ****                 }else{
 731              		.loc 1 198 21 is_stmt 1 view .LVU230
 198:Core/Src/Traffic_Light.c ****                 }else{
 732              		.loc 1 198 28 is_stmt 0 view .LVU231
 733 0348 0121     		movs	r1, #1
 734 034a FFF7FEFF 		bl	TL4_Yellow
 735              	.LVL62:
 198:Core/Src/Traffic_Light.c ****                 }else{
 736              		.loc 1 198 26 view .LVU232
 737 034e 2060     		str	r0, [r4]
 738 0350 E7E6     		b	.L21
 739              	.L24:
 211:Core/Src/Traffic_Light.c ****                     C1 = TLRed;
 740              		.loc 1 211 17 is_stmt 1 view .LVU233
 211:Core/Src/Traffic_Light.c ****                     C1 = TLRed;
 741              		.loc 1 211 24 is_stmt 0 view .LVU234
 742 0352 654B     		ldr	r3, .L52+8
 743 0354 1B78     		ldrb	r3, [r3]	@ zero_extendqisi2
 211:Core/Src/Traffic_Light.c ****                     C1 = TLRed;
 744              		.loc 1 211 19 view .LVU235
ARM GAS  C:\Users\ehgre\AppData\Local\Temp\ccQxqZR3.s 			page 21


 745 0356 2BB9     		cbnz	r3, .L28
 211:Core/Src/Traffic_Light.c ****                     C1 = TLRed;
 746              		.loc 1 211 41 discriminator 1 view .LVU236
 747 0358 644B     		ldr	r3, .L52+12
 748 035a 1B78     		ldrb	r3, [r3]	@ zero_extendqisi2
 211:Core/Src/Traffic_Light.c ****                     C1 = TLRed;
 749              		.loc 1 211 34 discriminator 1 view .LVU237
 750 035c 13B9     		cbnz	r3, .L28
 211:Core/Src/Traffic_Light.c ****                     C1 = TLRed;
 751              		.loc 1 211 58 discriminator 2 view .LVU238
 752 035e 644B     		ldr	r3, .L52+16
 753 0360 1B78     		ldrb	r3, [r3]	@ zero_extendqisi2
 211:Core/Src/Traffic_Light.c ****                     C1 = TLRed;
 754              		.loc 1 211 51 discriminator 2 view .LVU239
 755 0362 53B1     		cbz	r3, .L29
 756              	.L28:
 212:Core/Src/Traffic_Light.c ****                     C3 = TLRed;
 757              		.loc 1 212 21 is_stmt 1 view .LVU240
 212:Core/Src/Traffic_Light.c ****                     C3 = TLRed;
 758              		.loc 1 212 24 is_stmt 0 view .LVU241
 759 0364 0023     		movs	r3, #0
 760 0366 604A     		ldr	r2, .L52+8
 761 0368 1370     		strb	r3, [r2]
 213:Core/Src/Traffic_Light.c ****                     C4 = TLRed;
 762              		.loc 1 213 21 is_stmt 1 view .LVU242
 213:Core/Src/Traffic_Light.c ****                     C4 = TLRed;
 763              		.loc 1 213 24 is_stmt 0 view .LVU243
 764 036a 604A     		ldr	r2, .L52+12
 765 036c 1370     		strb	r3, [r2]
 214:Core/Src/Traffic_Light.c ****                     TLYellowDelay = orangeDelay+1;
 766              		.loc 1 214 21 is_stmt 1 view .LVU244
 214:Core/Src/Traffic_Light.c ****                     TLYellowDelay = orangeDelay+1;
 767              		.loc 1 214 24 is_stmt 0 view .LVU245
 768 036e 604A     		ldr	r2, .L52+16
 769 0370 1370     		strb	r3, [r2]
 215:Core/Src/Traffic_Light.c ****                 }else{
 770              		.loc 1 215 21 is_stmt 1 view .LVU246
 215:Core/Src/Traffic_Light.c ****                 }else{
 771              		.loc 1 215 35 is_stmt 0 view .LVU247
 772 0372 5B4B     		ldr	r3, .L52
 773 0374 0222     		movs	r2, #2
 774 0376 1A70     		strb	r2, [r3]
 775 0378 DEE6     		b	.L27
 776              	.L29:
 217:Core/Src/Traffic_Light.c ****                         if(PLGreenDelay > 0){
 777              		.loc 1 217 21 is_stmt 1 view .LVU248
 217:Core/Src/Traffic_Light.c ****                         if(PLGreenDelay > 0){
 778              		.loc 1 217 38 is_stmt 0 view .LVU249
 779 037a 594B     		ldr	r3, .L52
 780 037c 1B78     		ldrb	r3, [r3]	@ zero_extendqisi2
 217:Core/Src/Traffic_Light.c ****                         if(PLGreenDelay > 0){
 781              		.loc 1 217 23 view .LVU250
 782 037e 002B     		cmp	r3, #0
 783 0380 7FF4DAAE 		bne	.L27
 218:Core/Src/Traffic_Light.c ****                             bits = PL1_Green(bits, true);
 784              		.loc 1 218 25 is_stmt 1 view .LVU251
 218:Core/Src/Traffic_Light.c ****                             bits = PL1_Green(bits, true);
ARM GAS  C:\Users\ehgre\AppData\Local\Temp\ccQxqZR3.s 			page 22


 785              		.loc 1 218 41 is_stmt 0 view .LVU252
 786 0384 5B4B     		ldr	r3, .L52+20
 787 0386 1B78     		ldrb	r3, [r3]	@ zero_extendqisi2
 218:Core/Src/Traffic_Light.c ****                             bits = PL1_Green(bits, true);
 788              		.loc 1 218 27 view .LVU253
 789 0388 53B1     		cbz	r3, .L30
 219:Core/Src/Traffic_Light.c ****                             bits = PL1_Red(bits, false);
 790              		.loc 1 219 29 is_stmt 1 view .LVU254
 219:Core/Src/Traffic_Light.c ****                             bits = PL1_Red(bits, false);
 791              		.loc 1 219 36 is_stmt 0 view .LVU255
 792 038a 564C     		ldr	r4, .L52+4
 793 038c 0121     		movs	r1, #1
 794 038e 2068     		ldr	r0, [r4]
 795 0390 FFF7FEFF 		bl	PL1_Green
 796              	.LVL63:
 219:Core/Src/Traffic_Light.c ****                             bits = PL1_Red(bits, false);
 797              		.loc 1 219 34 view .LVU256
 798 0394 2060     		str	r0, [r4]
 220:Core/Src/Traffic_Light.c ****                         }else{
 799              		.loc 1 220 29 is_stmt 1 view .LVU257
 220:Core/Src/Traffic_Light.c ****                         }else{
 800              		.loc 1 220 36 is_stmt 0 view .LVU258
 801 0396 0021     		movs	r1, #0
 802 0398 FFF7FEFF 		bl	PL1_Red
 803              	.LVL64:
 220:Core/Src/Traffic_Light.c ****                         }else{
 804              		.loc 1 220 34 view .LVU259
 805 039c 2060     		str	r0, [r4]
 806 039e CBE6     		b	.L27
 807              	.L30:
 222:Core/Src/Traffic_Light.c ****                             bits = PL1_Green(bits, false);
 808              		.loc 1 222 29 is_stmt 1 view .LVU260
 222:Core/Src/Traffic_Light.c ****                             bits = PL1_Green(bits, false);
 809              		.loc 1 222 33 is_stmt 0 view .LVU261
 810 03a0 0021     		movs	r1, #0
 811 03a2 554B     		ldr	r3, .L52+24
 812 03a4 1970     		strb	r1, [r3]
 223:Core/Src/Traffic_Light.c ****                             bits = PL1_Red(bits, true);
 813              		.loc 1 223 29 is_stmt 1 view .LVU262
 223:Core/Src/Traffic_Light.c ****                             bits = PL1_Red(bits, true);
 814              		.loc 1 223 36 is_stmt 0 view .LVU263
 815 03a6 4F4C     		ldr	r4, .L52+4
 816 03a8 2068     		ldr	r0, [r4]
 817 03aa FFF7FEFF 		bl	PL1_Green
 818              	.LVL65:
 223:Core/Src/Traffic_Light.c ****                             bits = PL1_Red(bits, true);
 819              		.loc 1 223 34 view .LVU264
 820 03ae 2060     		str	r0, [r4]
 224:Core/Src/Traffic_Light.c ****                         }
 821              		.loc 1 224 29 is_stmt 1 view .LVU265
 224:Core/Src/Traffic_Light.c ****                         }
 822              		.loc 1 224 36 is_stmt 0 view .LVU266
 823 03b0 0121     		movs	r1, #1
 824 03b2 FFF7FEFF 		bl	PL1_Red
 825              	.LVL66:
 224:Core/Src/Traffic_Light.c ****                         }
 826              		.loc 1 224 34 view .LVU267
ARM GAS  C:\Users\ehgre\AppData\Local\Temp\ccQxqZR3.s 			page 23


 827 03b6 2060     		str	r0, [r4]
 828 03b8 BEE6     		b	.L27
 829              	.L25:
 230:Core/Src/Traffic_Light.c ****                     if((msTick % (uint16_t)(toggleFreq*10)) == 0){
 830              		.loc 1 230 17 is_stmt 1 view .LVU268
 230:Core/Src/Traffic_Light.c ****                     if((msTick % (uint16_t)(toggleFreq*10)) == 0){
 831              		.loc 1 230 32 is_stmt 0 view .LVU269
 832 03ba 504B     		ldr	r3, .L52+28
 833 03bc 1B78     		ldrb	r3, [r3]	@ zero_extendqisi2
 230:Core/Src/Traffic_Light.c ****                     if((msTick % (uint16_t)(toggleFreq*10)) == 0){
 834              		.loc 1 230 19 view .LVU270
 835 03be 9BB1     		cbz	r3, .L31
 231:Core/Src/Traffic_Light.c ****                         bits = PL1_Blue_Toggle(bits);
 836              		.loc 1 231 21 is_stmt 1 view .LVU271
 231:Core/Src/Traffic_Light.c ****                         bits = PL1_Blue_Toggle(bits);
 837              		.loc 1 231 61 is_stmt 0 view .LVU272
 838 03c0 4F4B     		ldr	r3, .L52+32
 839 03c2 1B88     		ldrh	r3, [r3]
 840 03c4 4F4A     		ldr	r2, .L52+36
 841 03c6 A2FB0312 		umull	r1, r2, r2, r3
 842 03ca D209     		lsrs	r2, r2, #7
 843 03cc 4FF4FA61 		mov	r1, #2000
 844 03d0 01FB1233 		mls	r3, r1, r2, r3
 845 03d4 9BB2     		uxth	r3, r3
 231:Core/Src/Traffic_Light.c ****                         bits = PL1_Blue_Toggle(bits);
 846              		.loc 1 231 23 view .LVU273
 847 03d6 002B     		cmp	r3, #0
 848 03d8 7FF4AEAE 		bne	.L27
 232:Core/Src/Traffic_Light.c ****                     }
 849              		.loc 1 232 25 is_stmt 1 view .LVU274
 232:Core/Src/Traffic_Light.c ****                     }
 850              		.loc 1 232 32 is_stmt 0 view .LVU275
 851 03dc 414C     		ldr	r4, .L52+4
 852 03de 2068     		ldr	r0, [r4]
 853 03e0 FFF7FEFF 		bl	PL1_Blue_Toggle
 854              	.LVL67:
 232:Core/Src/Traffic_Light.c ****                     }
 855              		.loc 1 232 30 view .LVU276
 856 03e4 2060     		str	r0, [r4]
 857 03e6 A7E6     		b	.L27
 858              	.L31:
 235:Core/Src/Traffic_Light.c ****                     PLGreenDelay = walkingDelay;
 859              		.loc 1 235 21 is_stmt 1 view .LVU277
 235:Core/Src/Traffic_Light.c ****                     PLGreenDelay = walkingDelay;
 860              		.loc 1 235 25 is_stmt 0 view .LVU278
 861 03e8 434B     		ldr	r3, .L52+24
 862 03ea 0122     		movs	r2, #1
 863 03ec 1A70     		strb	r2, [r3]
 236:Core/Src/Traffic_Light.c ****                     bits = PL1_Blue(bits, false);
 864              		.loc 1 236 21 is_stmt 1 view .LVU279
 236:Core/Src/Traffic_Light.c ****                     bits = PL1_Blue(bits, false);
 865              		.loc 1 236 34 is_stmt 0 view .LVU280
 866 03ee 414B     		ldr	r3, .L52+20
 867 03f0 0A22     		movs	r2, #10
 868 03f2 1A70     		strb	r2, [r3]
 237:Core/Src/Traffic_Light.c ****                 }
 869              		.loc 1 237 21 is_stmt 1 view .LVU281
ARM GAS  C:\Users\ehgre\AppData\Local\Temp\ccQxqZR3.s 			page 24


 237:Core/Src/Traffic_Light.c ****                 }
 870              		.loc 1 237 28 is_stmt 0 view .LVU282
 871 03f4 3B4C     		ldr	r4, .L52+4
 872 03f6 0021     		movs	r1, #0
 873 03f8 2068     		ldr	r0, [r4]
 874 03fa FFF7FEFF 		bl	PL1_Blue
 875              	.LVL68:
 237:Core/Src/Traffic_Light.c ****                 }
 876              		.loc 1 237 26 view .LVU283
 877 03fe 2060     		str	r0, [r4]
 878 0400 9AE6     		b	.L27
 879              	.L44:
 241:Core/Src/Traffic_Light.c ****                 bits = PL1_Green(bits,false);
 880              		.loc 1 241 17 is_stmt 1 view .LVU284
 241:Core/Src/Traffic_Light.c ****                 bits = PL1_Green(bits,false);
 881              		.loc 1 241 24 is_stmt 0 view .LVU285
 882 0402 384C     		ldr	r4, .L52+4
 883 0404 0121     		movs	r1, #1
 884 0406 2068     		ldr	r0, [r4]
 885 0408 FFF7FEFF 		bl	PL1_Red
 886              	.LVL69:
 241:Core/Src/Traffic_Light.c ****                 bits = PL1_Green(bits,false);
 887              		.loc 1 241 22 view .LVU286
 888 040c 2060     		str	r0, [r4]
 242:Core/Src/Traffic_Light.c ****                 break;
 889              		.loc 1 242 17 is_stmt 1 view .LVU287
 242:Core/Src/Traffic_Light.c ****                 break;
 890              		.loc 1 242 24 is_stmt 0 view .LVU288
 891 040e 0021     		movs	r1, #0
 892 0410 FFF7FEFF 		bl	PL1_Green
 893              	.LVL70:
 242:Core/Src/Traffic_Light.c ****                 break;
 894              		.loc 1 242 22 view .LVU289
 895 0414 2060     		str	r0, [r4]
 243:Core/Src/Traffic_Light.c ****             default:
 896              		.loc 1 243 17 is_stmt 1 view .LVU290
 897 0416 8FE6     		b	.L27
 898              	.L32:
 249:Core/Src/Traffic_Light.c ****             case PLGreen:
 250:Core/Src/Traffic_Light.c ****                 if((C4 != TLRed) || (C2 != TLRed) || (C3 != TLRed)){
 899              		.loc 1 250 17 view .LVU291
 900              		.loc 1 250 24 is_stmt 0 view .LVU292
 901 0418 354B     		ldr	r3, .L52+16
 902 041a 1B78     		ldrb	r3, [r3]	@ zero_extendqisi2
 903              		.loc 1 250 19 view .LVU293
 904 041c 2BB9     		cbnz	r3, .L36
 905              		.loc 1 250 41 discriminator 1 view .LVU294
 906 041e 3A4B     		ldr	r3, .L52+40
 907 0420 1B78     		ldrb	r3, [r3]	@ zero_extendqisi2
 908              		.loc 1 250 34 discriminator 1 view .LVU295
 909 0422 13B9     		cbnz	r3, .L36
 910              		.loc 1 250 58 discriminator 2 view .LVU296
 911 0424 314B     		ldr	r3, .L52+12
 912 0426 1B78     		ldrb	r3, [r3]	@ zero_extendqisi2
 913              		.loc 1 250 51 discriminator 2 view .LVU297
 914 0428 53B1     		cbz	r3, .L37
 915              	.L36:
ARM GAS  C:\Users\ehgre\AppData\Local\Temp\ccQxqZR3.s 			page 25


 251:Core/Src/Traffic_Light.c ****                     C2 = TLRed;
 916              		.loc 1 251 21 is_stmt 1 view .LVU298
 917              		.loc 1 251 24 is_stmt 0 view .LVU299
 918 042a 0023     		movs	r3, #0
 919 042c 364A     		ldr	r2, .L52+40
 920 042e 1370     		strb	r3, [r2]
 252:Core/Src/Traffic_Light.c ****                     C3 = TLRed;
 921              		.loc 1 252 21 is_stmt 1 view .LVU300
 922              		.loc 1 252 24 is_stmt 0 view .LVU301
 923 0430 2E4A     		ldr	r2, .L52+12
 924 0432 1370     		strb	r3, [r2]
 253:Core/Src/Traffic_Light.c ****                     C4 = TLRed;
 925              		.loc 1 253 21 is_stmt 1 view .LVU302
 926              		.loc 1 253 24 is_stmt 0 view .LVU303
 927 0434 2E4A     		ldr	r2, .L52+16
 928 0436 1370     		strb	r3, [r2]
 254:Core/Src/Traffic_Light.c ****                     TLYellowDelay = orangeDelay+1;
 929              		.loc 1 254 21 is_stmt 1 view .LVU304
 930              		.loc 1 254 35 is_stmt 0 view .LVU305
 931 0438 294B     		ldr	r3, .L52
 932 043a 0222     		movs	r2, #2
 933 043c 1A70     		strb	r2, [r3]
 934 043e 86E6     		b	.L5
 935              	.L37:
 255:Core/Src/Traffic_Light.c ****                 }else{
 256:Core/Src/Traffic_Light.c ****                     if(TLYellowDelay == 0){
 936              		.loc 1 256 21 is_stmt 1 view .LVU306
 937              		.loc 1 256 38 is_stmt 0 view .LVU307
 938 0440 274B     		ldr	r3, .L52
 939 0442 1B78     		ldrb	r3, [r3]	@ zero_extendqisi2
 940              		.loc 1 256 23 view .LVU308
 941 0444 002B     		cmp	r3, #0
 942 0446 7FF482AE 		bne	.L5
 257:Core/Src/Traffic_Light.c ****                         if(PLGreenDelay > 0){
 943              		.loc 1 257 25 is_stmt 1 view .LVU309
 944              		.loc 1 257 41 is_stmt 0 view .LVU310
 945 044a 2A4B     		ldr	r3, .L52+20
 946 044c 1B78     		ldrb	r3, [r3]	@ zero_extendqisi2
 947              		.loc 1 257 27 view .LVU311
 948 044e 53B1     		cbz	r3, .L38
 258:Core/Src/Traffic_Light.c ****                             bits = PL2_Green(bits, true);
 949              		.loc 1 258 29 is_stmt 1 view .LVU312
 950              		.loc 1 258 36 is_stmt 0 view .LVU313
 951 0450 244C     		ldr	r4, .L52+4
 952 0452 0121     		movs	r1, #1
 953 0454 2068     		ldr	r0, [r4]
 954 0456 FFF7FEFF 		bl	PL2_Green
 955              	.LVL71:
 956              		.loc 1 258 34 view .LVU314
 957 045a 2060     		str	r0, [r4]
 259:Core/Src/Traffic_Light.c ****                             bits = PL2_Red(bits, false);
 958              		.loc 1 259 29 is_stmt 1 view .LVU315
 959              		.loc 1 259 36 is_stmt 0 view .LVU316
 960 045c 0021     		movs	r1, #0
 961 045e FFF7FEFF 		bl	PL2_Red
 962              	.LVL72:
 963              		.loc 1 259 34 view .LVU317
ARM GAS  C:\Users\ehgre\AppData\Local\Temp\ccQxqZR3.s 			page 26


 964 0462 2060     		str	r0, [r4]
 965 0464 73E6     		b	.L5
 966              	.L38:
 260:Core/Src/Traffic_Light.c ****                         }else{
 261:Core/Src/Traffic_Light.c ****                             CW2 = PLRed;
 967              		.loc 1 261 29 is_stmt 1 view .LVU318
 968              		.loc 1 261 33 is_stmt 0 view .LVU319
 969 0466 0021     		movs	r1, #0
 970 0468 284B     		ldr	r3, .L52+44
 971 046a 1970     		strb	r1, [r3]
 262:Core/Src/Traffic_Light.c ****                             bits = PL2_Green(bits, false);
 972              		.loc 1 262 29 is_stmt 1 view .LVU320
 973              		.loc 1 262 36 is_stmt 0 view .LVU321
 974 046c 1D4C     		ldr	r4, .L52+4
 975 046e 2068     		ldr	r0, [r4]
 976 0470 FFF7FEFF 		bl	PL2_Green
 977              	.LVL73:
 978              		.loc 1 262 34 view .LVU322
 979 0474 2060     		str	r0, [r4]
 263:Core/Src/Traffic_Light.c ****                             bits = PL2_Red(bits, true);
 980              		.loc 1 263 29 is_stmt 1 view .LVU323
 981              		.loc 1 263 36 is_stmt 0 view .LVU324
 982 0476 0121     		movs	r1, #1
 983 0478 FFF7FEFF 		bl	PL2_Red
 984              	.LVL74:
 985              		.loc 1 263 34 view .LVU325
 986 047c 2060     		str	r0, [r4]
 987 047e 66E6     		b	.L5
 988              	.L33:
 264:Core/Src/Traffic_Light.c ****                         }
 265:Core/Src/Traffic_Light.c ****                     }
 266:Core/Src/Traffic_Light.c ****                 }
 267:Core/Src/Traffic_Light.c ****                 break;
 268:Core/Src/Traffic_Light.c ****             case PLBlue:
 269:Core/Src/Traffic_Light.c ****                 if(PLBlueDelay > 0){
 989              		.loc 1 269 17 is_stmt 1 view .LVU326
 990              		.loc 1 269 32 is_stmt 0 view .LVU327
 991 0480 1E4B     		ldr	r3, .L52+28
 992 0482 1B78     		ldrb	r3, [r3]	@ zero_extendqisi2
 993              		.loc 1 269 19 view .LVU328
 994 0484 9BB1     		cbz	r3, .L39
 270:Core/Src/Traffic_Light.c ****                     if((msTick % (uint16_t)(toggleFreq*10)) == 0){
 995              		.loc 1 270 21 is_stmt 1 view .LVU329
 996              		.loc 1 270 61 is_stmt 0 view .LVU330
 997 0486 1E4B     		ldr	r3, .L52+32
 998 0488 1B88     		ldrh	r3, [r3]
 999 048a 1E4A     		ldr	r2, .L52+36
 1000 048c A2FB0312 		umull	r1, r2, r2, r3
 1001 0490 D209     		lsrs	r2, r2, #7
 1002 0492 4FF4FA61 		mov	r1, #2000
 1003 0496 01FB1233 		mls	r3, r1, r2, r3
 1004 049a 9BB2     		uxth	r3, r3
 1005              		.loc 1 270 23 view .LVU331
 1006 049c 002B     		cmp	r3, #0
 1007 049e 7FF456AE 		bne	.L5
 271:Core/Src/Traffic_Light.c ****                         bits = PL2_Blue_Toggle(bits);
 1008              		.loc 1 271 25 is_stmt 1 view .LVU332
ARM GAS  C:\Users\ehgre\AppData\Local\Temp\ccQxqZR3.s 			page 27


 1009              		.loc 1 271 32 is_stmt 0 view .LVU333
 1010 04a2 104C     		ldr	r4, .L52+4
 1011 04a4 2068     		ldr	r0, [r4]
 1012 04a6 FFF7FEFF 		bl	PL2_Blue_Toggle
 1013              	.LVL75:
 1014              		.loc 1 271 30 view .LVU334
 1015 04aa 2060     		str	r0, [r4]
 1016 04ac 4FE6     		b	.L5
 1017              	.L39:
 272:Core/Src/Traffic_Light.c ****                     }
 273:Core/Src/Traffic_Light.c ****                 }else{
 274:Core/Src/Traffic_Light.c ****                     CW2 = PLGreen;
 1018              		.loc 1 274 21 is_stmt 1 view .LVU335
 1019              		.loc 1 274 25 is_stmt 0 view .LVU336
 1020 04ae 174B     		ldr	r3, .L52+44
 1021 04b0 0122     		movs	r2, #1
 1022 04b2 1A70     		strb	r2, [r3]
 275:Core/Src/Traffic_Light.c ****                     PLGreenDelay = walkingDelay;
 1023              		.loc 1 275 21 is_stmt 1 view .LVU337
 1024              		.loc 1 275 34 is_stmt 0 view .LVU338
 1025 04b4 0F4B     		ldr	r3, .L52+20
 1026 04b6 0A22     		movs	r2, #10
 1027 04b8 1A70     		strb	r2, [r3]
 276:Core/Src/Traffic_Light.c ****                     bits = PL2_Blue(bits, false);
 1028              		.loc 1 276 21 is_stmt 1 view .LVU339
 1029              		.loc 1 276 28 is_stmt 0 view .LVU340
 1030 04ba 0A4C     		ldr	r4, .L52+4
 1031 04bc 0021     		movs	r1, #0
 1032 04be 2068     		ldr	r0, [r4]
 1033 04c0 FFF7FEFF 		bl	PL2_Blue
 1034              	.LVL76:
 1035              		.loc 1 276 26 view .LVU341
 1036 04c4 2060     		str	r0, [r4]
 1037 04c6 42E6     		b	.L5
 1038              	.L45:
 277:Core/Src/Traffic_Light.c ****                 }
 278:Core/Src/Traffic_Light.c ****                 break;
 279:Core/Src/Traffic_Light.c ****             case PLRed:
 280:Core/Src/Traffic_Light.c ****                 bits = PL2_Red(bits,true);
 1039              		.loc 1 280 17 is_stmt 1 view .LVU342
 1040              		.loc 1 280 24 is_stmt 0 view .LVU343
 1041 04c8 064C     		ldr	r4, .L52+4
 1042 04ca 0121     		movs	r1, #1
 1043 04cc 2068     		ldr	r0, [r4]
 1044 04ce FFF7FEFF 		bl	PL2_Red
 1045              	.LVL77:
 1046              		.loc 1 280 22 view .LVU344
 1047 04d2 2060     		str	r0, [r4]
 281:Core/Src/Traffic_Light.c ****                 bits = PL2_Green(bits,false);
 1048              		.loc 1 281 17 is_stmt 1 view .LVU345
 1049              		.loc 1 281 24 is_stmt 0 view .LVU346
 1050 04d4 0021     		movs	r1, #0
 1051 04d6 FFF7FEFF 		bl	PL2_Green
 1052              	.LVL78:
 1053              		.loc 1 281 22 view .LVU347
 1054 04da 2060     		str	r0, [r4]
 282:Core/Src/Traffic_Light.c ****                 break;
ARM GAS  C:\Users\ehgre\AppData\Local\Temp\ccQxqZR3.s 			page 28


 1055              		.loc 1 282 17 is_stmt 1 view .LVU348
 1056 04dc 37E6     		b	.L5
 1057              	.L53:
 1058 04de 00BF     		.align	2
 1059              	.L52:
 1060 04e0 00000000 		.word	TLYellowDelay
 1061 04e4 00000000 		.word	bits
 1062 04e8 00000000 		.word	C1
 1063 04ec 00000000 		.word	C3
 1064 04f0 00000000 		.word	C4
 1065 04f4 00000000 		.word	PLGreenDelay
 1066 04f8 00000000 		.word	CW1
 1067 04fc 00000000 		.word	PLBlueDelay
 1068 0500 00000000 		.word	msTick
 1069 0504 D34D6210 		.word	274877907
 1070 0508 00000000 		.word	C2
 1071 050c 00000000 		.word	CW2
 1072              		.cfi_endproc
 1073              	.LFE321:
 1075              		.section	.text.HAL_TIM_PeriodElapsedCallback,"ax",%progbits
 1076              		.align	1
 1077              		.global	HAL_TIM_PeriodElapsedCallback
 1078              		.syntax unified
 1079              		.thumb
 1080              		.thumb_func
 1082              	HAL_TIM_PeriodElapsedCallback:
 1083              	.LVL79:
 1084              	.LFB322:
 283:Core/Src/Traffic_Light.c ****             default:
 284:Core/Src/Traffic_Light.c ****                 break;
 285:Core/Src/Traffic_Light.c ****         }
 286:Core/Src/Traffic_Light.c ****     }
 287:Core/Src/Traffic_Light.c **** }
 288:Core/Src/Traffic_Light.c **** 
 289:Core/Src/Traffic_Light.c **** void HAL_TIM_PeriodElapsedCallback(TIM_HandleTypeDef *htim){
 1085              		.loc 1 289 60 view -0
 1086              		.cfi_startproc
 1087              		@ args = 0, pretend = 0, frame = 0
 1088              		@ frame_needed = 0, uses_anonymous_args = 0
 1089              		.loc 1 289 60 is_stmt 0 view .LVU350
 1090 0000 08B5     		push	{r3, lr}
 1091              	.LCFI1:
 1092              		.cfi_def_cfa_offset 8
 1093              		.cfi_offset 3, -8
 1094              		.cfi_offset 14, -4
 290:Core/Src/Traffic_Light.c ****     if(htim == &htim16){
 1095              		.loc 1 290 5 is_stmt 1 view .LVU351
 1096              		.loc 1 290 7 is_stmt 0 view .LVU352
 1097 0002 4D4B     		ldr	r3, .L74
 1098 0004 8342     		cmp	r3, r0
 1099 0006 00D0     		beq	.L69
 1100              	.LVL80:
 1101              	.L54:
 291:Core/Src/Traffic_Light.c ****         if(msTick >= 10000){ //1 second
 292:Core/Src/Traffic_Light.c **** 
 293:Core/Src/Traffic_Light.c ****             HAL_GPIO_TogglePin(USR_LED1_GPIO_Port, USR_LED1_Pin);
 294:Core/Src/Traffic_Light.c **** 
ARM GAS  C:\Users\ehgre\AppData\Local\Temp\ccQxqZR3.s 			page 29


 295:Core/Src/Traffic_Light.c ****             if(TLYellowDelay > 0){
 296:Core/Src/Traffic_Light.c ****                 TLYellowDelay--;
 297:Core/Src/Traffic_Light.c ****             }
 298:Core/Src/Traffic_Light.c **** 
 299:Core/Src/Traffic_Light.c ****             if(PLBlueDelay > 0){
 300:Core/Src/Traffic_Light.c ****                 PLBlueDelay--;
 301:Core/Src/Traffic_Light.c ****                 if(CW1 == PLBlue){
 302:Core/Src/Traffic_Light.c ****                     Show_P1Bar(true, (100 - ((PLBlueDelay*100)/pedestrianDelay)));
 303:Core/Src/Traffic_Light.c ****                 }
 304:Core/Src/Traffic_Light.c ****                 if(CW2 == PLBlue){
 305:Core/Src/Traffic_Light.c ****                     Show_P2Bar(true, (100 - ((PLBlueDelay*100)/pedestrianDelay)));
 306:Core/Src/Traffic_Light.c ****                 }
 307:Core/Src/Traffic_Light.c ****             }else{
 308:Core/Src/Traffic_Light.c ****                 if(PLGreenDelay > 0){
 309:Core/Src/Traffic_Light.c ****                     PLGreenDelay--;
 310:Core/Src/Traffic_Light.c ****                     if(CW1 == PLGreen){
 311:Core/Src/Traffic_Light.c ****                         Show_W1Bar(true, (100 - ((PLGreenDelay*100)/walkingDelay)));
 312:Core/Src/Traffic_Light.c ****                     }
 313:Core/Src/Traffic_Light.c ****                     if(CW2 == PLGreen){
 314:Core/Src/Traffic_Light.c ****                         Show_W2Bar(true, (100 - ((PLGreenDelay*100)/walkingDelay)));
 315:Core/Src/Traffic_Light.c ****                     }
 316:Core/Src/Traffic_Light.c ****                 }else{
 317:Core/Src/Traffic_Light.c ****                     Show_W1Bar(true, 0);
 318:Core/Src/Traffic_Light.c ****                     Show_W2Bar(true, 0);
 319:Core/Src/Traffic_Light.c ****                 }
 320:Core/Src/Traffic_Light.c ****                 Show_P1Bar(true, 0);
 321:Core/Src/Traffic_Light.c ****                 Show_P2Bar(true, 0);
 322:Core/Src/Traffic_Light.c ****             }
 323:Core/Src/Traffic_Light.c **** 
 324:Core/Src/Traffic_Light.c ****             msTick = 1;
 325:Core/Src/Traffic_Light.c ****         }else{
 326:Core/Src/Traffic_Light.c ****             msTick++;
 327:Core/Src/Traffic_Light.c ****         }
 328:Core/Src/Traffic_Light.c **** 
 329:Core/Src/Traffic_Light.c ****         if(Tick >= 100){ //10 ms
 330:Core/Src/Traffic_Light.c ****             Tick = 1;
 331:Core/Src/Traffic_Light.c ****         }else{
 332:Core/Src/Traffic_Light.c ****             Tick++;
 333:Core/Src/Traffic_Light.c ****         }
 334:Core/Src/Traffic_Light.c **** 
 335:Core/Src/Traffic_Light.c ****         if(Tick > brightness){
 336:Core/Src/Traffic_Light.c ****             HAL_GPIO_WritePin(Enable_595_GPIO_Port, Enable_595_Pin, GPIO_PIN_SET);
 337:Core/Src/Traffic_Light.c ****         }else{
 338:Core/Src/Traffic_Light.c ****             HAL_GPIO_WritePin(Enable_595_GPIO_Port, Enable_595_Pin, GPIO_PIN_RESET);
 339:Core/Src/Traffic_Light.c ****         }
 340:Core/Src/Traffic_Light.c **** 
 341:Core/Src/Traffic_Light.c ****     }
 342:Core/Src/Traffic_Light.c **** }...
 1102              		.loc 1 342 1 view .LVU353
 1103 0008 08BD     		pop	{r3, pc}
 1104              	.LVL81:
 1105              	.L69:
 291:Core/Src/Traffic_Light.c ****         if(msTick >= 10000){ //1 second
 1106              		.loc 1 291 9 is_stmt 1 view .LVU354
 291:Core/Src/Traffic_Light.c ****         if(msTick >= 10000){ //1 second
 1107              		.loc 1 291 19 is_stmt 0 view .LVU355
 1108 000a 4C4B     		ldr	r3, .L74+4
ARM GAS  C:\Users\ehgre\AppData\Local\Temp\ccQxqZR3.s 			page 30


 1109 000c 1B88     		ldrh	r3, [r3]
 291:Core/Src/Traffic_Light.c ****         if(msTick >= 10000){ //1 second
 1110              		.loc 1 291 11 view .LVU356
 1111 000e 42F20F72 		movw	r2, #9999
 1112 0012 9342     		cmp	r3, r2
 1113 0014 15D8     		bhi	.L70
 326:Core/Src/Traffic_Light.c ****             msTick++;
 1114              		.loc 1 326 13 is_stmt 1 view .LVU357
 326:Core/Src/Traffic_Light.c ****             msTick++;
 1115              		.loc 1 326 19 is_stmt 0 view .LVU358
 1116 0016 0133     		adds	r3, r3, #1
 1117 0018 484A     		ldr	r2, .L74+4
 1118 001a 1380     		strh	r3, [r2]	@ movhi
 1119              	.LVL82:
 1120              	.L64:
 329:Core/Src/Traffic_Light.c ****         if(Tick >= 100){ //10 ms
 1121              		.loc 1 329 9 is_stmt 1 view .LVU359
 329:Core/Src/Traffic_Light.c ****         if(Tick >= 100){ //10 ms
 1122              		.loc 1 329 17 is_stmt 0 view .LVU360
 1123 001c 484B     		ldr	r3, .L74+8
 1124 001e 1B78     		ldrb	r3, [r3]	@ zero_extendqisi2
 329:Core/Src/Traffic_Light.c ****         if(Tick >= 100){ //10 ms
 1125              		.loc 1 329 11 view .LVU361
 1126 0020 632B     		cmp	r3, #99
 1127 0022 7FD9     		bls	.L65
 330:Core/Src/Traffic_Light.c ****             Tick = 1;
 1128              		.loc 1 330 13 is_stmt 1 view .LVU362
 330:Core/Src/Traffic_Light.c ****             Tick = 1;
 1129              		.loc 1 330 18 is_stmt 0 view .LVU363
 1130 0024 464B     		ldr	r3, .L74+8
 1131 0026 0122     		movs	r2, #1
 1132 0028 1A70     		strb	r2, [r3]
 1133              	.L66:
 335:Core/Src/Traffic_Light.c ****         if(Tick > brightness){
 1134              		.loc 1 335 9 is_stmt 1 view .LVU364
 335:Core/Src/Traffic_Light.c ****         if(Tick > brightness){
 1135              		.loc 1 335 17 is_stmt 0 view .LVU365
 1136 002a 454B     		ldr	r3, .L74+8
 1137 002c 1A78     		ldrb	r2, [r3]	@ zero_extendqisi2
 1138 002e 454B     		ldr	r3, .L74+12
 1139 0030 1B78     		ldrb	r3, [r3]	@ zero_extendqisi2
 335:Core/Src/Traffic_Light.c ****         if(Tick > brightness){
 1140              		.loc 1 335 11 view .LVU366
 1141 0032 9A42     		cmp	r2, r3
 1142 0034 7AD9     		bls	.L67
 336:Core/Src/Traffic_Light.c ****             HAL_GPIO_WritePin(Enable_595_GPIO_Port, Enable_595_Pin, GPIO_PIN_SET);
 1143              		.loc 1 336 13 is_stmt 1 view .LVU367
 1144 0036 0122     		movs	r2, #1
 1145 0038 8021     		movs	r1, #128
 1146 003a 4348     		ldr	r0, .L74+16
 1147 003c FFF7FEFF 		bl	HAL_GPIO_WritePin
 1148              	.LVL83:
 1149 0040 E2E7     		b	.L54
 1150              	.LVL84:
 1151              	.L70:
 293:Core/Src/Traffic_Light.c ****             HAL_GPIO_TogglePin(USR_LED1_GPIO_Port, USR_LED1_Pin);
 1152              		.loc 1 293 13 view .LVU368
ARM GAS  C:\Users\ehgre\AppData\Local\Temp\ccQxqZR3.s 			page 31


 1153 0042 0421     		movs	r1, #4
 1154 0044 4148     		ldr	r0, .L74+20
 1155              	.LVL85:
 293:Core/Src/Traffic_Light.c ****             HAL_GPIO_TogglePin(USR_LED1_GPIO_Port, USR_LED1_Pin);
 1156              		.loc 1 293 13 is_stmt 0 view .LVU369
 1157 0046 FFF7FEFF 		bl	HAL_GPIO_TogglePin
 1158              	.LVL86:
 295:Core/Src/Traffic_Light.c ****             if(TLYellowDelay > 0){
 1159              		.loc 1 295 13 is_stmt 1 view .LVU370
 295:Core/Src/Traffic_Light.c ****             if(TLYellowDelay > 0){
 1160              		.loc 1 295 30 is_stmt 0 view .LVU371
 1161 004a 414B     		ldr	r3, .L74+24
 1162 004c 1B78     		ldrb	r3, [r3]	@ zero_extendqisi2
 295:Core/Src/Traffic_Light.c ****             if(TLYellowDelay > 0){
 1163              		.loc 1 295 15 view .LVU372
 1164 004e 13B1     		cbz	r3, .L57
 296:Core/Src/Traffic_Light.c ****                 TLYellowDelay--;
 1165              		.loc 1 296 17 is_stmt 1 view .LVU373
 296:Core/Src/Traffic_Light.c ****                 TLYellowDelay--;
 1166              		.loc 1 296 30 is_stmt 0 view .LVU374
 1167 0050 013B     		subs	r3, r3, #1
 1168 0052 3F4A     		ldr	r2, .L74+24
 1169 0054 1370     		strb	r3, [r2]
 1170              	.L57:
 299:Core/Src/Traffic_Light.c ****             if(PLBlueDelay > 0){
 1171              		.loc 1 299 13 is_stmt 1 view .LVU375
 299:Core/Src/Traffic_Light.c ****             if(PLBlueDelay > 0){
 1172              		.loc 1 299 28 is_stmt 0 view .LVU376
 1173 0056 3F4B     		ldr	r3, .L74+28
 1174 0058 1B78     		ldrb	r3, [r3]	@ zero_extendqisi2
 299:Core/Src/Traffic_Light.c ****             if(PLBlueDelay > 0){
 1175              		.loc 1 299 15 view .LVU377
 1176 005a 2BB3     		cbz	r3, .L58
 300:Core/Src/Traffic_Light.c ****                 PLBlueDelay--;
 1177              		.loc 1 300 17 is_stmt 1 view .LVU378
 300:Core/Src/Traffic_Light.c ****                 PLBlueDelay--;
 1178              		.loc 1 300 28 is_stmt 0 view .LVU379
 1179 005c 013B     		subs	r3, r3, #1
 1180 005e DBB2     		uxtb	r3, r3
 1181 0060 3C4A     		ldr	r2, .L74+28
 1182 0062 1370     		strb	r3, [r2]
 301:Core/Src/Traffic_Light.c ****                 if(CW1 == PLBlue){
 1183              		.loc 1 301 17 is_stmt 1 view .LVU380
 301:Core/Src/Traffic_Light.c ****                 if(CW1 == PLBlue){
 1184              		.loc 1 301 24 is_stmt 0 view .LVU381
 1185 0064 3C4A     		ldr	r2, .L74+32
 1186 0066 1278     		ldrb	r2, [r2]	@ zero_extendqisi2
 301:Core/Src/Traffic_Light.c ****                 if(CW1 == PLBlue){
 1187              		.loc 1 301 19 view .LVU382
 1188 0068 022A     		cmp	r2, #2
 1189 006a 11D0     		beq	.L71
 1190              	.L59:
 304:Core/Src/Traffic_Light.c ****                 if(CW2 == PLBlue){
 1191              		.loc 1 304 17 is_stmt 1 view .LVU383
 304:Core/Src/Traffic_Light.c ****                 if(CW2 == PLBlue){
 1192              		.loc 1 304 24 is_stmt 0 view .LVU384
 1193 006c 3B4B     		ldr	r3, .L74+36
ARM GAS  C:\Users\ehgre\AppData\Local\Temp\ccQxqZR3.s 			page 32


 1194 006e 1B78     		ldrb	r3, [r3]	@ zero_extendqisi2
 304:Core/Src/Traffic_Light.c ****                 if(CW2 == PLBlue){
 1195              		.loc 1 304 19 view .LVU385
 1196 0070 022B     		cmp	r3, #2
 1197 0072 30D1     		bne	.L60
 305:Core/Src/Traffic_Light.c ****                     Show_P2Bar(true, (100 - ((PLBlueDelay*100)/pedestrianDelay)));
 1198              		.loc 1 305 21 is_stmt 1 view .LVU386
 1199 0074 374B     		ldr	r3, .L74+28
 1200 0076 1B78     		ldrb	r3, [r3]	@ zero_extendqisi2
 1201 0078 C3EB0312 		rsb	r2, r3, r3, lsl #4
 1202 007c C3EB8201 		rsb	r1, r3, r2, lsl #2
 1203 0080 8900     		lsls	r1, r1, #2
 1204 0082 6431     		adds	r1, r1, #100
 1205 0084 01F0FC01 		and	r1, r1, #252
 1206 0088 0120     		movs	r0, #1
 1207 008a FFF7FEFF 		bl	Show_P2Bar
 1208              	.LVL87:
 1209 008e 22E0     		b	.L60
 1210              	.L71:
 302:Core/Src/Traffic_Light.c ****                     Show_P1Bar(true, (100 - ((PLBlueDelay*100)/pedestrianDelay)));
 1211              		.loc 1 302 21 view .LVU387
 1212 0090 C3EB0312 		rsb	r2, r3, r3, lsl #4
 1213 0094 C3EB8201 		rsb	r1, r3, r2, lsl #2
 1214 0098 8900     		lsls	r1, r1, #2
 1215 009a 6431     		adds	r1, r1, #100
 1216 009c 01F0FC01 		and	r1, r1, #252
 1217 00a0 0120     		movs	r0, #1
 1218 00a2 FFF7FEFF 		bl	Show_P1Bar
 1219              	.LVL88:
 1220 00a6 E1E7     		b	.L59
 1221              	.L58:
 308:Core/Src/Traffic_Light.c ****                 if(PLGreenDelay > 0){
 1222              		.loc 1 308 17 view .LVU388
 308:Core/Src/Traffic_Light.c ****                 if(PLGreenDelay > 0){
 1223              		.loc 1 308 33 is_stmt 0 view .LVU389
 1224 00a8 2D4B     		ldr	r3, .L74+40
 1225 00aa 1B78     		ldrb	r3, [r3]	@ zero_extendqisi2
 308:Core/Src/Traffic_Light.c ****                 if(PLGreenDelay > 0){
 1226              		.loc 1 308 19 view .LVU390
 1227 00ac 8BB3     		cbz	r3, .L61
 309:Core/Src/Traffic_Light.c ****                     PLGreenDelay--;
 1228              		.loc 1 309 21 is_stmt 1 view .LVU391
 309:Core/Src/Traffic_Light.c ****                     PLGreenDelay--;
 1229              		.loc 1 309 33 is_stmt 0 view .LVU392
 1230 00ae 013B     		subs	r3, r3, #1
 1231 00b0 DBB2     		uxtb	r3, r3
 1232 00b2 2B4A     		ldr	r2, .L74+40
 1233 00b4 1370     		strb	r3, [r2]
 310:Core/Src/Traffic_Light.c ****                     if(CW1 == PLGreen){
 1234              		.loc 1 310 21 is_stmt 1 view .LVU393
 310:Core/Src/Traffic_Light.c ****                     if(CW1 == PLGreen){
 1235              		.loc 1 310 28 is_stmt 0 view .LVU394
 1236 00b6 284A     		ldr	r2, .L74+32
 1237 00b8 1278     		ldrb	r2, [r2]	@ zero_extendqisi2
 310:Core/Src/Traffic_Light.c ****                     if(CW1 == PLGreen){
 1238              		.loc 1 310 23 view .LVU395
 1239 00ba 012A     		cmp	r2, #1
ARM GAS  C:\Users\ehgre\AppData\Local\Temp\ccQxqZR3.s 			page 33


 1240 00bc 0FD0     		beq	.L72
 1241              	.L62:
 313:Core/Src/Traffic_Light.c ****                     if(CW2 == PLGreen){
 1242              		.loc 1 313 21 is_stmt 1 view .LVU396
 313:Core/Src/Traffic_Light.c ****                     if(CW2 == PLGreen){
 1243              		.loc 1 313 28 is_stmt 0 view .LVU397
 1244 00be 274B     		ldr	r3, .L74+36
 1245 00c0 1B78     		ldrb	r3, [r3]	@ zero_extendqisi2
 313:Core/Src/Traffic_Light.c ****                     if(CW2 == PLGreen){
 1246              		.loc 1 313 23 view .LVU398
 1247 00c2 012B     		cmp	r3, #1
 1248 00c4 17D0     		beq	.L73
 1249              	.L63:
 320:Core/Src/Traffic_Light.c ****                 Show_P1Bar(true, 0);
 1250              		.loc 1 320 17 is_stmt 1 view .LVU399
 1251 00c6 0021     		movs	r1, #0
 1252 00c8 0120     		movs	r0, #1
 1253 00ca FFF7FEFF 		bl	Show_P1Bar
 1254              	.LVL89:
 321:Core/Src/Traffic_Light.c ****                 Show_P2Bar(true, 0);
 1255              		.loc 1 321 17 view .LVU400
 1256 00ce 0021     		movs	r1, #0
 1257 00d0 0120     		movs	r0, #1
 1258 00d2 FFF7FEFF 		bl	Show_P2Bar
 1259              	.LVL90:
 1260              	.L60:
 324:Core/Src/Traffic_Light.c ****             msTick = 1;
 1261              		.loc 1 324 13 view .LVU401
 324:Core/Src/Traffic_Light.c ****             msTick = 1;
 1262              		.loc 1 324 20 is_stmt 0 view .LVU402
 1263 00d6 194B     		ldr	r3, .L74+4
 1264 00d8 0122     		movs	r2, #1
 1265 00da 1A80     		strh	r2, [r3]	@ movhi
 1266 00dc 9EE7     		b	.L64
 1267              	.L72:
 311:Core/Src/Traffic_Light.c ****                         Show_W1Bar(true, (100 - ((PLGreenDelay*100)/walkingDelay)));
 1268              		.loc 1 311 25 is_stmt 1 view .LVU403
 1269 00de C3EB4312 		rsb	r2, r3, r3, lsl #5
 1270 00e2 C3EB8201 		rsb	r1, r3, r2, lsl #2
 1271 00e6 4900     		lsls	r1, r1, #1
 1272 00e8 6431     		adds	r1, r1, #100
 1273 00ea 01F0FE01 		and	r1, r1, #254
 1274 00ee 0120     		movs	r0, #1
 1275 00f0 FFF7FEFF 		bl	Show_W1Bar
 1276              	.LVL91:
 1277 00f4 E3E7     		b	.L62
 1278              	.L73:
 314:Core/Src/Traffic_Light.c ****                         Show_W2Bar(true, (100 - ((PLGreenDelay*100)/walkingDelay)));
 1279              		.loc 1 314 25 view .LVU404
 1280 00f6 1A4B     		ldr	r3, .L74+40
 1281 00f8 1B78     		ldrb	r3, [r3]	@ zero_extendqisi2
 1282 00fa C3EB4312 		rsb	r2, r3, r3, lsl #5
 1283 00fe C3EB8201 		rsb	r1, r3, r2, lsl #2
 1284 0102 4900     		lsls	r1, r1, #1
 1285 0104 6431     		adds	r1, r1, #100
 1286 0106 01F0FE01 		and	r1, r1, #254
 1287 010a 0120     		movs	r0, #1
ARM GAS  C:\Users\ehgre\AppData\Local\Temp\ccQxqZR3.s 			page 34


 1288 010c FFF7FEFF 		bl	Show_W2Bar
 1289              	.LVL92:
 1290 0110 D9E7     		b	.L63
 1291              	.L61:
 317:Core/Src/Traffic_Light.c ****                     Show_W1Bar(true, 0);
 1292              		.loc 1 317 21 view .LVU405
 1293 0112 0021     		movs	r1, #0
 1294 0114 0120     		movs	r0, #1
 1295 0116 FFF7FEFF 		bl	Show_W1Bar
 1296              	.LVL93:
 318:Core/Src/Traffic_Light.c ****                     Show_W2Bar(true, 0);
 1297              		.loc 1 318 21 view .LVU406
 1298 011a 0021     		movs	r1, #0
 1299 011c 0120     		movs	r0, #1
 1300 011e FFF7FEFF 		bl	Show_W2Bar
 1301              	.LVL94:
 1302 0122 D0E7     		b	.L63
 1303              	.L65:
 332:Core/Src/Traffic_Light.c ****             Tick++;
 1304              		.loc 1 332 13 view .LVU407
 332:Core/Src/Traffic_Light.c ****             Tick++;
 1305              		.loc 1 332 17 is_stmt 0 view .LVU408
 1306 0124 0133     		adds	r3, r3, #1
 1307 0126 064A     		ldr	r2, .L74+8
 1308 0128 1370     		strb	r3, [r2]
 1309 012a 7EE7     		b	.L66
 1310              	.L67:
 338:Core/Src/Traffic_Light.c ****             HAL_GPIO_WritePin(Enable_595_GPIO_Port, Enable_595_Pin, GPIO_PIN_RESET);
 1311              		.loc 1 338 13 is_stmt 1 view .LVU409
 1312 012c 0022     		movs	r2, #0
 1313 012e 8021     		movs	r1, #128
 1314 0130 0548     		ldr	r0, .L74+16
 1315 0132 FFF7FEFF 		bl	HAL_GPIO_WritePin
 1316              	.LVL95:
 1317              		.loc 1 342 1 is_stmt 0 view .LVU410
 1318 0136 67E7     		b	.L54
 1319              	.L75:
 1320              		.align	2
 1321              	.L74:
 1322 0138 00000000 		.word	htim16
 1323 013c 00000000 		.word	msTick
 1324 0140 00000000 		.word	Tick
 1325 0144 00000000 		.word	brightness
 1326 0148 00080048 		.word	1207961600
 1327 014c 00040048 		.word	1207960576
 1328 0150 00000000 		.word	TLYellowDelay
 1329 0154 00000000 		.word	PLBlueDelay
 1330 0158 00000000 		.word	CW1
 1331 015c 00000000 		.word	CW2
 1332 0160 00000000 		.word	PLGreenDelay
 1333              		.cfi_endproc
 1334              	.LFE322:
 1336              		.global	bits
 1337              		.section	.bss.bits,"aw",%nobits
 1338              		.align	2
 1341              	bits:
 1342 0000 00000000 		.space	4
ARM GAS  C:\Users\ehgre\AppData\Local\Temp\ccQxqZR3.s 			page 35


 1343              		.global	Tick
 1344              		.section	.data.Tick,"aw"
 1347              	Tick:
 1348 0000 01       		.byte	1
 1349              		.global	msTick
 1350              		.section	.data.msTick,"aw"
 1351              		.align	1
 1354              	msTick:
 1355 0000 0100     		.short	1
 1356              		.global	toggleBlue
 1357              		.section	.bss.toggleBlue,"aw",%nobits
 1360              	toggleBlue:
 1361 0000 00       		.space	1
 1362              		.global	toggleBrightness
 1363              		.section	.bss.toggleBrightness,"aw",%nobits
 1366              	toggleBrightness:
 1367 0000 00       		.space	1
 1368              		.global	TLYellowDelay
 1369              		.section	.bss.TLYellowDelay,"aw",%nobits
 1372              	TLYellowDelay:
 1373 0000 00       		.space	1
 1374              		.global	PLGreenDelay
 1375              		.section	.bss.PLGreenDelay,"aw",%nobits
 1378              	PLGreenDelay:
 1379 0000 00       		.space	1
 1380              		.global	PLBlueDelay
 1381              		.section	.bss.PLBlueDelay,"aw",%nobits
 1384              	PLBlueDelay:
 1385 0000 00       		.space	1
 1386              		.global	brightness
 1387              		.section	.bss.brightness,"aw",%nobits
 1390              	brightness:
 1391 0000 00       		.space	1
 1392              		.section	.bss.CW2,"aw",%nobits
 1395              	CW2:
 1396 0000 00       		.space	1
 1397              		.section	.bss.CW1,"aw",%nobits
 1400              	CW1:
 1401 0000 00       		.space	1
 1402              		.section	.bss.C4,"aw",%nobits
 1405              	C4:
 1406 0000 00       		.space	1
 1407              		.section	.bss.C3,"aw",%nobits
 1410              	C3:
 1411 0000 00       		.space	1
 1412              		.section	.bss.C2,"aw",%nobits
 1415              	C2:
 1416 0000 00       		.space	1
 1417              		.section	.bss.C1,"aw",%nobits
 1420              	C1:
 1421 0000 00       		.space	1
 1422              		.text
 1423              	.Letext0:
 1424              		.file 2 "c:\\users\\ehgre\\desktop\\plugg\\inbyggda system\\tools\\arm-gnu-toolchain-12.2.mpacbti-
 1425              		.file 3 "c:\\users\\ehgre\\desktop\\plugg\\inbyggda system\\tools\\arm-gnu-toolchain-12.2.mpacbti-
 1426              		.file 4 "Drivers/CMSIS/Device/ST/STM32L4xx/Include/stm32l476xx.h"
 1427              		.file 5 "Drivers/STM32L4xx_HAL_Driver/Inc/stm32l4xx_hal_def.h"
ARM GAS  C:\Users\ehgre\AppData\Local\Temp\ccQxqZR3.s 			page 36


 1428              		.file 6 "Drivers/STM32L4xx_HAL_Driver/Inc/stm32l4xx_hal_gpio.h"
 1429              		.file 7 "Drivers/STM32L4xx_HAL_Driver/Inc/stm32l4xx_hal_dma.h"
 1430              		.file 8 "Drivers/STM32L4xx_HAL_Driver/Inc/stm32l4xx_hal_tim.h"
 1431              		.file 9 "Core/Inc/light_logic.h"
 1432              		.file 10 "Core/Inc/tim.h"
 1433              		.file 11 "Core/Inc/OledDelayBars.h"
 1434              		.file 12 "Core/Inc/interactions.h"
 1435              		.file 13 "Core/Inc/potentiometer.h"
ARM GAS  C:\Users\ehgre\AppData\Local\Temp\ccQxqZR3.s 			page 37


DEFINED SYMBOLS
                            *ABS*:00000000 Traffic_Light.c
C:\Users\ehgre\AppData\Local\Temp\ccQxqZR3.s:21     .text.Init_States:00000000 $t
C:\Users\ehgre\AppData\Local\Temp\ccQxqZR3.s:27     .text.Init_States:00000000 Init_States
C:\Users\ehgre\AppData\Local\Temp\ccQxqZR3.s:65     .text.Init_States:00000020 $d
C:\Users\ehgre\AppData\Local\Temp\ccQxqZR3.s:1420   .bss.C1:00000000 C1
C:\Users\ehgre\AppData\Local\Temp\ccQxqZR3.s:1415   .bss.C2:00000000 C2
C:\Users\ehgre\AppData\Local\Temp\ccQxqZR3.s:1410   .bss.C3:00000000 C3
C:\Users\ehgre\AppData\Local\Temp\ccQxqZR3.s:1405   .bss.C4:00000000 C4
C:\Users\ehgre\AppData\Local\Temp\ccQxqZR3.s:1400   .bss.CW1:00000000 CW1
C:\Users\ehgre\AppData\Local\Temp\ccQxqZR3.s:1395   .bss.CW2:00000000 CW2
C:\Users\ehgre\AppData\Local\Temp\ccQxqZR3.s:75     .text.traffic_lights:00000000 $t
C:\Users\ehgre\AppData\Local\Temp\ccQxqZR3.s:81     .text.traffic_lights:00000000 traffic_lights
C:\Users\ehgre\AppData\Local\Temp\ccQxqZR3.s:575    .text.traffic_lights:00000270 $d
C:\Users\ehgre\AppData\Local\Temp\ccQxqZR3.s:1341   .bss.bits:00000000 bits
C:\Users\ehgre\AppData\Local\Temp\ccQxqZR3.s:1372   .bss.TLYellowDelay:00000000 TLYellowDelay
C:\Users\ehgre\AppData\Local\Temp\ccQxqZR3.s:1390   .bss.brightness:00000000 brightness
C:\Users\ehgre\AppData\Local\Temp\ccQxqZR3.s:1384   .bss.PLBlueDelay:00000000 PLBlueDelay
C:\Users\ehgre\AppData\Local\Temp\ccQxqZR3.s:589    .text.traffic_lights:0000029c $t
C:\Users\ehgre\AppData\Local\Temp\ccQxqZR3.s:1060   .text.traffic_lights:000004e0 $d
C:\Users\ehgre\AppData\Local\Temp\ccQxqZR3.s:1378   .bss.PLGreenDelay:00000000 PLGreenDelay
C:\Users\ehgre\AppData\Local\Temp\ccQxqZR3.s:1354   .data.msTick:00000000 msTick
C:\Users\ehgre\AppData\Local\Temp\ccQxqZR3.s:1076   .text.HAL_TIM_PeriodElapsedCallback:00000000 $t
C:\Users\ehgre\AppData\Local\Temp\ccQxqZR3.s:1082   .text.HAL_TIM_PeriodElapsedCallback:00000000 HAL_TIM_PeriodElapsedCallback
C:\Users\ehgre\AppData\Local\Temp\ccQxqZR3.s:1322   .text.HAL_TIM_PeriodElapsedCallback:00000138 $d
C:\Users\ehgre\AppData\Local\Temp\ccQxqZR3.s:1347   .data.Tick:00000000 Tick
C:\Users\ehgre\AppData\Local\Temp\ccQxqZR3.s:1338   .bss.bits:00000000 $d
C:\Users\ehgre\AppData\Local\Temp\ccQxqZR3.s:1351   .data.msTick:00000000 $d
C:\Users\ehgre\AppData\Local\Temp\ccQxqZR3.s:1360   .bss.toggleBlue:00000000 toggleBlue
C:\Users\ehgre\AppData\Local\Temp\ccQxqZR3.s:1361   .bss.toggleBlue:00000000 $d
C:\Users\ehgre\AppData\Local\Temp\ccQxqZR3.s:1366   .bss.toggleBrightness:00000000 toggleBrightness
C:\Users\ehgre\AppData\Local\Temp\ccQxqZR3.s:1367   .bss.toggleBrightness:00000000 $d
C:\Users\ehgre\AppData\Local\Temp\ccQxqZR3.s:1373   .bss.TLYellowDelay:00000000 $d
C:\Users\ehgre\AppData\Local\Temp\ccQxqZR3.s:1379   .bss.PLGreenDelay:00000000 $d
C:\Users\ehgre\AppData\Local\Temp\ccQxqZR3.s:1385   .bss.PLBlueDelay:00000000 $d
C:\Users\ehgre\AppData\Local\Temp\ccQxqZR3.s:1391   .bss.brightness:00000000 $d
C:\Users\ehgre\AppData\Local\Temp\ccQxqZR3.s:1396   .bss.CW2:00000000 $d
C:\Users\ehgre\AppData\Local\Temp\ccQxqZR3.s:1401   .bss.CW1:00000000 $d
C:\Users\ehgre\AppData\Local\Temp\ccQxqZR3.s:1406   .bss.C4:00000000 $d
C:\Users\ehgre\AppData\Local\Temp\ccQxqZR3.s:1411   .bss.C3:00000000 $d
C:\Users\ehgre\AppData\Local\Temp\ccQxqZR3.s:1416   .bss.C2:00000000 $d
C:\Users\ehgre\AppData\Local\Temp\ccQxqZR3.s:1421   .bss.C1:00000000 $d

UNDEFINED SYMBOLS
HAL_TIM_Base_Start_IT
Show_All_DelayBars
Init_Task2
TL1_Green
TL1_Red
TL1_Yellow
TL1_isRed
TL2_Green
TL2_Red
TL2_Yellow
TL3_isGreen
TL3_Green
TL3_Red
ARM GAS  C:\Users\ehgre\AppData\Local\Temp\ccQxqZR3.s 			page 38


TL3_Yellow
TL4_isGreen
TL4_Green
TL4_Red
TL4_Yellow
getPotiPercent
is_pl1
is_pl2
TL1_isGreen
TL2_isGreen
TL2_isRed
htim16
TL3_isRed
TL4_isRed
PL1_Green
PL1_Red
PL1_Blue_Toggle
PL1_Blue
PL2_Green
PL2_Red
PL2_Blue_Toggle
PL2_Blue
HAL_GPIO_WritePin
HAL_GPIO_TogglePin
Show_P2Bar
Show_P1Bar
Show_W1Bar
Show_W2Bar
